
MIBattController.elf:     file format elf32-littlearm

Sections:
Idx Name          Size      VMA       LMA       File off  Algn
  0 .user_data    00020000  08014000  08014000  00034000  2**2
                  ALLOC, READONLY
  1 .isr_vector   0000018c  08000000  08000000  00010000  2**0
                  CONTENTS, ALLOC, LOAD, READONLY, DATA
  2 .text         0000f3bc  08000190  08000190  00010190  2**4
                  CONTENTS, ALLOC, LOAD, READONLY, CODE
  3 .rodata       00000dd8  0800f550  0800f550  0001f550  2**3
                  CONTENTS, ALLOC, LOAD, READONLY, DATA
  4 .ARM.extab    00000000  08010328  08010328  00030218  2**0
                  CONTENTS
  5 .ARM          00000008  08010328  08010328  00020328  2**2
                  CONTENTS, ALLOC, LOAD, READONLY, DATA
  6 .preinit_array 00000000  08010330  08010330  00030218  2**0
                  CONTENTS, ALLOC, LOAD, DATA
  7 .init_array   00000004  08010330  08010330  00020330  2**2
                  CONTENTS, ALLOC, LOAD, DATA
  8 .fini_array   00000004  08010334  08010334  00020334  2**2
                  CONTENTS, ALLOC, LOAD, DATA
  9 .data         00000218  20000000  08010338  00030000  2**2
                  CONTENTS, ALLOC, LOAD, DATA
 10 .bss          00006140  20000218  08010550  00030218  2**2
                  ALLOC
 11 ._user_heap_stack 00000600  20006358  08010550  00036358  2**0
                  ALLOC
 12 .ARM.attributes 00000030  00000000  00000000  00030218  2**0
                  CONTENTS, READONLY
 13 .comment      00000053  00000000  00000000  00030248  2**0
                  CONTENTS, READONLY
 14 .debug_frame  000017f8  00000000  00000000  0003029c  2**2
                  CONTENTS, READONLY, DEBUGGING, OCTETS

Disassembly of section .text:

08000190 <__do_global_dtors_aux>:
 8000190:	b510      	push	{r4, lr}
 8000192:	4c05      	ldr	r4, [pc, #20]	; (80001a8 <__do_global_dtors_aux+0x18>)
 8000194:	7823      	ldrb	r3, [r4, #0]
 8000196:	b933      	cbnz	r3, 80001a6 <__do_global_dtors_aux+0x16>
 8000198:	4b04      	ldr	r3, [pc, #16]	; (80001ac <__do_global_dtors_aux+0x1c>)
 800019a:	b113      	cbz	r3, 80001a2 <__do_global_dtors_aux+0x12>
 800019c:	4804      	ldr	r0, [pc, #16]	; (80001b0 <__do_global_dtors_aux+0x20>)
 800019e:	f3af 8000 	nop.w
 80001a2:	2301      	movs	r3, #1
 80001a4:	7023      	strb	r3, [r4, #0]
 80001a6:	bd10      	pop	{r4, pc}
 80001a8:	20000218 	.word	0x20000218
 80001ac:	00000000 	.word	0x00000000
 80001b0:	0800f534 	.word	0x0800f534

080001b4 <frame_dummy>:
 80001b4:	b508      	push	{r3, lr}
 80001b6:	4b03      	ldr	r3, [pc, #12]	; (80001c4 <frame_dummy+0x10>)
 80001b8:	b11b      	cbz	r3, 80001c2 <frame_dummy+0xe>
 80001ba:	4903      	ldr	r1, [pc, #12]	; (80001c8 <frame_dummy+0x14>)
 80001bc:	4803      	ldr	r0, [pc, #12]	; (80001cc <frame_dummy+0x18>)
 80001be:	f3af 8000 	nop.w
 80001c2:	bd08      	pop	{r3, pc}
 80001c4:	00000000 	.word	0x00000000
 80001c8:	2000021c 	.word	0x2000021c
 80001cc:	0800f534 	.word	0x0800f534

080001d0 <strlen>:
 80001d0:	4603      	mov	r3, r0
 80001d2:	f813 2b01 	ldrb.w	r2, [r3], #1
 80001d6:	2a00      	cmp	r2, #0
 80001d8:	d1fb      	bne.n	80001d2 <strlen+0x2>
 80001da:	1a18      	subs	r0, r3, r0
 80001dc:	3801      	subs	r0, #1
 80001de:	4770      	bx	lr

080001e0 <memchr>:
 80001e0:	f001 01ff 	and.w	r1, r1, #255	; 0xff
 80001e4:	2a10      	cmp	r2, #16
 80001e6:	db2b      	blt.n	8000240 <memchr+0x60>
 80001e8:	f010 0f07 	tst.w	r0, #7
 80001ec:	d008      	beq.n	8000200 <memchr+0x20>
 80001ee:	f810 3b01 	ldrb.w	r3, [r0], #1
 80001f2:	3a01      	subs	r2, #1
 80001f4:	428b      	cmp	r3, r1
 80001f6:	d02d      	beq.n	8000254 <memchr+0x74>
 80001f8:	f010 0f07 	tst.w	r0, #7
 80001fc:	b342      	cbz	r2, 8000250 <memchr+0x70>
 80001fe:	d1f6      	bne.n	80001ee <memchr+0xe>
 8000200:	b4f0      	push	{r4, r5, r6, r7}
 8000202:	ea41 2101 	orr.w	r1, r1, r1, lsl #8
 8000206:	ea41 4101 	orr.w	r1, r1, r1, lsl #16
 800020a:	f022 0407 	bic.w	r4, r2, #7
 800020e:	f07f 0700 	mvns.w	r7, #0
 8000212:	2300      	movs	r3, #0
 8000214:	e8f0 5602 	ldrd	r5, r6, [r0], #8
 8000218:	3c08      	subs	r4, #8
 800021a:	ea85 0501 	eor.w	r5, r5, r1
 800021e:	ea86 0601 	eor.w	r6, r6, r1
 8000222:	fa85 f547 	uadd8	r5, r5, r7
 8000226:	faa3 f587 	sel	r5, r3, r7
 800022a:	fa86 f647 	uadd8	r6, r6, r7
 800022e:	faa5 f687 	sel	r6, r5, r7
 8000232:	b98e      	cbnz	r6, 8000258 <memchr+0x78>
 8000234:	d1ee      	bne.n	8000214 <memchr+0x34>
 8000236:	bcf0      	pop	{r4, r5, r6, r7}
 8000238:	f001 01ff 	and.w	r1, r1, #255	; 0xff
 800023c:	f002 0207 	and.w	r2, r2, #7
 8000240:	b132      	cbz	r2, 8000250 <memchr+0x70>
 8000242:	f810 3b01 	ldrb.w	r3, [r0], #1
 8000246:	3a01      	subs	r2, #1
 8000248:	ea83 0301 	eor.w	r3, r3, r1
 800024c:	b113      	cbz	r3, 8000254 <memchr+0x74>
 800024e:	d1f8      	bne.n	8000242 <memchr+0x62>
 8000250:	2000      	movs	r0, #0
 8000252:	4770      	bx	lr
 8000254:	3801      	subs	r0, #1
 8000256:	4770      	bx	lr
 8000258:	2d00      	cmp	r5, #0
 800025a:	bf06      	itte	eq
 800025c:	4635      	moveq	r5, r6
 800025e:	3803      	subeq	r0, #3
 8000260:	3807      	subne	r0, #7
 8000262:	f015 0f01 	tst.w	r5, #1
 8000266:	d107      	bne.n	8000278 <memchr+0x98>
 8000268:	3001      	adds	r0, #1
 800026a:	f415 7f80 	tst.w	r5, #256	; 0x100
 800026e:	bf02      	ittt	eq
 8000270:	3001      	addeq	r0, #1
 8000272:	f415 3fc0 	tsteq.w	r5, #98304	; 0x18000
 8000276:	3001      	addeq	r0, #1
 8000278:	bcf0      	pop	{r4, r5, r6, r7}
 800027a:	3801      	subs	r0, #1
 800027c:	4770      	bx	lr
 800027e:	bf00      	nop

08000280 <__aeabi_drsub>:
 8000280:	f081 4100 	eor.w	r1, r1, #2147483648	; 0x80000000
 8000284:	e002      	b.n	800028c <__adddf3>
 8000286:	bf00      	nop

08000288 <__aeabi_dsub>:
 8000288:	f083 4300 	eor.w	r3, r3, #2147483648	; 0x80000000

0800028c <__adddf3>:
 800028c:	b530      	push	{r4, r5, lr}
 800028e:	ea4f 0441 	mov.w	r4, r1, lsl #1
 8000292:	ea4f 0543 	mov.w	r5, r3, lsl #1
 8000296:	ea94 0f05 	teq	r4, r5
 800029a:	bf08      	it	eq
 800029c:	ea90 0f02 	teqeq	r0, r2
 80002a0:	bf1f      	itttt	ne
 80002a2:	ea54 0c00 	orrsne.w	ip, r4, r0
 80002a6:	ea55 0c02 	orrsne.w	ip, r5, r2
 80002aa:	ea7f 5c64 	mvnsne.w	ip, r4, asr #21
 80002ae:	ea7f 5c65 	mvnsne.w	ip, r5, asr #21
 80002b2:	f000 80e2 	beq.w	800047a <__adddf3+0x1ee>
 80002b6:	ea4f 5454 	mov.w	r4, r4, lsr #21
 80002ba:	ebd4 5555 	rsbs	r5, r4, r5, lsr #21
 80002be:	bfb8      	it	lt
 80002c0:	426d      	neglt	r5, r5
 80002c2:	dd0c      	ble.n	80002de <__adddf3+0x52>
 80002c4:	442c      	add	r4, r5
 80002c6:	ea80 0202 	eor.w	r2, r0, r2
 80002ca:	ea81 0303 	eor.w	r3, r1, r3
 80002ce:	ea82 0000 	eor.w	r0, r2, r0
 80002d2:	ea83 0101 	eor.w	r1, r3, r1
 80002d6:	ea80 0202 	eor.w	r2, r0, r2
 80002da:	ea81 0303 	eor.w	r3, r1, r3
 80002de:	2d36      	cmp	r5, #54	; 0x36
 80002e0:	bf88      	it	hi
 80002e2:	bd30      	pophi	{r4, r5, pc}
 80002e4:	f011 4f00 	tst.w	r1, #2147483648	; 0x80000000
 80002e8:	ea4f 3101 	mov.w	r1, r1, lsl #12
 80002ec:	f44f 1c80 	mov.w	ip, #1048576	; 0x100000
 80002f0:	ea4c 3111 	orr.w	r1, ip, r1, lsr #12
 80002f4:	d002      	beq.n	80002fc <__adddf3+0x70>
 80002f6:	4240      	negs	r0, r0
 80002f8:	eb61 0141 	sbc.w	r1, r1, r1, lsl #1
 80002fc:	f013 4f00 	tst.w	r3, #2147483648	; 0x80000000
 8000300:	ea4f 3303 	mov.w	r3, r3, lsl #12
 8000304:	ea4c 3313 	orr.w	r3, ip, r3, lsr #12
 8000308:	d002      	beq.n	8000310 <__adddf3+0x84>
 800030a:	4252      	negs	r2, r2
 800030c:	eb63 0343 	sbc.w	r3, r3, r3, lsl #1
 8000310:	ea94 0f05 	teq	r4, r5
 8000314:	f000 80a7 	beq.w	8000466 <__adddf3+0x1da>
 8000318:	f1a4 0401 	sub.w	r4, r4, #1
 800031c:	f1d5 0e20 	rsbs	lr, r5, #32
 8000320:	db0d      	blt.n	800033e <__adddf3+0xb2>
 8000322:	fa02 fc0e 	lsl.w	ip, r2, lr
 8000326:	fa22 f205 	lsr.w	r2, r2, r5
 800032a:	1880      	adds	r0, r0, r2
 800032c:	f141 0100 	adc.w	r1, r1, #0
 8000330:	fa03 f20e 	lsl.w	r2, r3, lr
 8000334:	1880      	adds	r0, r0, r2
 8000336:	fa43 f305 	asr.w	r3, r3, r5
 800033a:	4159      	adcs	r1, r3
 800033c:	e00e      	b.n	800035c <__adddf3+0xd0>
 800033e:	f1a5 0520 	sub.w	r5, r5, #32
 8000342:	f10e 0e20 	add.w	lr, lr, #32
 8000346:	2a01      	cmp	r2, #1
 8000348:	fa03 fc0e 	lsl.w	ip, r3, lr
 800034c:	bf28      	it	cs
 800034e:	f04c 0c02 	orrcs.w	ip, ip, #2
 8000352:	fa43 f305 	asr.w	r3, r3, r5
 8000356:	18c0      	adds	r0, r0, r3
 8000358:	eb51 71e3 	adcs.w	r1, r1, r3, asr #31
 800035c:	f001 4500 	and.w	r5, r1, #2147483648	; 0x80000000
 8000360:	d507      	bpl.n	8000372 <__adddf3+0xe6>
 8000362:	f04f 0e00 	mov.w	lr, #0
 8000366:	f1dc 0c00 	rsbs	ip, ip, #0
 800036a:	eb7e 0000 	sbcs.w	r0, lr, r0
 800036e:	eb6e 0101 	sbc.w	r1, lr, r1
 8000372:	f5b1 1f80 	cmp.w	r1, #1048576	; 0x100000
 8000376:	d31b      	bcc.n	80003b0 <__adddf3+0x124>
 8000378:	f5b1 1f00 	cmp.w	r1, #2097152	; 0x200000
 800037c:	d30c      	bcc.n	8000398 <__adddf3+0x10c>
 800037e:	0849      	lsrs	r1, r1, #1
 8000380:	ea5f 0030 	movs.w	r0, r0, rrx
 8000384:	ea4f 0c3c 	mov.w	ip, ip, rrx
 8000388:	f104 0401 	add.w	r4, r4, #1
 800038c:	ea4f 5244 	mov.w	r2, r4, lsl #21
 8000390:	f512 0f80 	cmn.w	r2, #4194304	; 0x400000
 8000394:	f080 809a 	bcs.w	80004cc <__adddf3+0x240>
 8000398:	f1bc 4f00 	cmp.w	ip, #2147483648	; 0x80000000
 800039c:	bf08      	it	eq
 800039e:	ea5f 0c50 	movseq.w	ip, r0, lsr #1
 80003a2:	f150 0000 	adcs.w	r0, r0, #0
 80003a6:	eb41 5104 	adc.w	r1, r1, r4, lsl #20
 80003aa:	ea41 0105 	orr.w	r1, r1, r5
 80003ae:	bd30      	pop	{r4, r5, pc}
 80003b0:	ea5f 0c4c 	movs.w	ip, ip, lsl #1
 80003b4:	4140      	adcs	r0, r0
 80003b6:	eb41 0101 	adc.w	r1, r1, r1
 80003ba:	3c01      	subs	r4, #1
 80003bc:	bf28      	it	cs
 80003be:	f5b1 1f80 	cmpcs.w	r1, #1048576	; 0x100000
 80003c2:	d2e9      	bcs.n	8000398 <__adddf3+0x10c>
 80003c4:	f091 0f00 	teq	r1, #0
 80003c8:	bf04      	itt	eq
 80003ca:	4601      	moveq	r1, r0
 80003cc:	2000      	moveq	r0, #0
 80003ce:	fab1 f381 	clz	r3, r1
 80003d2:	bf08      	it	eq
 80003d4:	3320      	addeq	r3, #32
 80003d6:	f1a3 030b 	sub.w	r3, r3, #11
 80003da:	f1b3 0220 	subs.w	r2, r3, #32
 80003de:	da0c      	bge.n	80003fa <__adddf3+0x16e>
 80003e0:	320c      	adds	r2, #12
 80003e2:	dd08      	ble.n	80003f6 <__adddf3+0x16a>
 80003e4:	f102 0c14 	add.w	ip, r2, #20
 80003e8:	f1c2 020c 	rsb	r2, r2, #12
 80003ec:	fa01 f00c 	lsl.w	r0, r1, ip
 80003f0:	fa21 f102 	lsr.w	r1, r1, r2
 80003f4:	e00c      	b.n	8000410 <__adddf3+0x184>
 80003f6:	f102 0214 	add.w	r2, r2, #20
 80003fa:	bfd8      	it	le
 80003fc:	f1c2 0c20 	rsble	ip, r2, #32
 8000400:	fa01 f102 	lsl.w	r1, r1, r2
 8000404:	fa20 fc0c 	lsr.w	ip, r0, ip
 8000408:	bfdc      	itt	le
 800040a:	ea41 010c 	orrle.w	r1, r1, ip
 800040e:	4090      	lslle	r0, r2
 8000410:	1ae4      	subs	r4, r4, r3
 8000412:	bfa2      	ittt	ge
 8000414:	eb01 5104 	addge.w	r1, r1, r4, lsl #20
 8000418:	4329      	orrge	r1, r5
 800041a:	bd30      	popge	{r4, r5, pc}
 800041c:	ea6f 0404 	mvn.w	r4, r4
 8000420:	3c1f      	subs	r4, #31
 8000422:	da1c      	bge.n	800045e <__adddf3+0x1d2>
 8000424:	340c      	adds	r4, #12
 8000426:	dc0e      	bgt.n	8000446 <__adddf3+0x1ba>
 8000428:	f104 0414 	add.w	r4, r4, #20
 800042c:	f1c4 0220 	rsb	r2, r4, #32
 8000430:	fa20 f004 	lsr.w	r0, r0, r4
 8000434:	fa01 f302 	lsl.w	r3, r1, r2
 8000438:	ea40 0003 	orr.w	r0, r0, r3
 800043c:	fa21 f304 	lsr.w	r3, r1, r4
 8000440:	ea45 0103 	orr.w	r1, r5, r3
 8000444:	bd30      	pop	{r4, r5, pc}
 8000446:	f1c4 040c 	rsb	r4, r4, #12
 800044a:	f1c4 0220 	rsb	r2, r4, #32
 800044e:	fa20 f002 	lsr.w	r0, r0, r2
 8000452:	fa01 f304 	lsl.w	r3, r1, r4
 8000456:	ea40 0003 	orr.w	r0, r0, r3
 800045a:	4629      	mov	r1, r5
 800045c:	bd30      	pop	{r4, r5, pc}
 800045e:	fa21 f004 	lsr.w	r0, r1, r4
 8000462:	4629      	mov	r1, r5
 8000464:	bd30      	pop	{r4, r5, pc}
 8000466:	f094 0f00 	teq	r4, #0
 800046a:	f483 1380 	eor.w	r3, r3, #1048576	; 0x100000
 800046e:	bf06      	itte	eq
 8000470:	f481 1180 	eoreq.w	r1, r1, #1048576	; 0x100000
 8000474:	3401      	addeq	r4, #1
 8000476:	3d01      	subne	r5, #1
 8000478:	e74e      	b.n	8000318 <__adddf3+0x8c>
 800047a:	ea7f 5c64 	mvns.w	ip, r4, asr #21
 800047e:	bf18      	it	ne
 8000480:	ea7f 5c65 	mvnsne.w	ip, r5, asr #21
 8000484:	d029      	beq.n	80004da <__adddf3+0x24e>
 8000486:	ea94 0f05 	teq	r4, r5
 800048a:	bf08      	it	eq
 800048c:	ea90 0f02 	teqeq	r0, r2
 8000490:	d005      	beq.n	800049e <__adddf3+0x212>
 8000492:	ea54 0c00 	orrs.w	ip, r4, r0
 8000496:	bf04      	itt	eq
 8000498:	4619      	moveq	r1, r3
 800049a:	4610      	moveq	r0, r2
 800049c:	bd30      	pop	{r4, r5, pc}
 800049e:	ea91 0f03 	teq	r1, r3
 80004a2:	bf1e      	ittt	ne
 80004a4:	2100      	movne	r1, #0
 80004a6:	2000      	movne	r0, #0
 80004a8:	bd30      	popne	{r4, r5, pc}
 80004aa:	ea5f 5c54 	movs.w	ip, r4, lsr #21
 80004ae:	d105      	bne.n	80004bc <__adddf3+0x230>
 80004b0:	0040      	lsls	r0, r0, #1
 80004b2:	4149      	adcs	r1, r1
 80004b4:	bf28      	it	cs
 80004b6:	f041 4100 	orrcs.w	r1, r1, #2147483648	; 0x80000000
 80004ba:	bd30      	pop	{r4, r5, pc}
 80004bc:	f514 0480 	adds.w	r4, r4, #4194304	; 0x400000
 80004c0:	bf3c      	itt	cc
 80004c2:	f501 1180 	addcc.w	r1, r1, #1048576	; 0x100000
 80004c6:	bd30      	popcc	{r4, r5, pc}
 80004c8:	f001 4500 	and.w	r5, r1, #2147483648	; 0x80000000
 80004cc:	f045 41fe 	orr.w	r1, r5, #2130706432	; 0x7f000000
 80004d0:	f441 0170 	orr.w	r1, r1, #15728640	; 0xf00000
 80004d4:	f04f 0000 	mov.w	r0, #0
 80004d8:	bd30      	pop	{r4, r5, pc}
 80004da:	ea7f 5c64 	mvns.w	ip, r4, asr #21
 80004de:	bf1a      	itte	ne
 80004e0:	4619      	movne	r1, r3
 80004e2:	4610      	movne	r0, r2
 80004e4:	ea7f 5c65 	mvnseq.w	ip, r5, asr #21
 80004e8:	bf1c      	itt	ne
 80004ea:	460b      	movne	r3, r1
 80004ec:	4602      	movne	r2, r0
 80004ee:	ea50 3401 	orrs.w	r4, r0, r1, lsl #12
 80004f2:	bf06      	itte	eq
 80004f4:	ea52 3503 	orrseq.w	r5, r2, r3, lsl #12
 80004f8:	ea91 0f03 	teqeq	r1, r3
 80004fc:	f441 2100 	orrne.w	r1, r1, #524288	; 0x80000
 8000500:	bd30      	pop	{r4, r5, pc}
 8000502:	bf00      	nop

08000504 <__aeabi_ui2d>:
 8000504:	f090 0f00 	teq	r0, #0
 8000508:	bf04      	itt	eq
 800050a:	2100      	moveq	r1, #0
 800050c:	4770      	bxeq	lr
 800050e:	b530      	push	{r4, r5, lr}
 8000510:	f44f 6480 	mov.w	r4, #1024	; 0x400
 8000514:	f104 0432 	add.w	r4, r4, #50	; 0x32
 8000518:	f04f 0500 	mov.w	r5, #0
 800051c:	f04f 0100 	mov.w	r1, #0
 8000520:	e750      	b.n	80003c4 <__adddf3+0x138>
 8000522:	bf00      	nop

08000524 <__aeabi_i2d>:
 8000524:	f090 0f00 	teq	r0, #0
 8000528:	bf04      	itt	eq
 800052a:	2100      	moveq	r1, #0
 800052c:	4770      	bxeq	lr
 800052e:	b530      	push	{r4, r5, lr}
 8000530:	f44f 6480 	mov.w	r4, #1024	; 0x400
 8000534:	f104 0432 	add.w	r4, r4, #50	; 0x32
 8000538:	f010 4500 	ands.w	r5, r0, #2147483648	; 0x80000000
 800053c:	bf48      	it	mi
 800053e:	4240      	negmi	r0, r0
 8000540:	f04f 0100 	mov.w	r1, #0
 8000544:	e73e      	b.n	80003c4 <__adddf3+0x138>
 8000546:	bf00      	nop

08000548 <__aeabi_f2d>:
 8000548:	0042      	lsls	r2, r0, #1
 800054a:	ea4f 01e2 	mov.w	r1, r2, asr #3
 800054e:	ea4f 0131 	mov.w	r1, r1, rrx
 8000552:	ea4f 7002 	mov.w	r0, r2, lsl #28
 8000556:	bf1f      	itttt	ne
 8000558:	f012 437f 	andsne.w	r3, r2, #4278190080	; 0xff000000
 800055c:	f093 4f7f 	teqne	r3, #4278190080	; 0xff000000
 8000560:	f081 5160 	eorne.w	r1, r1, #939524096	; 0x38000000
 8000564:	4770      	bxne	lr
 8000566:	f032 427f 	bics.w	r2, r2, #4278190080	; 0xff000000
 800056a:	bf08      	it	eq
 800056c:	4770      	bxeq	lr
 800056e:	f093 4f7f 	teq	r3, #4278190080	; 0xff000000
 8000572:	bf04      	itt	eq
 8000574:	f441 2100 	orreq.w	r1, r1, #524288	; 0x80000
 8000578:	4770      	bxeq	lr
 800057a:	b530      	push	{r4, r5, lr}
 800057c:	f44f 7460 	mov.w	r4, #896	; 0x380
 8000580:	f001 4500 	and.w	r5, r1, #2147483648	; 0x80000000
 8000584:	f021 4100 	bic.w	r1, r1, #2147483648	; 0x80000000
 8000588:	e71c      	b.n	80003c4 <__adddf3+0x138>
 800058a:	bf00      	nop

0800058c <__aeabi_ul2d>:
 800058c:	ea50 0201 	orrs.w	r2, r0, r1
 8000590:	bf08      	it	eq
 8000592:	4770      	bxeq	lr
 8000594:	b530      	push	{r4, r5, lr}
 8000596:	f04f 0500 	mov.w	r5, #0
 800059a:	e00a      	b.n	80005b2 <__aeabi_l2d+0x16>

0800059c <__aeabi_l2d>:
 800059c:	ea50 0201 	orrs.w	r2, r0, r1
 80005a0:	bf08      	it	eq
 80005a2:	4770      	bxeq	lr
 80005a4:	b530      	push	{r4, r5, lr}
 80005a6:	f011 4500 	ands.w	r5, r1, #2147483648	; 0x80000000
 80005aa:	d502      	bpl.n	80005b2 <__aeabi_l2d+0x16>
 80005ac:	4240      	negs	r0, r0
 80005ae:	eb61 0141 	sbc.w	r1, r1, r1, lsl #1
 80005b2:	f44f 6480 	mov.w	r4, #1024	; 0x400
 80005b6:	f104 0432 	add.w	r4, r4, #50	; 0x32
 80005ba:	ea5f 5c91 	movs.w	ip, r1, lsr #22
 80005be:	f43f aed8 	beq.w	8000372 <__adddf3+0xe6>
 80005c2:	f04f 0203 	mov.w	r2, #3
 80005c6:	ea5f 0cdc 	movs.w	ip, ip, lsr #3
 80005ca:	bf18      	it	ne
 80005cc:	3203      	addne	r2, #3
 80005ce:	ea5f 0cdc 	movs.w	ip, ip, lsr #3
 80005d2:	bf18      	it	ne
 80005d4:	3203      	addne	r2, #3
 80005d6:	eb02 02dc 	add.w	r2, r2, ip, lsr #3
 80005da:	f1c2 0320 	rsb	r3, r2, #32
 80005de:	fa00 fc03 	lsl.w	ip, r0, r3
 80005e2:	fa20 f002 	lsr.w	r0, r0, r2
 80005e6:	fa01 fe03 	lsl.w	lr, r1, r3
 80005ea:	ea40 000e 	orr.w	r0, r0, lr
 80005ee:	fa21 f102 	lsr.w	r1, r1, r2
 80005f2:	4414      	add	r4, r2
 80005f4:	e6bd      	b.n	8000372 <__adddf3+0xe6>
 80005f6:	bf00      	nop

080005f8 <__aeabi_dmul>:
 80005f8:	b570      	push	{r4, r5, r6, lr}
 80005fa:	f04f 0cff 	mov.w	ip, #255	; 0xff
 80005fe:	f44c 6ce0 	orr.w	ip, ip, #1792	; 0x700
 8000602:	ea1c 5411 	ands.w	r4, ip, r1, lsr #20
 8000606:	bf1d      	ittte	ne
 8000608:	ea1c 5513 	andsne.w	r5, ip, r3, lsr #20
 800060c:	ea94 0f0c 	teqne	r4, ip
 8000610:	ea95 0f0c 	teqne	r5, ip
 8000614:	f000 f8de 	bleq	80007d4 <__aeabi_dmul+0x1dc>
 8000618:	442c      	add	r4, r5
 800061a:	ea81 0603 	eor.w	r6, r1, r3
 800061e:	ea21 514c 	bic.w	r1, r1, ip, lsl #21
 8000622:	ea23 534c 	bic.w	r3, r3, ip, lsl #21
 8000626:	ea50 3501 	orrs.w	r5, r0, r1, lsl #12
 800062a:	bf18      	it	ne
 800062c:	ea52 3503 	orrsne.w	r5, r2, r3, lsl #12
 8000630:	f441 1180 	orr.w	r1, r1, #1048576	; 0x100000
 8000634:	f443 1380 	orr.w	r3, r3, #1048576	; 0x100000
 8000638:	d038      	beq.n	80006ac <__aeabi_dmul+0xb4>
 800063a:	fba0 ce02 	umull	ip, lr, r0, r2
 800063e:	f04f 0500 	mov.w	r5, #0
 8000642:	fbe1 e502 	umlal	lr, r5, r1, r2
 8000646:	f006 4200 	and.w	r2, r6, #2147483648	; 0x80000000
 800064a:	fbe0 e503 	umlal	lr, r5, r0, r3
 800064e:	f04f 0600 	mov.w	r6, #0
 8000652:	fbe1 5603 	umlal	r5, r6, r1, r3
 8000656:	f09c 0f00 	teq	ip, #0
 800065a:	bf18      	it	ne
 800065c:	f04e 0e01 	orrne.w	lr, lr, #1
 8000660:	f1a4 04ff 	sub.w	r4, r4, #255	; 0xff
 8000664:	f5b6 7f00 	cmp.w	r6, #512	; 0x200
 8000668:	f564 7440 	sbc.w	r4, r4, #768	; 0x300
 800066c:	d204      	bcs.n	8000678 <__aeabi_dmul+0x80>
 800066e:	ea5f 0e4e 	movs.w	lr, lr, lsl #1
 8000672:	416d      	adcs	r5, r5
 8000674:	eb46 0606 	adc.w	r6, r6, r6
 8000678:	ea42 21c6 	orr.w	r1, r2, r6, lsl #11
 800067c:	ea41 5155 	orr.w	r1, r1, r5, lsr #21
 8000680:	ea4f 20c5 	mov.w	r0, r5, lsl #11
 8000684:	ea40 505e 	orr.w	r0, r0, lr, lsr #21
 8000688:	ea4f 2ece 	mov.w	lr, lr, lsl #11
 800068c:	f1b4 0cfd 	subs.w	ip, r4, #253	; 0xfd
 8000690:	bf88      	it	hi
 8000692:	f5bc 6fe0 	cmphi.w	ip, #1792	; 0x700
 8000696:	d81e      	bhi.n	80006d6 <__aeabi_dmul+0xde>
 8000698:	f1be 4f00 	cmp.w	lr, #2147483648	; 0x80000000
 800069c:	bf08      	it	eq
 800069e:	ea5f 0e50 	movseq.w	lr, r0, lsr #1
 80006a2:	f150 0000 	adcs.w	r0, r0, #0
 80006a6:	eb41 5104 	adc.w	r1, r1, r4, lsl #20
 80006aa:	bd70      	pop	{r4, r5, r6, pc}
 80006ac:	f006 4600 	and.w	r6, r6, #2147483648	; 0x80000000
 80006b0:	ea46 0101 	orr.w	r1, r6, r1
 80006b4:	ea40 0002 	orr.w	r0, r0, r2
 80006b8:	ea81 0103 	eor.w	r1, r1, r3
 80006bc:	ebb4 045c 	subs.w	r4, r4, ip, lsr #1
 80006c0:	bfc2      	ittt	gt
 80006c2:	ebd4 050c 	rsbsgt	r5, r4, ip
 80006c6:	ea41 5104 	orrgt.w	r1, r1, r4, lsl #20
 80006ca:	bd70      	popgt	{r4, r5, r6, pc}
 80006cc:	f441 1180 	orr.w	r1, r1, #1048576	; 0x100000
 80006d0:	f04f 0e00 	mov.w	lr, #0
 80006d4:	3c01      	subs	r4, #1
 80006d6:	f300 80ab 	bgt.w	8000830 <__aeabi_dmul+0x238>
 80006da:	f114 0f36 	cmn.w	r4, #54	; 0x36
 80006de:	bfde      	ittt	le
 80006e0:	2000      	movle	r0, #0
 80006e2:	f001 4100 	andle.w	r1, r1, #2147483648	; 0x80000000
 80006e6:	bd70      	pople	{r4, r5, r6, pc}
 80006e8:	f1c4 0400 	rsb	r4, r4, #0
 80006ec:	3c20      	subs	r4, #32
 80006ee:	da35      	bge.n	800075c <__aeabi_dmul+0x164>
 80006f0:	340c      	adds	r4, #12
 80006f2:	dc1b      	bgt.n	800072c <__aeabi_dmul+0x134>
 80006f4:	f104 0414 	add.w	r4, r4, #20
 80006f8:	f1c4 0520 	rsb	r5, r4, #32
 80006fc:	fa00 f305 	lsl.w	r3, r0, r5
 8000700:	fa20 f004 	lsr.w	r0, r0, r4
 8000704:	fa01 f205 	lsl.w	r2, r1, r5
 8000708:	ea40 0002 	orr.w	r0, r0, r2
 800070c:	f001 4200 	and.w	r2, r1, #2147483648	; 0x80000000
 8000710:	f021 4100 	bic.w	r1, r1, #2147483648	; 0x80000000
 8000714:	eb10 70d3 	adds.w	r0, r0, r3, lsr #31
 8000718:	fa21 f604 	lsr.w	r6, r1, r4
 800071c:	eb42 0106 	adc.w	r1, r2, r6
 8000720:	ea5e 0e43 	orrs.w	lr, lr, r3, lsl #1
 8000724:	bf08      	it	eq
 8000726:	ea20 70d3 	biceq.w	r0, r0, r3, lsr #31
 800072a:	bd70      	pop	{r4, r5, r6, pc}
 800072c:	f1c4 040c 	rsb	r4, r4, #12
 8000730:	f1c4 0520 	rsb	r5, r4, #32
 8000734:	fa00 f304 	lsl.w	r3, r0, r4
 8000738:	fa20 f005 	lsr.w	r0, r0, r5
 800073c:	fa01 f204 	lsl.w	r2, r1, r4
 8000740:	ea40 0002 	orr.w	r0, r0, r2
 8000744:	f001 4100 	and.w	r1, r1, #2147483648	; 0x80000000
 8000748:	eb10 70d3 	adds.w	r0, r0, r3, lsr #31
 800074c:	f141 0100 	adc.w	r1, r1, #0
 8000750:	ea5e 0e43 	orrs.w	lr, lr, r3, lsl #1
 8000754:	bf08      	it	eq
 8000756:	ea20 70d3 	biceq.w	r0, r0, r3, lsr #31
 800075a:	bd70      	pop	{r4, r5, r6, pc}
 800075c:	f1c4 0520 	rsb	r5, r4, #32
 8000760:	fa00 f205 	lsl.w	r2, r0, r5
 8000764:	ea4e 0e02 	orr.w	lr, lr, r2
 8000768:	fa20 f304 	lsr.w	r3, r0, r4
 800076c:	fa01 f205 	lsl.w	r2, r1, r5
 8000770:	ea43 0302 	orr.w	r3, r3, r2
 8000774:	fa21 f004 	lsr.w	r0, r1, r4
 8000778:	f001 4100 	and.w	r1, r1, #2147483648	; 0x80000000
 800077c:	fa21 f204 	lsr.w	r2, r1, r4
 8000780:	ea20 0002 	bic.w	r0, r0, r2
 8000784:	eb00 70d3 	add.w	r0, r0, r3, lsr #31
 8000788:	ea5e 0e43 	orrs.w	lr, lr, r3, lsl #1
 800078c:	bf08      	it	eq
 800078e:	ea20 70d3 	biceq.w	r0, r0, r3, lsr #31
 8000792:	bd70      	pop	{r4, r5, r6, pc}
 8000794:	f094 0f00 	teq	r4, #0
 8000798:	d10f      	bne.n	80007ba <__aeabi_dmul+0x1c2>
 800079a:	f001 4600 	and.w	r6, r1, #2147483648	; 0x80000000
 800079e:	0040      	lsls	r0, r0, #1
 80007a0:	eb41 0101 	adc.w	r1, r1, r1
 80007a4:	f411 1f80 	tst.w	r1, #1048576	; 0x100000
 80007a8:	bf08      	it	eq
 80007aa:	3c01      	subeq	r4, #1
 80007ac:	d0f7      	beq.n	800079e <__aeabi_dmul+0x1a6>
 80007ae:	ea41 0106 	orr.w	r1, r1, r6
 80007b2:	f095 0f00 	teq	r5, #0
 80007b6:	bf18      	it	ne
 80007b8:	4770      	bxne	lr
 80007ba:	f003 4600 	and.w	r6, r3, #2147483648	; 0x80000000
 80007be:	0052      	lsls	r2, r2, #1
 80007c0:	eb43 0303 	adc.w	r3, r3, r3
 80007c4:	f413 1f80 	tst.w	r3, #1048576	; 0x100000
 80007c8:	bf08      	it	eq
 80007ca:	3d01      	subeq	r5, #1
 80007cc:	d0f7      	beq.n	80007be <__aeabi_dmul+0x1c6>
 80007ce:	ea43 0306 	orr.w	r3, r3, r6
 80007d2:	4770      	bx	lr
 80007d4:	ea94 0f0c 	teq	r4, ip
 80007d8:	ea0c 5513 	and.w	r5, ip, r3, lsr #20
 80007dc:	bf18      	it	ne
 80007de:	ea95 0f0c 	teqne	r5, ip
 80007e2:	d00c      	beq.n	80007fe <__aeabi_dmul+0x206>
 80007e4:	ea50 0641 	orrs.w	r6, r0, r1, lsl #1
 80007e8:	bf18      	it	ne
 80007ea:	ea52 0643 	orrsne.w	r6, r2, r3, lsl #1
 80007ee:	d1d1      	bne.n	8000794 <__aeabi_dmul+0x19c>
 80007f0:	ea81 0103 	eor.w	r1, r1, r3
 80007f4:	f001 4100 	and.w	r1, r1, #2147483648	; 0x80000000
 80007f8:	f04f 0000 	mov.w	r0, #0
 80007fc:	bd70      	pop	{r4, r5, r6, pc}
 80007fe:	ea50 0641 	orrs.w	r6, r0, r1, lsl #1
 8000802:	bf06      	itte	eq
 8000804:	4610      	moveq	r0, r2
 8000806:	4619      	moveq	r1, r3
 8000808:	ea52 0643 	orrsne.w	r6, r2, r3, lsl #1
 800080c:	d019      	beq.n	8000842 <__aeabi_dmul+0x24a>
 800080e:	ea94 0f0c 	teq	r4, ip
 8000812:	d102      	bne.n	800081a <__aeabi_dmul+0x222>
 8000814:	ea50 3601 	orrs.w	r6, r0, r1, lsl #12
 8000818:	d113      	bne.n	8000842 <__aeabi_dmul+0x24a>
 800081a:	ea95 0f0c 	teq	r5, ip
 800081e:	d105      	bne.n	800082c <__aeabi_dmul+0x234>
 8000820:	ea52 3603 	orrs.w	r6, r2, r3, lsl #12
 8000824:	bf1c      	itt	ne
 8000826:	4610      	movne	r0, r2
 8000828:	4619      	movne	r1, r3
 800082a:	d10a      	bne.n	8000842 <__aeabi_dmul+0x24a>
 800082c:	ea81 0103 	eor.w	r1, r1, r3
 8000830:	f001 4100 	and.w	r1, r1, #2147483648	; 0x80000000
 8000834:	f041 41fe 	orr.w	r1, r1, #2130706432	; 0x7f000000
 8000838:	f441 0170 	orr.w	r1, r1, #15728640	; 0xf00000
 800083c:	f04f 0000 	mov.w	r0, #0
 8000840:	bd70      	pop	{r4, r5, r6, pc}
 8000842:	f041 41fe 	orr.w	r1, r1, #2130706432	; 0x7f000000
 8000846:	f441 0178 	orr.w	r1, r1, #16252928	; 0xf80000
 800084a:	bd70      	pop	{r4, r5, r6, pc}

0800084c <__aeabi_ddiv>:
 800084c:	b570      	push	{r4, r5, r6, lr}
 800084e:	f04f 0cff 	mov.w	ip, #255	; 0xff
 8000852:	f44c 6ce0 	orr.w	ip, ip, #1792	; 0x700
 8000856:	ea1c 5411 	ands.w	r4, ip, r1, lsr #20
 800085a:	bf1d      	ittte	ne
 800085c:	ea1c 5513 	andsne.w	r5, ip, r3, lsr #20
 8000860:	ea94 0f0c 	teqne	r4, ip
 8000864:	ea95 0f0c 	teqne	r5, ip
 8000868:	f000 f8a7 	bleq	80009ba <__aeabi_ddiv+0x16e>
 800086c:	eba4 0405 	sub.w	r4, r4, r5
 8000870:	ea81 0e03 	eor.w	lr, r1, r3
 8000874:	ea52 3503 	orrs.w	r5, r2, r3, lsl #12
 8000878:	ea4f 3101 	mov.w	r1, r1, lsl #12
 800087c:	f000 8088 	beq.w	8000990 <__aeabi_ddiv+0x144>
 8000880:	ea4f 3303 	mov.w	r3, r3, lsl #12
 8000884:	f04f 5580 	mov.w	r5, #268435456	; 0x10000000
 8000888:	ea45 1313 	orr.w	r3, r5, r3, lsr #4
 800088c:	ea43 6312 	orr.w	r3, r3, r2, lsr #24
 8000890:	ea4f 2202 	mov.w	r2, r2, lsl #8
 8000894:	ea45 1511 	orr.w	r5, r5, r1, lsr #4
 8000898:	ea45 6510 	orr.w	r5, r5, r0, lsr #24
 800089c:	ea4f 2600 	mov.w	r6, r0, lsl #8
 80008a0:	f00e 4100 	and.w	r1, lr, #2147483648	; 0x80000000
 80008a4:	429d      	cmp	r5, r3
 80008a6:	bf08      	it	eq
 80008a8:	4296      	cmpeq	r6, r2
 80008aa:	f144 04fd 	adc.w	r4, r4, #253	; 0xfd
 80008ae:	f504 7440 	add.w	r4, r4, #768	; 0x300
 80008b2:	d202      	bcs.n	80008ba <__aeabi_ddiv+0x6e>
 80008b4:	085b      	lsrs	r3, r3, #1
 80008b6:	ea4f 0232 	mov.w	r2, r2, rrx
 80008ba:	1ab6      	subs	r6, r6, r2
 80008bc:	eb65 0503 	sbc.w	r5, r5, r3
 80008c0:	085b      	lsrs	r3, r3, #1
 80008c2:	ea4f 0232 	mov.w	r2, r2, rrx
 80008c6:	f44f 1080 	mov.w	r0, #1048576	; 0x100000
 80008ca:	f44f 2c00 	mov.w	ip, #524288	; 0x80000
 80008ce:	ebb6 0e02 	subs.w	lr, r6, r2
 80008d2:	eb75 0e03 	sbcs.w	lr, r5, r3
 80008d6:	bf22      	ittt	cs
 80008d8:	1ab6      	subcs	r6, r6, r2
 80008da:	4675      	movcs	r5, lr
 80008dc:	ea40 000c 	orrcs.w	r0, r0, ip
 80008e0:	085b      	lsrs	r3, r3, #1
 80008e2:	ea4f 0232 	mov.w	r2, r2, rrx
 80008e6:	ebb6 0e02 	subs.w	lr, r6, r2
 80008ea:	eb75 0e03 	sbcs.w	lr, r5, r3
 80008ee:	bf22      	ittt	cs
 80008f0:	1ab6      	subcs	r6, r6, r2
 80008f2:	4675      	movcs	r5, lr
 80008f4:	ea40 005c 	orrcs.w	r0, r0, ip, lsr #1
 80008f8:	085b      	lsrs	r3, r3, #1
 80008fa:	ea4f 0232 	mov.w	r2, r2, rrx
 80008fe:	ebb6 0e02 	subs.w	lr, r6, r2
 8000902:	eb75 0e03 	sbcs.w	lr, r5, r3
 8000906:	bf22      	ittt	cs
 8000908:	1ab6      	subcs	r6, r6, r2
 800090a:	4675      	movcs	r5, lr
 800090c:	ea40 009c 	orrcs.w	r0, r0, ip, lsr #2
 8000910:	085b      	lsrs	r3, r3, #1
 8000912:	ea4f 0232 	mov.w	r2, r2, rrx
 8000916:	ebb6 0e02 	subs.w	lr, r6, r2
 800091a:	eb75 0e03 	sbcs.w	lr, r5, r3
 800091e:	bf22      	ittt	cs
 8000920:	1ab6      	subcs	r6, r6, r2
 8000922:	4675      	movcs	r5, lr
 8000924:	ea40 00dc 	orrcs.w	r0, r0, ip, lsr #3
 8000928:	ea55 0e06 	orrs.w	lr, r5, r6
 800092c:	d018      	beq.n	8000960 <__aeabi_ddiv+0x114>
 800092e:	ea4f 1505 	mov.w	r5, r5, lsl #4
 8000932:	ea45 7516 	orr.w	r5, r5, r6, lsr #28
 8000936:	ea4f 1606 	mov.w	r6, r6, lsl #4
 800093a:	ea4f 03c3 	mov.w	r3, r3, lsl #3
 800093e:	ea43 7352 	orr.w	r3, r3, r2, lsr #29
 8000942:	ea4f 02c2 	mov.w	r2, r2, lsl #3
 8000946:	ea5f 1c1c 	movs.w	ip, ip, lsr #4
 800094a:	d1c0      	bne.n	80008ce <__aeabi_ddiv+0x82>
 800094c:	f411 1f80 	tst.w	r1, #1048576	; 0x100000
 8000950:	d10b      	bne.n	800096a <__aeabi_ddiv+0x11e>
 8000952:	ea41 0100 	orr.w	r1, r1, r0
 8000956:	f04f 0000 	mov.w	r0, #0
 800095a:	f04f 4c00 	mov.w	ip, #2147483648	; 0x80000000
 800095e:	e7b6      	b.n	80008ce <__aeabi_ddiv+0x82>
 8000960:	f411 1f80 	tst.w	r1, #1048576	; 0x100000
 8000964:	bf04      	itt	eq
 8000966:	4301      	orreq	r1, r0
 8000968:	2000      	moveq	r0, #0
 800096a:	f1b4 0cfd 	subs.w	ip, r4, #253	; 0xfd
 800096e:	bf88      	it	hi
 8000970:	f5bc 6fe0 	cmphi.w	ip, #1792	; 0x700
 8000974:	f63f aeaf 	bhi.w	80006d6 <__aeabi_dmul+0xde>
 8000978:	ebb5 0c03 	subs.w	ip, r5, r3
 800097c:	bf04      	itt	eq
 800097e:	ebb6 0c02 	subseq.w	ip, r6, r2
 8000982:	ea5f 0c50 	movseq.w	ip, r0, lsr #1
 8000986:	f150 0000 	adcs.w	r0, r0, #0
 800098a:	eb41 5104 	adc.w	r1, r1, r4, lsl #20
 800098e:	bd70      	pop	{r4, r5, r6, pc}
 8000990:	f00e 4e00 	and.w	lr, lr, #2147483648	; 0x80000000
 8000994:	ea4e 3111 	orr.w	r1, lr, r1, lsr #12
 8000998:	eb14 045c 	adds.w	r4, r4, ip, lsr #1
 800099c:	bfc2      	ittt	gt
 800099e:	ebd4 050c 	rsbsgt	r5, r4, ip
 80009a2:	ea41 5104 	orrgt.w	r1, r1, r4, lsl #20
 80009a6:	bd70      	popgt	{r4, r5, r6, pc}
 80009a8:	f441 1180 	orr.w	r1, r1, #1048576	; 0x100000
 80009ac:	f04f 0e00 	mov.w	lr, #0
 80009b0:	3c01      	subs	r4, #1
 80009b2:	e690      	b.n	80006d6 <__aeabi_dmul+0xde>
 80009b4:	ea45 0e06 	orr.w	lr, r5, r6
 80009b8:	e68d      	b.n	80006d6 <__aeabi_dmul+0xde>
 80009ba:	ea0c 5513 	and.w	r5, ip, r3, lsr #20
 80009be:	ea94 0f0c 	teq	r4, ip
 80009c2:	bf08      	it	eq
 80009c4:	ea95 0f0c 	teqeq	r5, ip
 80009c8:	f43f af3b 	beq.w	8000842 <__aeabi_dmul+0x24a>
 80009cc:	ea94 0f0c 	teq	r4, ip
 80009d0:	d10a      	bne.n	80009e8 <__aeabi_ddiv+0x19c>
 80009d2:	ea50 3401 	orrs.w	r4, r0, r1, lsl #12
 80009d6:	f47f af34 	bne.w	8000842 <__aeabi_dmul+0x24a>
 80009da:	ea95 0f0c 	teq	r5, ip
 80009de:	f47f af25 	bne.w	800082c <__aeabi_dmul+0x234>
 80009e2:	4610      	mov	r0, r2
 80009e4:	4619      	mov	r1, r3
 80009e6:	e72c      	b.n	8000842 <__aeabi_dmul+0x24a>
 80009e8:	ea95 0f0c 	teq	r5, ip
 80009ec:	d106      	bne.n	80009fc <__aeabi_ddiv+0x1b0>
 80009ee:	ea52 3503 	orrs.w	r5, r2, r3, lsl #12
 80009f2:	f43f aefd 	beq.w	80007f0 <__aeabi_dmul+0x1f8>
 80009f6:	4610      	mov	r0, r2
 80009f8:	4619      	mov	r1, r3
 80009fa:	e722      	b.n	8000842 <__aeabi_dmul+0x24a>
 80009fc:	ea50 0641 	orrs.w	r6, r0, r1, lsl #1
 8000a00:	bf18      	it	ne
 8000a02:	ea52 0643 	orrsne.w	r6, r2, r3, lsl #1
 8000a06:	f47f aec5 	bne.w	8000794 <__aeabi_dmul+0x19c>
 8000a0a:	ea50 0441 	orrs.w	r4, r0, r1, lsl #1
 8000a0e:	f47f af0d 	bne.w	800082c <__aeabi_dmul+0x234>
 8000a12:	ea52 0543 	orrs.w	r5, r2, r3, lsl #1
 8000a16:	f47f aeeb 	bne.w	80007f0 <__aeabi_dmul+0x1f8>
 8000a1a:	e712      	b.n	8000842 <__aeabi_dmul+0x24a>

08000a1c <__gedf2>:
 8000a1c:	f04f 3cff 	mov.w	ip, #4294967295
 8000a20:	e006      	b.n	8000a30 <__cmpdf2+0x4>
 8000a22:	bf00      	nop

08000a24 <__ledf2>:
 8000a24:	f04f 0c01 	mov.w	ip, #1
 8000a28:	e002      	b.n	8000a30 <__cmpdf2+0x4>
 8000a2a:	bf00      	nop

08000a2c <__cmpdf2>:
 8000a2c:	f04f 0c01 	mov.w	ip, #1
 8000a30:	f84d cd04 	str.w	ip, [sp, #-4]!
 8000a34:	ea4f 0c41 	mov.w	ip, r1, lsl #1
 8000a38:	ea7f 5c6c 	mvns.w	ip, ip, asr #21
 8000a3c:	ea4f 0c43 	mov.w	ip, r3, lsl #1
 8000a40:	bf18      	it	ne
 8000a42:	ea7f 5c6c 	mvnsne.w	ip, ip, asr #21
 8000a46:	d01b      	beq.n	8000a80 <__cmpdf2+0x54>
 8000a48:	b001      	add	sp, #4
 8000a4a:	ea50 0c41 	orrs.w	ip, r0, r1, lsl #1
 8000a4e:	bf0c      	ite	eq
 8000a50:	ea52 0c43 	orrseq.w	ip, r2, r3, lsl #1
 8000a54:	ea91 0f03 	teqne	r1, r3
 8000a58:	bf02      	ittt	eq
 8000a5a:	ea90 0f02 	teqeq	r0, r2
 8000a5e:	2000      	moveq	r0, #0
 8000a60:	4770      	bxeq	lr
 8000a62:	f110 0f00 	cmn.w	r0, #0
 8000a66:	ea91 0f03 	teq	r1, r3
 8000a6a:	bf58      	it	pl
 8000a6c:	4299      	cmppl	r1, r3
 8000a6e:	bf08      	it	eq
 8000a70:	4290      	cmpeq	r0, r2
 8000a72:	bf2c      	ite	cs
 8000a74:	17d8      	asrcs	r0, r3, #31
 8000a76:	ea6f 70e3 	mvncc.w	r0, r3, asr #31
 8000a7a:	f040 0001 	orr.w	r0, r0, #1
 8000a7e:	4770      	bx	lr
 8000a80:	ea4f 0c41 	mov.w	ip, r1, lsl #1
 8000a84:	ea7f 5c6c 	mvns.w	ip, ip, asr #21
 8000a88:	d102      	bne.n	8000a90 <__cmpdf2+0x64>
 8000a8a:	ea50 3c01 	orrs.w	ip, r0, r1, lsl #12
 8000a8e:	d107      	bne.n	8000aa0 <__cmpdf2+0x74>
 8000a90:	ea4f 0c43 	mov.w	ip, r3, lsl #1
 8000a94:	ea7f 5c6c 	mvns.w	ip, ip, asr #21
 8000a98:	d1d6      	bne.n	8000a48 <__cmpdf2+0x1c>
 8000a9a:	ea52 3c03 	orrs.w	ip, r2, r3, lsl #12
 8000a9e:	d0d3      	beq.n	8000a48 <__cmpdf2+0x1c>
 8000aa0:	f85d 0b04 	ldr.w	r0, [sp], #4
 8000aa4:	4770      	bx	lr
 8000aa6:	bf00      	nop

08000aa8 <__aeabi_cdrcmple>:
 8000aa8:	4684      	mov	ip, r0
 8000aaa:	4610      	mov	r0, r2
 8000aac:	4662      	mov	r2, ip
 8000aae:	468c      	mov	ip, r1
 8000ab0:	4619      	mov	r1, r3
 8000ab2:	4663      	mov	r3, ip
 8000ab4:	e000      	b.n	8000ab8 <__aeabi_cdcmpeq>
 8000ab6:	bf00      	nop

08000ab8 <__aeabi_cdcmpeq>:
 8000ab8:	b501      	push	{r0, lr}
 8000aba:	f7ff ffb7 	bl	8000a2c <__cmpdf2>
 8000abe:	2800      	cmp	r0, #0
 8000ac0:	bf48      	it	mi
 8000ac2:	f110 0f00 	cmnmi.w	r0, #0
 8000ac6:	bd01      	pop	{r0, pc}

08000ac8 <__aeabi_dcmpeq>:
 8000ac8:	f84d ed08 	str.w	lr, [sp, #-8]!
 8000acc:	f7ff fff4 	bl	8000ab8 <__aeabi_cdcmpeq>
 8000ad0:	bf0c      	ite	eq
 8000ad2:	2001      	moveq	r0, #1
 8000ad4:	2000      	movne	r0, #0
 8000ad6:	f85d fb08 	ldr.w	pc, [sp], #8
 8000ada:	bf00      	nop

08000adc <__aeabi_dcmplt>:
 8000adc:	f84d ed08 	str.w	lr, [sp, #-8]!
 8000ae0:	f7ff ffea 	bl	8000ab8 <__aeabi_cdcmpeq>
 8000ae4:	bf34      	ite	cc
 8000ae6:	2001      	movcc	r0, #1
 8000ae8:	2000      	movcs	r0, #0
 8000aea:	f85d fb08 	ldr.w	pc, [sp], #8
 8000aee:	bf00      	nop

08000af0 <__aeabi_dcmple>:
 8000af0:	f84d ed08 	str.w	lr, [sp, #-8]!
 8000af4:	f7ff ffe0 	bl	8000ab8 <__aeabi_cdcmpeq>
 8000af8:	bf94      	ite	ls
 8000afa:	2001      	movls	r0, #1
 8000afc:	2000      	movhi	r0, #0
 8000afe:	f85d fb08 	ldr.w	pc, [sp], #8
 8000b02:	bf00      	nop

08000b04 <__aeabi_dcmpge>:
 8000b04:	f84d ed08 	str.w	lr, [sp, #-8]!
 8000b08:	f7ff ffce 	bl	8000aa8 <__aeabi_cdrcmple>
 8000b0c:	bf94      	ite	ls
 8000b0e:	2001      	movls	r0, #1
 8000b10:	2000      	movhi	r0, #0
 8000b12:	f85d fb08 	ldr.w	pc, [sp], #8
 8000b16:	bf00      	nop

08000b18 <__aeabi_dcmpgt>:
 8000b18:	f84d ed08 	str.w	lr, [sp, #-8]!
 8000b1c:	f7ff ffc4 	bl	8000aa8 <__aeabi_cdrcmple>
 8000b20:	bf34      	ite	cc
 8000b22:	2001      	movcc	r0, #1
 8000b24:	2000      	movcs	r0, #0
 8000b26:	f85d fb08 	ldr.w	pc, [sp], #8
 8000b2a:	bf00      	nop

08000b2c <__aeabi_dcmpun>:
 8000b2c:	ea4f 0c41 	mov.w	ip, r1, lsl #1
 8000b30:	ea7f 5c6c 	mvns.w	ip, ip, asr #21
 8000b34:	d102      	bne.n	8000b3c <__aeabi_dcmpun+0x10>
 8000b36:	ea50 3c01 	orrs.w	ip, r0, r1, lsl #12
 8000b3a:	d10a      	bne.n	8000b52 <__aeabi_dcmpun+0x26>
 8000b3c:	ea4f 0c43 	mov.w	ip, r3, lsl #1
 8000b40:	ea7f 5c6c 	mvns.w	ip, ip, asr #21
 8000b44:	d102      	bne.n	8000b4c <__aeabi_dcmpun+0x20>
 8000b46:	ea52 3c03 	orrs.w	ip, r2, r3, lsl #12
 8000b4a:	d102      	bne.n	8000b52 <__aeabi_dcmpun+0x26>
 8000b4c:	f04f 0000 	mov.w	r0, #0
 8000b50:	4770      	bx	lr
 8000b52:	f04f 0001 	mov.w	r0, #1
 8000b56:	4770      	bx	lr

08000b58 <__aeabi_d2iz>:
 8000b58:	ea4f 0241 	mov.w	r2, r1, lsl #1
 8000b5c:	f512 1200 	adds.w	r2, r2, #2097152	; 0x200000
 8000b60:	d215      	bcs.n	8000b8e <__aeabi_d2iz+0x36>
 8000b62:	d511      	bpl.n	8000b88 <__aeabi_d2iz+0x30>
 8000b64:	f46f 7378 	mvn.w	r3, #992	; 0x3e0
 8000b68:	ebb3 5262 	subs.w	r2, r3, r2, asr #21
 8000b6c:	d912      	bls.n	8000b94 <__aeabi_d2iz+0x3c>
 8000b6e:	ea4f 23c1 	mov.w	r3, r1, lsl #11
 8000b72:	f043 4300 	orr.w	r3, r3, #2147483648	; 0x80000000
 8000b76:	ea43 5350 	orr.w	r3, r3, r0, lsr #21
 8000b7a:	f011 4f00 	tst.w	r1, #2147483648	; 0x80000000
 8000b7e:	fa23 f002 	lsr.w	r0, r3, r2
 8000b82:	bf18      	it	ne
 8000b84:	4240      	negne	r0, r0
 8000b86:	4770      	bx	lr
 8000b88:	f04f 0000 	mov.w	r0, #0
 8000b8c:	4770      	bx	lr
 8000b8e:	ea50 3001 	orrs.w	r0, r0, r1, lsl #12
 8000b92:	d105      	bne.n	8000ba0 <__aeabi_d2iz+0x48>
 8000b94:	f011 4000 	ands.w	r0, r1, #2147483648	; 0x80000000
 8000b98:	bf08      	it	eq
 8000b9a:	f06f 4000 	mvneq.w	r0, #2147483648	; 0x80000000
 8000b9e:	4770      	bx	lr
 8000ba0:	f04f 0000 	mov.w	r0, #0
 8000ba4:	4770      	bx	lr
 8000ba6:	bf00      	nop

08000ba8 <__aeabi_d2uiz>:
 8000ba8:	004a      	lsls	r2, r1, #1
 8000baa:	d211      	bcs.n	8000bd0 <__aeabi_d2uiz+0x28>
 8000bac:	f512 1200 	adds.w	r2, r2, #2097152	; 0x200000
 8000bb0:	d211      	bcs.n	8000bd6 <__aeabi_d2uiz+0x2e>
 8000bb2:	d50d      	bpl.n	8000bd0 <__aeabi_d2uiz+0x28>
 8000bb4:	f46f 7378 	mvn.w	r3, #992	; 0x3e0
 8000bb8:	ebb3 5262 	subs.w	r2, r3, r2, asr #21
 8000bbc:	d40e      	bmi.n	8000bdc <__aeabi_d2uiz+0x34>
 8000bbe:	ea4f 23c1 	mov.w	r3, r1, lsl #11
 8000bc2:	f043 4300 	orr.w	r3, r3, #2147483648	; 0x80000000
 8000bc6:	ea43 5350 	orr.w	r3, r3, r0, lsr #21
 8000bca:	fa23 f002 	lsr.w	r0, r3, r2
 8000bce:	4770      	bx	lr
 8000bd0:	f04f 0000 	mov.w	r0, #0
 8000bd4:	4770      	bx	lr
 8000bd6:	ea50 3001 	orrs.w	r0, r0, r1, lsl #12
 8000bda:	d102      	bne.n	8000be2 <__aeabi_d2uiz+0x3a>
 8000bdc:	f04f 30ff 	mov.w	r0, #4294967295
 8000be0:	4770      	bx	lr
 8000be2:	f04f 0000 	mov.w	r0, #0
 8000be6:	4770      	bx	lr

08000be8 <__aeabi_d2f>:
 8000be8:	ea4f 0241 	mov.w	r2, r1, lsl #1
 8000bec:	f1b2 43e0 	subs.w	r3, r2, #1879048192	; 0x70000000
 8000bf0:	bf24      	itt	cs
 8000bf2:	f5b3 1c00 	subscs.w	ip, r3, #2097152	; 0x200000
 8000bf6:	f1dc 5cfe 	rsbscs	ip, ip, #532676608	; 0x1fc00000
 8000bfa:	d90d      	bls.n	8000c18 <__aeabi_d2f+0x30>
 8000bfc:	f001 4c00 	and.w	ip, r1, #2147483648	; 0x80000000
 8000c00:	ea4f 02c0 	mov.w	r2, r0, lsl #3
 8000c04:	ea4c 7050 	orr.w	r0, ip, r0, lsr #29
 8000c08:	f1b2 4f00 	cmp.w	r2, #2147483648	; 0x80000000
 8000c0c:	eb40 0083 	adc.w	r0, r0, r3, lsl #2
 8000c10:	bf08      	it	eq
 8000c12:	f020 0001 	biceq.w	r0, r0, #1
 8000c16:	4770      	bx	lr
 8000c18:	f011 4f80 	tst.w	r1, #1073741824	; 0x40000000
 8000c1c:	d121      	bne.n	8000c62 <__aeabi_d2f+0x7a>
 8000c1e:	f113 7238 	adds.w	r2, r3, #48234496	; 0x2e00000
 8000c22:	bfbc      	itt	lt
 8000c24:	f001 4000 	andlt.w	r0, r1, #2147483648	; 0x80000000
 8000c28:	4770      	bxlt	lr
 8000c2a:	f441 1180 	orr.w	r1, r1, #1048576	; 0x100000
 8000c2e:	ea4f 5252 	mov.w	r2, r2, lsr #21
 8000c32:	f1c2 0218 	rsb	r2, r2, #24
 8000c36:	f1c2 0c20 	rsb	ip, r2, #32
 8000c3a:	fa10 f30c 	lsls.w	r3, r0, ip
 8000c3e:	fa20 f002 	lsr.w	r0, r0, r2
 8000c42:	bf18      	it	ne
 8000c44:	f040 0001 	orrne.w	r0, r0, #1
 8000c48:	ea4f 23c1 	mov.w	r3, r1, lsl #11
 8000c4c:	ea4f 23d3 	mov.w	r3, r3, lsr #11
 8000c50:	fa03 fc0c 	lsl.w	ip, r3, ip
 8000c54:	ea40 000c 	orr.w	r0, r0, ip
 8000c58:	fa23 f302 	lsr.w	r3, r3, r2
 8000c5c:	ea4f 0343 	mov.w	r3, r3, lsl #1
 8000c60:	e7cc      	b.n	8000bfc <__aeabi_d2f+0x14>
 8000c62:	ea7f 5362 	mvns.w	r3, r2, asr #21
 8000c66:	d107      	bne.n	8000c78 <__aeabi_d2f+0x90>
 8000c68:	ea50 3301 	orrs.w	r3, r0, r1, lsl #12
 8000c6c:	bf1e      	ittt	ne
 8000c6e:	f04f 40fe 	movne.w	r0, #2130706432	; 0x7f000000
 8000c72:	f440 0040 	orrne.w	r0, r0, #12582912	; 0xc00000
 8000c76:	4770      	bxne	lr
 8000c78:	f001 4000 	and.w	r0, r1, #2147483648	; 0x80000000
 8000c7c:	f040 40fe 	orr.w	r0, r0, #2130706432	; 0x7f000000
 8000c80:	f440 0000 	orr.w	r0, r0, #8388608	; 0x800000
 8000c84:	4770      	bx	lr
 8000c86:	bf00      	nop

08000c88 <__aeabi_uldivmod>:
 8000c88:	b953      	cbnz	r3, 8000ca0 <__aeabi_uldivmod+0x18>
 8000c8a:	b94a      	cbnz	r2, 8000ca0 <__aeabi_uldivmod+0x18>
 8000c8c:	2900      	cmp	r1, #0
 8000c8e:	bf08      	it	eq
 8000c90:	2800      	cmpeq	r0, #0
 8000c92:	bf1c      	itt	ne
 8000c94:	f04f 31ff 	movne.w	r1, #4294967295
 8000c98:	f04f 30ff 	movne.w	r0, #4294967295
 8000c9c:	f000 b9a4 	b.w	8000fe8 <__aeabi_idiv0>
 8000ca0:	f1ad 0c08 	sub.w	ip, sp, #8
 8000ca4:	e96d ce04 	strd	ip, lr, [sp, #-16]!
 8000ca8:	f000 f83c 	bl	8000d24 <__udivmoddi4>
 8000cac:	f8dd e004 	ldr.w	lr, [sp, #4]
 8000cb0:	e9dd 2302 	ldrd	r2, r3, [sp, #8]
 8000cb4:	b004      	add	sp, #16
 8000cb6:	4770      	bx	lr

08000cb8 <__aeabi_d2lz>:
 8000cb8:	b538      	push	{r3, r4, r5, lr}
 8000cba:	2200      	movs	r2, #0
 8000cbc:	2300      	movs	r3, #0
 8000cbe:	4604      	mov	r4, r0
 8000cc0:	460d      	mov	r5, r1
 8000cc2:	f7ff ff0b 	bl	8000adc <__aeabi_dcmplt>
 8000cc6:	b928      	cbnz	r0, 8000cd4 <__aeabi_d2lz+0x1c>
 8000cc8:	4620      	mov	r0, r4
 8000cca:	4629      	mov	r1, r5
 8000ccc:	e8bd 4038 	ldmia.w	sp!, {r3, r4, r5, lr}
 8000cd0:	f000 b80a 	b.w	8000ce8 <__aeabi_d2ulz>
 8000cd4:	4620      	mov	r0, r4
 8000cd6:	f105 4100 	add.w	r1, r5, #2147483648	; 0x80000000
 8000cda:	f000 f805 	bl	8000ce8 <__aeabi_d2ulz>
 8000cde:	4240      	negs	r0, r0
 8000ce0:	eb61 0141 	sbc.w	r1, r1, r1, lsl #1
 8000ce4:	bd38      	pop	{r3, r4, r5, pc}
 8000ce6:	bf00      	nop

08000ce8 <__aeabi_d2ulz>:
 8000ce8:	b5d0      	push	{r4, r6, r7, lr}
 8000cea:	4b0c      	ldr	r3, [pc, #48]	; (8000d1c <__aeabi_d2ulz+0x34>)
 8000cec:	2200      	movs	r2, #0
 8000cee:	4606      	mov	r6, r0
 8000cf0:	460f      	mov	r7, r1
 8000cf2:	f7ff fc81 	bl	80005f8 <__aeabi_dmul>
 8000cf6:	f7ff ff57 	bl	8000ba8 <__aeabi_d2uiz>
 8000cfa:	4604      	mov	r4, r0
 8000cfc:	f7ff fc02 	bl	8000504 <__aeabi_ui2d>
 8000d00:	4b07      	ldr	r3, [pc, #28]	; (8000d20 <__aeabi_d2ulz+0x38>)
 8000d02:	2200      	movs	r2, #0
 8000d04:	f7ff fc78 	bl	80005f8 <__aeabi_dmul>
 8000d08:	4602      	mov	r2, r0
 8000d0a:	460b      	mov	r3, r1
 8000d0c:	4630      	mov	r0, r6
 8000d0e:	4639      	mov	r1, r7
 8000d10:	f7ff faba 	bl	8000288 <__aeabi_dsub>
 8000d14:	f7ff ff48 	bl	8000ba8 <__aeabi_d2uiz>
 8000d18:	4621      	mov	r1, r4
 8000d1a:	bdd0      	pop	{r4, r6, r7, pc}
 8000d1c:	3df00000 	.word	0x3df00000
 8000d20:	41f00000 	.word	0x41f00000

08000d24 <__udivmoddi4>:
 8000d24:	e92d 47f0 	stmdb	sp!, {r4, r5, r6, r7, r8, r9, sl, lr}
 8000d28:	9d08      	ldr	r5, [sp, #32]
 8000d2a:	4604      	mov	r4, r0
 8000d2c:	468c      	mov	ip, r1
 8000d2e:	2b00      	cmp	r3, #0
 8000d30:	f040 8083 	bne.w	8000e3a <__udivmoddi4+0x116>
 8000d34:	428a      	cmp	r2, r1
 8000d36:	4617      	mov	r7, r2
 8000d38:	d947      	bls.n	8000dca <__udivmoddi4+0xa6>
 8000d3a:	fab2 f282 	clz	r2, r2
 8000d3e:	b142      	cbz	r2, 8000d52 <__udivmoddi4+0x2e>
 8000d40:	f1c2 0020 	rsb	r0, r2, #32
 8000d44:	fa24 f000 	lsr.w	r0, r4, r0
 8000d48:	4091      	lsls	r1, r2
 8000d4a:	4097      	lsls	r7, r2
 8000d4c:	ea40 0c01 	orr.w	ip, r0, r1
 8000d50:	4094      	lsls	r4, r2
 8000d52:	ea4f 4817 	mov.w	r8, r7, lsr #16
 8000d56:	0c23      	lsrs	r3, r4, #16
 8000d58:	fbbc f6f8 	udiv	r6, ip, r8
 8000d5c:	fa1f fe87 	uxth.w	lr, r7
 8000d60:	fb08 c116 	mls	r1, r8, r6, ip
 8000d64:	ea43 4301 	orr.w	r3, r3, r1, lsl #16
 8000d68:	fb06 f10e 	mul.w	r1, r6, lr
 8000d6c:	4299      	cmp	r1, r3
 8000d6e:	d909      	bls.n	8000d84 <__udivmoddi4+0x60>
 8000d70:	18fb      	adds	r3, r7, r3
 8000d72:	f106 30ff 	add.w	r0, r6, #4294967295
 8000d76:	f080 8119 	bcs.w	8000fac <__udivmoddi4+0x288>
 8000d7a:	4299      	cmp	r1, r3
 8000d7c:	f240 8116 	bls.w	8000fac <__udivmoddi4+0x288>
 8000d80:	3e02      	subs	r6, #2
 8000d82:	443b      	add	r3, r7
 8000d84:	1a5b      	subs	r3, r3, r1
 8000d86:	b2a4      	uxth	r4, r4
 8000d88:	fbb3 f0f8 	udiv	r0, r3, r8
 8000d8c:	fb08 3310 	mls	r3, r8, r0, r3
 8000d90:	ea44 4403 	orr.w	r4, r4, r3, lsl #16
 8000d94:	fb00 fe0e 	mul.w	lr, r0, lr
 8000d98:	45a6      	cmp	lr, r4
 8000d9a:	d909      	bls.n	8000db0 <__udivmoddi4+0x8c>
 8000d9c:	193c      	adds	r4, r7, r4
 8000d9e:	f100 33ff 	add.w	r3, r0, #4294967295
 8000da2:	f080 8105 	bcs.w	8000fb0 <__udivmoddi4+0x28c>
 8000da6:	45a6      	cmp	lr, r4
 8000da8:	f240 8102 	bls.w	8000fb0 <__udivmoddi4+0x28c>
 8000dac:	3802      	subs	r0, #2
 8000dae:	443c      	add	r4, r7
 8000db0:	ea40 4006 	orr.w	r0, r0, r6, lsl #16
 8000db4:	eba4 040e 	sub.w	r4, r4, lr
 8000db8:	2600      	movs	r6, #0
 8000dba:	b11d      	cbz	r5, 8000dc4 <__udivmoddi4+0xa0>
 8000dbc:	40d4      	lsrs	r4, r2
 8000dbe:	2300      	movs	r3, #0
 8000dc0:	e9c5 4300 	strd	r4, r3, [r5]
 8000dc4:	4631      	mov	r1, r6
 8000dc6:	e8bd 87f0 	ldmia.w	sp!, {r4, r5, r6, r7, r8, r9, sl, pc}
 8000dca:	b902      	cbnz	r2, 8000dce <__udivmoddi4+0xaa>
 8000dcc:	deff      	udf	#255	; 0xff
 8000dce:	fab2 f282 	clz	r2, r2
 8000dd2:	2a00      	cmp	r2, #0
 8000dd4:	d150      	bne.n	8000e78 <__udivmoddi4+0x154>
 8000dd6:	1bcb      	subs	r3, r1, r7
 8000dd8:	ea4f 4e17 	mov.w	lr, r7, lsr #16
 8000ddc:	fa1f f887 	uxth.w	r8, r7
 8000de0:	2601      	movs	r6, #1
 8000de2:	fbb3 fcfe 	udiv	ip, r3, lr
 8000de6:	0c21      	lsrs	r1, r4, #16
 8000de8:	fb0e 331c 	mls	r3, lr, ip, r3
 8000dec:	ea41 4103 	orr.w	r1, r1, r3, lsl #16
 8000df0:	fb08 f30c 	mul.w	r3, r8, ip
 8000df4:	428b      	cmp	r3, r1
 8000df6:	d907      	bls.n	8000e08 <__udivmoddi4+0xe4>
 8000df8:	1879      	adds	r1, r7, r1
 8000dfa:	f10c 30ff 	add.w	r0, ip, #4294967295
 8000dfe:	d202      	bcs.n	8000e06 <__udivmoddi4+0xe2>
 8000e00:	428b      	cmp	r3, r1
 8000e02:	f200 80e9 	bhi.w	8000fd8 <__udivmoddi4+0x2b4>
 8000e06:	4684      	mov	ip, r0
 8000e08:	1ac9      	subs	r1, r1, r3
 8000e0a:	b2a3      	uxth	r3, r4
 8000e0c:	fbb1 f0fe 	udiv	r0, r1, lr
 8000e10:	fb0e 1110 	mls	r1, lr, r0, r1
 8000e14:	ea43 4401 	orr.w	r4, r3, r1, lsl #16
 8000e18:	fb08 f800 	mul.w	r8, r8, r0
 8000e1c:	45a0      	cmp	r8, r4
 8000e1e:	d907      	bls.n	8000e30 <__udivmoddi4+0x10c>
 8000e20:	193c      	adds	r4, r7, r4
 8000e22:	f100 33ff 	add.w	r3, r0, #4294967295
 8000e26:	d202      	bcs.n	8000e2e <__udivmoddi4+0x10a>
 8000e28:	45a0      	cmp	r8, r4
 8000e2a:	f200 80d9 	bhi.w	8000fe0 <__udivmoddi4+0x2bc>
 8000e2e:	4618      	mov	r0, r3
 8000e30:	eba4 0408 	sub.w	r4, r4, r8
 8000e34:	ea40 400c 	orr.w	r0, r0, ip, lsl #16
 8000e38:	e7bf      	b.n	8000dba <__udivmoddi4+0x96>
 8000e3a:	428b      	cmp	r3, r1
 8000e3c:	d909      	bls.n	8000e52 <__udivmoddi4+0x12e>
 8000e3e:	2d00      	cmp	r5, #0
 8000e40:	f000 80b1 	beq.w	8000fa6 <__udivmoddi4+0x282>
 8000e44:	2600      	movs	r6, #0
 8000e46:	e9c5 0100 	strd	r0, r1, [r5]
 8000e4a:	4630      	mov	r0, r6
 8000e4c:	4631      	mov	r1, r6
 8000e4e:	e8bd 87f0 	ldmia.w	sp!, {r4, r5, r6, r7, r8, r9, sl, pc}
 8000e52:	fab3 f683 	clz	r6, r3
 8000e56:	2e00      	cmp	r6, #0
 8000e58:	d14a      	bne.n	8000ef0 <__udivmoddi4+0x1cc>
 8000e5a:	428b      	cmp	r3, r1
 8000e5c:	d302      	bcc.n	8000e64 <__udivmoddi4+0x140>
 8000e5e:	4282      	cmp	r2, r0
 8000e60:	f200 80b8 	bhi.w	8000fd4 <__udivmoddi4+0x2b0>
 8000e64:	1a84      	subs	r4, r0, r2
 8000e66:	eb61 0103 	sbc.w	r1, r1, r3
 8000e6a:	2001      	movs	r0, #1
 8000e6c:	468c      	mov	ip, r1
 8000e6e:	2d00      	cmp	r5, #0
 8000e70:	d0a8      	beq.n	8000dc4 <__udivmoddi4+0xa0>
 8000e72:	e9c5 4c00 	strd	r4, ip, [r5]
 8000e76:	e7a5      	b.n	8000dc4 <__udivmoddi4+0xa0>
 8000e78:	f1c2 0320 	rsb	r3, r2, #32
 8000e7c:	fa20 f603 	lsr.w	r6, r0, r3
 8000e80:	4097      	lsls	r7, r2
 8000e82:	fa01 f002 	lsl.w	r0, r1, r2
 8000e86:	ea4f 4e17 	mov.w	lr, r7, lsr #16
 8000e8a:	40d9      	lsrs	r1, r3
 8000e8c:	4330      	orrs	r0, r6
 8000e8e:	0c03      	lsrs	r3, r0, #16
 8000e90:	fbb1 f6fe 	udiv	r6, r1, lr
 8000e94:	fa1f f887 	uxth.w	r8, r7
 8000e98:	fb0e 1116 	mls	r1, lr, r6, r1
 8000e9c:	ea43 4301 	orr.w	r3, r3, r1, lsl #16
 8000ea0:	fb06 f108 	mul.w	r1, r6, r8
 8000ea4:	4299      	cmp	r1, r3
 8000ea6:	fa04 f402 	lsl.w	r4, r4, r2
 8000eaa:	d909      	bls.n	8000ec0 <__udivmoddi4+0x19c>
 8000eac:	18fb      	adds	r3, r7, r3
 8000eae:	f106 3cff 	add.w	ip, r6, #4294967295
 8000eb2:	f080 808d 	bcs.w	8000fd0 <__udivmoddi4+0x2ac>
 8000eb6:	4299      	cmp	r1, r3
 8000eb8:	f240 808a 	bls.w	8000fd0 <__udivmoddi4+0x2ac>
 8000ebc:	3e02      	subs	r6, #2
 8000ebe:	443b      	add	r3, r7
 8000ec0:	1a5b      	subs	r3, r3, r1
 8000ec2:	b281      	uxth	r1, r0
 8000ec4:	fbb3 f0fe 	udiv	r0, r3, lr
 8000ec8:	fb0e 3310 	mls	r3, lr, r0, r3
 8000ecc:	ea41 4103 	orr.w	r1, r1, r3, lsl #16
 8000ed0:	fb00 f308 	mul.w	r3, r0, r8
 8000ed4:	428b      	cmp	r3, r1
 8000ed6:	d907      	bls.n	8000ee8 <__udivmoddi4+0x1c4>
 8000ed8:	1879      	adds	r1, r7, r1
 8000eda:	f100 3cff 	add.w	ip, r0, #4294967295
 8000ede:	d273      	bcs.n	8000fc8 <__udivmoddi4+0x2a4>
 8000ee0:	428b      	cmp	r3, r1
 8000ee2:	d971      	bls.n	8000fc8 <__udivmoddi4+0x2a4>
 8000ee4:	3802      	subs	r0, #2
 8000ee6:	4439      	add	r1, r7
 8000ee8:	1acb      	subs	r3, r1, r3
 8000eea:	ea40 4606 	orr.w	r6, r0, r6, lsl #16
 8000eee:	e778      	b.n	8000de2 <__udivmoddi4+0xbe>
 8000ef0:	f1c6 0c20 	rsb	ip, r6, #32
 8000ef4:	fa03 f406 	lsl.w	r4, r3, r6
 8000ef8:	fa22 f30c 	lsr.w	r3, r2, ip
 8000efc:	431c      	orrs	r4, r3
 8000efe:	fa20 f70c 	lsr.w	r7, r0, ip
 8000f02:	fa01 f306 	lsl.w	r3, r1, r6
 8000f06:	ea4f 4e14 	mov.w	lr, r4, lsr #16
 8000f0a:	fa21 f10c 	lsr.w	r1, r1, ip
 8000f0e:	431f      	orrs	r7, r3
 8000f10:	0c3b      	lsrs	r3, r7, #16
 8000f12:	fbb1 f9fe 	udiv	r9, r1, lr
 8000f16:	fa1f f884 	uxth.w	r8, r4
 8000f1a:	fb0e 1119 	mls	r1, lr, r9, r1
 8000f1e:	ea43 4101 	orr.w	r1, r3, r1, lsl #16
 8000f22:	fb09 fa08 	mul.w	sl, r9, r8
 8000f26:	458a      	cmp	sl, r1
 8000f28:	fa02 f206 	lsl.w	r2, r2, r6
 8000f2c:	fa00 f306 	lsl.w	r3, r0, r6
 8000f30:	d908      	bls.n	8000f44 <__udivmoddi4+0x220>
 8000f32:	1861      	adds	r1, r4, r1
 8000f34:	f109 30ff 	add.w	r0, r9, #4294967295
 8000f38:	d248      	bcs.n	8000fcc <__udivmoddi4+0x2a8>
 8000f3a:	458a      	cmp	sl, r1
 8000f3c:	d946      	bls.n	8000fcc <__udivmoddi4+0x2a8>
 8000f3e:	f1a9 0902 	sub.w	r9, r9, #2
 8000f42:	4421      	add	r1, r4
 8000f44:	eba1 010a 	sub.w	r1, r1, sl
 8000f48:	b2bf      	uxth	r7, r7
 8000f4a:	fbb1 f0fe 	udiv	r0, r1, lr
 8000f4e:	fb0e 1110 	mls	r1, lr, r0, r1
 8000f52:	ea47 4701 	orr.w	r7, r7, r1, lsl #16
 8000f56:	fb00 f808 	mul.w	r8, r0, r8
 8000f5a:	45b8      	cmp	r8, r7
 8000f5c:	d907      	bls.n	8000f6e <__udivmoddi4+0x24a>
 8000f5e:	19e7      	adds	r7, r4, r7
 8000f60:	f100 31ff 	add.w	r1, r0, #4294967295
 8000f64:	d22e      	bcs.n	8000fc4 <__udivmoddi4+0x2a0>
 8000f66:	45b8      	cmp	r8, r7
 8000f68:	d92c      	bls.n	8000fc4 <__udivmoddi4+0x2a0>
 8000f6a:	3802      	subs	r0, #2
 8000f6c:	4427      	add	r7, r4
 8000f6e:	ea40 4009 	orr.w	r0, r0, r9, lsl #16
 8000f72:	eba7 0708 	sub.w	r7, r7, r8
 8000f76:	fba0 8902 	umull	r8, r9, r0, r2
 8000f7a:	454f      	cmp	r7, r9
 8000f7c:	46c6      	mov	lr, r8
 8000f7e:	4649      	mov	r1, r9
 8000f80:	d31a      	bcc.n	8000fb8 <__udivmoddi4+0x294>
 8000f82:	d017      	beq.n	8000fb4 <__udivmoddi4+0x290>
 8000f84:	b15d      	cbz	r5, 8000f9e <__udivmoddi4+0x27a>
 8000f86:	ebb3 020e 	subs.w	r2, r3, lr
 8000f8a:	eb67 0701 	sbc.w	r7, r7, r1
 8000f8e:	fa07 fc0c 	lsl.w	ip, r7, ip
 8000f92:	40f2      	lsrs	r2, r6
 8000f94:	ea4c 0202 	orr.w	r2, ip, r2
 8000f98:	40f7      	lsrs	r7, r6
 8000f9a:	e9c5 2700 	strd	r2, r7, [r5]
 8000f9e:	2600      	movs	r6, #0
 8000fa0:	4631      	mov	r1, r6
 8000fa2:	e8bd 87f0 	ldmia.w	sp!, {r4, r5, r6, r7, r8, r9, sl, pc}
 8000fa6:	462e      	mov	r6, r5
 8000fa8:	4628      	mov	r0, r5
 8000faa:	e70b      	b.n	8000dc4 <__udivmoddi4+0xa0>
 8000fac:	4606      	mov	r6, r0
 8000fae:	e6e9      	b.n	8000d84 <__udivmoddi4+0x60>
 8000fb0:	4618      	mov	r0, r3
 8000fb2:	e6fd      	b.n	8000db0 <__udivmoddi4+0x8c>
 8000fb4:	4543      	cmp	r3, r8
 8000fb6:	d2e5      	bcs.n	8000f84 <__udivmoddi4+0x260>
 8000fb8:	ebb8 0e02 	subs.w	lr, r8, r2
 8000fbc:	eb69 0104 	sbc.w	r1, r9, r4
 8000fc0:	3801      	subs	r0, #1
 8000fc2:	e7df      	b.n	8000f84 <__udivmoddi4+0x260>
 8000fc4:	4608      	mov	r0, r1
 8000fc6:	e7d2      	b.n	8000f6e <__udivmoddi4+0x24a>
 8000fc8:	4660      	mov	r0, ip
 8000fca:	e78d      	b.n	8000ee8 <__udivmoddi4+0x1c4>
 8000fcc:	4681      	mov	r9, r0
 8000fce:	e7b9      	b.n	8000f44 <__udivmoddi4+0x220>
 8000fd0:	4666      	mov	r6, ip
 8000fd2:	e775      	b.n	8000ec0 <__udivmoddi4+0x19c>
 8000fd4:	4630      	mov	r0, r6
 8000fd6:	e74a      	b.n	8000e6e <__udivmoddi4+0x14a>
 8000fd8:	f1ac 0c02 	sub.w	ip, ip, #2
 8000fdc:	4439      	add	r1, r7
 8000fde:	e713      	b.n	8000e08 <__udivmoddi4+0xe4>
 8000fe0:	3802      	subs	r0, #2
 8000fe2:	443c      	add	r4, r7
 8000fe4:	e724      	b.n	8000e30 <__udivmoddi4+0x10c>
 8000fe6:	bf00      	nop

08000fe8 <__aeabi_idiv0>:
 8000fe8:	4770      	bx	lr
 8000fea:	bf00      	nop

08000fec <configureTimerForRunTimeStats>:
 8000fec:	4770      	bx	lr
 8000fee:	bf00      	nop

08000ff0 <getRunTimeCounterValue>:
 8000ff0:	2000      	movs	r0, #0
 8000ff2:	4770      	bx	lr

08000ff4 <vApplicationStackOverflowHook>:
 8000ff4:	4770      	bx	lr
 8000ff6:	bf00      	nop

08000ff8 <DelayedInvMosOn>:
 8000ff8:	b508      	push	{r3, lr}
 8000ffa:	f645 138c 	movw	r3, #22924	; 0x598c
 8000ffe:	f2c2 0300 	movt	r3, #8192	; 0x2000
 8001002:	781b      	ldrb	r3, [r3, #0]
 8001004:	2b0d      	cmp	r3, #13
 8001006:	d876      	bhi.n	80010f6 <DelayedInvMosOn+0xfe>
 8001008:	e8df f003 	tbb	[pc, r3]
 800100c:	59636c0f 	.word	0x59636c0f
 8001010:	0f364f07 	.word	0x0f364f07
 8001014:	0759636c 	.word	0x0759636c
 8001018:	364f      	.short	0x364f
 800101a:	f645 4334 	movw	r3, #23604	; 0x5c34
 800101e:	f2c2 0300 	movt	r3, #8192	; 0x2000
 8001022:	6bdb      	ldr	r3, [r3, #60]	; 0x3c
 8001024:	f5b3 5f61 	cmp.w	r3, #14400	; 0x3840
 8001028:	d92f      	bls.n	800108a <DelayedInvMosOn+0x92>
 800102a:	f645 1390 	movw	r3, #22928	; 0x5990
 800102e:	f2c2 0300 	movt	r3, #8192	; 0x2000
 8001032:	695b      	ldr	r3, [r3, #20]
 8001034:	2b50      	cmp	r3, #80	; 0x50
 8001036:	d80f      	bhi.n	8001058 <DelayedInvMosOn+0x60>
 8001038:	2200      	movs	r2, #0
 800103a:	2180      	movs	r1, #128	; 0x80
 800103c:	f04f 4090 	mov.w	r0, #1207959552	; 0x48000000
 8001040:	f003 ffd8 	bl	8004ff4 <HAL_GPIO_WritePin>
 8001044:	f240 2340 	movw	r3, #576	; 0x240
 8001048:	f2c2 0300 	movt	r3, #8192	; 0x2000
 800104c:	2201      	movs	r2, #1
 800104e:	601a      	str	r2, [r3, #0]
 8001050:	e8bd 4008 	ldmia.w	sp!, {r3, lr}
 8001054:	f000 bea8 	b.w	8001da8 <BatteryMOS_ON>
 8001058:	2201      	movs	r2, #1
 800105a:	2180      	movs	r1, #128	; 0x80
 800105c:	f04f 4090 	mov.w	r0, #1207959552	; 0x48000000
 8001060:	f003 ffc8 	bl	8004ff4 <HAL_GPIO_WritePin>
 8001064:	f240 2340 	movw	r3, #576	; 0x240
 8001068:	f2c2 0300 	movt	r3, #8192	; 0x2000
 800106c:	2200      	movs	r2, #0
 800106e:	601a      	str	r2, [r3, #0]
 8001070:	e8bd 4008 	ldmia.w	sp!, {r3, lr}
 8001074:	f000 be98 	b.w	8001da8 <BatteryMOS_ON>
 8001078:	f645 4334 	movw	r3, #23604	; 0x5c34
 800107c:	f2c2 0300 	movt	r3, #8192	; 0x2000
 8001080:	f245 4260 	movw	r2, #21600	; 0x5460
 8001084:	6bdb      	ldr	r3, [r3, #60]	; 0x3c
 8001086:	4293      	cmp	r3, r2
 8001088:	d8cf      	bhi.n	800102a <DelayedInvMosOn+0x32>
 800108a:	2201      	movs	r2, #1
 800108c:	2180      	movs	r1, #128	; 0x80
 800108e:	f04f 4090 	mov.w	r0, #1207959552	; 0x48000000
 8001092:	f003 ffaf 	bl	8004ff4 <HAL_GPIO_WritePin>
 8001096:	f240 2340 	movw	r3, #576	; 0x240
 800109a:	f2c2 0300 	movt	r3, #8192	; 0x2000
 800109e:	2200      	movs	r2, #0
 80010a0:	601a      	str	r2, [r3, #0]
 80010a2:	e8bd 4008 	ldmia.w	sp!, {r3, lr}
 80010a6:	f000 be7f 	b.w	8001da8 <BatteryMOS_ON>
 80010aa:	f645 4334 	movw	r3, #23604	; 0x5c34
 80010ae:	f2c2 0300 	movt	r3, #8192	; 0x2000
 80010b2:	f244 6250 	movw	r2, #18000	; 0x4650
 80010b6:	6bdb      	ldr	r3, [r3, #60]	; 0x3c
 80010b8:	4293      	cmp	r3, r2
 80010ba:	d9e6      	bls.n	800108a <DelayedInvMosOn+0x92>
 80010bc:	e7b5      	b.n	800102a <DelayedInvMosOn+0x32>
 80010be:	f645 4334 	movw	r3, #23604	; 0x5c34
 80010c2:	f2c2 0300 	movt	r3, #8192	; 0x2000
 80010c6:	f642 2230 	movw	r2, #10800	; 0x2a30
 80010ca:	6bdb      	ldr	r3, [r3, #60]	; 0x3c
 80010cc:	4293      	cmp	r3, r2
 80010ce:	d9dc      	bls.n	800108a <DelayedInvMosOn+0x92>
 80010d0:	e7ab      	b.n	800102a <DelayedInvMosOn+0x32>
 80010d2:	f645 4334 	movw	r3, #23604	; 0x5c34
 80010d6:	f2c2 0300 	movt	r3, #8192	; 0x2000
 80010da:	6bdb      	ldr	r3, [r3, #60]	; 0x3c
 80010dc:	f5b3 5fe1 	cmp.w	r3, #7200	; 0x1c20
 80010e0:	d9d3      	bls.n	800108a <DelayedInvMosOn+0x92>
 80010e2:	e7a2      	b.n	800102a <DelayedInvMosOn+0x32>
 80010e4:	f645 4334 	movw	r3, #23604	; 0x5c34
 80010e8:	f2c2 0300 	movt	r3, #8192	; 0x2000
 80010ec:	6bdb      	ldr	r3, [r3, #60]	; 0x3c
 80010ee:	f5b3 6f61 	cmp.w	r3, #3600	; 0xe10
 80010f2:	d9ca      	bls.n	800108a <DelayedInvMosOn+0x92>
 80010f4:	e799      	b.n	800102a <DelayedInvMosOn+0x32>
 80010f6:	f645 1390 	movw	r3, #22928	; 0x5990
 80010fa:	f2c2 0300 	movt	r3, #8192	; 0x2000
 80010fe:	695b      	ldr	r3, [r3, #20]
 8001100:	2b50      	cmp	r3, #80	; 0x50
 8001102:	d90c      	bls.n	800111e <DelayedInvMosOn+0x126>
 8001104:	2201      	movs	r2, #1
 8001106:	2180      	movs	r1, #128	; 0x80
 8001108:	f04f 4090 	mov.w	r0, #1207959552	; 0x48000000
 800110c:	f003 ff72 	bl	8004ff4 <HAL_GPIO_WritePin>
 8001110:	f240 2340 	movw	r3, #576	; 0x240
 8001114:	f2c2 0300 	movt	r3, #8192	; 0x2000
 8001118:	2200      	movs	r2, #0
 800111a:	601a      	str	r2, [r3, #0]
 800111c:	bd08      	pop	{r3, pc}
 800111e:	2200      	movs	r2, #0
 8001120:	2180      	movs	r1, #128	; 0x80
 8001122:	f04f 4090 	mov.w	r0, #1207959552	; 0x48000000
 8001126:	f003 ff65 	bl	8004ff4 <HAL_GPIO_WritePin>
 800112a:	f240 2340 	movw	r3, #576	; 0x240
 800112e:	f2c2 0300 	movt	r3, #8192	; 0x2000
 8001132:	2201      	movs	r2, #1
 8001134:	601a      	str	r2, [r3, #0]
 8001136:	bd08      	pop	{r3, pc}

08001138 <ResetInverterDay>:
 8001138:	e92d 4ff0 	stmdb	sp!, {r4, r5, r6, r7, r8, r9, sl, fp, lr}
 800113c:	f246 24b4 	movw	r4, #25268	; 0x62b4
 8001140:	f2c2 0400 	movt	r4, #8192	; 0x2000
 8001144:	b09d      	sub	sp, #116	; 0x74
 8001146:	6823      	ldr	r3, [r4, #0]
 8001148:	2b1b      	cmp	r3, #27
 800114a:	f200 812e 	bhi.w	80013aa <ResetInverterDay+0x272>
 800114e:	e8df f013 	tbh	[pc, r3, lsl #1]
 8001152:	00f3      	.short	0x00f3
 8001154:	001c006f 	.word	0x001c006f
 8001158:	001c001c 	.word	0x001c001c
 800115c:	001c001c 	.word	0x001c001c
 8001160:	001c001c 	.word	0x001c001c
 8001164:	001c001c 	.word	0x001c001c
 8001168:	001c001c 	.word	0x001c001c
 800116c:	001c001c 	.word	0x001c001c
 8001170:	001c001c 	.word	0x001c001c
 8001174:	00210021 	.word	0x00210021
 8001178:	00210021 	.word	0x00210021
 800117c:	00210021 	.word	0x00210021
 8001180:	00210021 	.word	0x00210021
 8001184:	00210021 	.word	0x00210021
 8001188:	0103      	.short	0x0103
 800118a:	3301      	adds	r3, #1
 800118c:	6023      	str	r3, [r4, #0]
 800118e:	b01d      	add	sp, #116	; 0x74
 8001190:	e8bd 8ff0 	ldmia.w	sp!, {r4, r5, r6, r7, r8, r9, sl, fp, pc}
 8001194:	f645 1390 	movw	r3, #22928	; 0x5990
 8001198:	f2c2 0300 	movt	r3, #8192	; 0x2000
 800119c:	695b      	ldr	r3, [r3, #20]
 800119e:	2b50      	cmp	r3, #80	; 0x50
 80011a0:	f240 80f0 	bls.w	8001384 <ResetInverterDay+0x24c>
 80011a4:	2201      	movs	r2, #1
 80011a6:	2180      	movs	r1, #128	; 0x80
 80011a8:	f04f 4090 	mov.w	r0, #1207959552	; 0x48000000
 80011ac:	f003 ff22 	bl	8004ff4 <HAL_GPIO_WritePin>
 80011b0:	f240 2340 	movw	r3, #576	; 0x240
 80011b4:	f2c2 0300 	movt	r3, #8192	; 0x2000
 80011b8:	2200      	movs	r2, #0
 80011ba:	601a      	str	r2, [r3, #0]
 80011bc:	6823      	ldr	r3, [r4, #0]
 80011be:	f246 2168 	movw	r1, #25192	; 0x6268
 80011c2:	3301      	adds	r3, #1
 80011c4:	2500      	movs	r5, #0
 80011c6:	a808      	add	r0, sp, #32
 80011c8:	f2c2 0100 	movt	r1, #8192	; 0x2000
 80011cc:	224c      	movs	r2, #76	; 0x4c
 80011ce:	2660      	movs	r6, #96	; 0x60
 80011d0:	2700      	movs	r7, #0
 80011d2:	6023      	str	r3, [r4, #0]
 80011d4:	f008 fe63 	bl	8009e9e <memcpy>
 80011d8:	462a      	mov	r2, r5
 80011da:	e9cd 6700 	strd	r6, r7, [sp]
 80011de:	4669      	mov	r1, sp
 80011e0:	2600      	movs	r6, #0
 80011e2:	2700      	movs	r7, #0
 80011e4:	a808      	add	r0, sp, #32
 80011e6:	e9cd 6702 	strd	r6, r7, [sp, #8]
 80011ea:	e9cd 6704 	strd	r6, r7, [sp, #16]
 80011ee:	9506      	str	r5, [sp, #24]
 80011f0:	f005 f8ea 	bl	80063c8 <HAL_TIM_PWM_ConfigChannel>
 80011f4:	4629      	mov	r1, r5
 80011f6:	a808      	add	r0, sp, #32
 80011f8:	f005 f80e 	bl	8006218 <HAL_TIM_PWM_Start>
 80011fc:	f246 2068 	movw	r0, #25192	; 0x6268
 8001200:	4629      	mov	r1, r5
 8001202:	f2c2 0000 	movt	r0, #8192	; 0x2000
 8001206:	f005 f87f 	bl	8006308 <HAL_TIM_PWM_Stop>
 800120a:	f44f 6080 	mov.w	r0, #1024	; 0x400
 800120e:	2302      	movs	r3, #2
 8001210:	a908      	add	r1, sp, #32
 8001212:	f6c4 0000 	movt	r0, #18432	; 0x4800
 8001216:	f44f 7600 	mov.w	r6, #512	; 0x200
 800121a:	2700      	movs	r7, #0
 800121c:	e9cd 550b 	strd	r5, r5, [sp, #44]	; 0x2c
 8001220:	e9cd 6708 	strd	r6, r7, [sp, #32]
 8001224:	930a      	str	r3, [sp, #40]	; 0x28
 8001226:	f003 fddb 	bl	8004de0 <HAL_GPIO_Init>
 800122a:	b01d      	add	sp, #116	; 0x74
 800122c:	e8bd 8ff0 	ldmia.w	sp!, {r4, r5, r6, r7, r8, r9, sl, fp, pc}
 8001230:	f246 134c 	movw	r3, #24908	; 0x614c
 8001234:	f2c2 0300 	movt	r3, #8192	; 0x2000
 8001238:	f246 116c 	movw	r1, #24940	; 0x616c
 800123c:	2500      	movs	r5, #0
 800123e:	2601      	movs	r6, #1
 8001240:	a808      	add	r0, sp, #32
 8001242:	f2c2 0100 	movt	r1, #8192	; 0x2000
 8001246:	224c      	movs	r2, #76	; 0x4c
 8001248:	f04f 0860 	mov.w	r8, #96	; 0x60
 800124c:	f04f 0900 	mov.w	r9, #0
 8001250:	601e      	str	r6, [r3, #0]
 8001252:	f008 fe24 	bl	8009e9e <memcpy>
 8001256:	e9cd 8900 	strd	r8, r9, [sp]
 800125a:	462a      	mov	r2, r5
 800125c:	4669      	mov	r1, sp
 800125e:	a808      	add	r0, sp, #32
 8001260:	f04f 0800 	mov.w	r8, #0
 8001264:	f04f 0908 	mov.w	r9, #8
 8001268:	e9cd 8902 	strd	r8, r9, [sp, #8]
 800126c:	9504      	str	r5, [sp, #16]
 800126e:	f005 f8ab 	bl	80063c8 <HAL_TIM_PWM_ConfigChannel>
 8001272:	4629      	mov	r1, r5
 8001274:	a808      	add	r0, sp, #32
 8001276:	f004 ffcf 	bl	8006218 <HAL_TIM_PWM_Start>
 800127a:	4632      	mov	r2, r6
 800127c:	2140      	movs	r1, #64	; 0x40
 800127e:	f04f 4090 	mov.w	r0, #1207959552	; 0x48000000
 8001282:	f003 feb7 	bl	8004ff4 <HAL_GPIO_WritePin>
 8001286:	f246 106c 	movw	r0, #24940	; 0x616c
 800128a:	4629      	mov	r1, r5
 800128c:	f2c2 0000 	movt	r0, #8192	; 0x2000
 8001290:	f005 f83a 	bl	8006308 <HAL_TIM_PWM_Stop>
 8001294:	f240 2338 	movw	r3, #568	; 0x238
 8001298:	f2c2 0300 	movt	r3, #8192	; 0x2000
 800129c:	4632      	mov	r2, r6
 800129e:	2180      	movs	r1, #128	; 0x80
 80012a0:	f04f 4090 	mov.w	r0, #1207959552	; 0x48000000
 80012a4:	601d      	str	r5, [r3, #0]
 80012a6:	f003 fea5 	bl	8004ff4 <HAL_GPIO_WritePin>
 80012aa:	f645 2308 	movw	r3, #23048	; 0x5a08
 80012ae:	f2c2 0300 	movt	r3, #8192	; 0x2000
 80012b2:	f240 2740 	movw	r7, #576	; 0x240
 80012b6:	6ada      	ldr	r2, [r3, #44]	; 0x2c
 80012b8:	f2c2 0700 	movt	r7, #8192	; 0x2000
 80012bc:	f246 2168 	movw	r1, #25192	; 0x6268
 80012c0:	1996      	adds	r6, r2, r6
 80012c2:	f04f 0802 	mov.w	r8, #2
 80012c6:	a808      	add	r0, sp, #32
 80012c8:	f2c2 0100 	movt	r1, #8192	; 0x2000
 80012cc:	224c      	movs	r2, #76	; 0x4c
 80012ce:	62de      	str	r6, [r3, #44]	; 0x2c
 80012d0:	603d      	str	r5, [r7, #0]
 80012d2:	2600      	movs	r6, #0
 80012d4:	2700      	movs	r7, #0
 80012d6:	f8c4 8000 	str.w	r8, [r4]
 80012da:	f04f 0a60 	mov.w	sl, #96	; 0x60
 80012de:	f008 fdde 	bl	8009e9e <memcpy>
 80012e2:	f04f 0bc8 	mov.w	fp, #200	; 0xc8
 80012e6:	462a      	mov	r2, r5
 80012e8:	4669      	mov	r1, sp
 80012ea:	a808      	add	r0, sp, #32
 80012ec:	e9cd ab00 	strd	sl, fp, [sp]
 80012f0:	e9cd 6702 	strd	r6, r7, [sp, #8]
 80012f4:	e9cd 6704 	strd	r6, r7, [sp, #16]
 80012f8:	9506      	str	r5, [sp, #24]
 80012fa:	f005 f865 	bl	80063c8 <HAL_TIM_PWM_ConfigChannel>
 80012fe:	4629      	mov	r1, r5
 8001300:	a808      	add	r0, sp, #32
 8001302:	f004 ff89 	bl	8006218 <HAL_TIM_PWM_Start>
 8001306:	f246 2068 	movw	r0, #25192	; 0x6268
 800130a:	4629      	mov	r1, r5
 800130c:	f2c2 0000 	movt	r0, #8192	; 0x2000
 8001310:	f004 ff82 	bl	8006218 <HAL_TIM_PWM_Start>
 8001314:	f44f 6080 	mov.w	r0, #1024	; 0x400
 8001318:	f44f 7200 	mov.w	r2, #512	; 0x200
 800131c:	2300      	movs	r3, #0
 800131e:	a908      	add	r1, sp, #32
 8001320:	f6c4 0000 	movt	r0, #18432	; 0x4800
 8001324:	e9cd 850a 	strd	r8, r5, [sp, #40]	; 0x28
 8001328:	e9cd 2308 	strd	r2, r3, [sp, #32]
 800132c:	950c      	str	r5, [sp, #48]	; 0x30
 800132e:	f003 fd57 	bl	8004de0 <HAL_GPIO_Init>
 8001332:	b01d      	add	sp, #116	; 0x74
 8001334:	e8bd 8ff0 	ldmia.w	sp!, {r4, r5, r6, r7, r8, r9, sl, fp, pc}
 8001338:	f645 1390 	movw	r3, #22928	; 0x5990
 800133c:	f2c2 0300 	movt	r3, #8192	; 0x2000
 8001340:	681b      	ldr	r3, [r3, #0]
 8001342:	f5b3 7f87 	cmp.w	r3, #270	; 0x10e
 8001346:	f240 0300 	movw	r3, #0
 800134a:	f2c2 0300 	movt	r3, #8192	; 0x2000
 800134e:	d914      	bls.n	800137a <ResetInverterDay+0x242>
 8001350:	f640 12c3 	movw	r2, #2499	; 0x9c3
 8001354:	601a      	str	r2, [r3, #0]
 8001356:	e71a      	b.n	800118e <ResetInverterDay+0x56>
 8001358:	f246 124c 	movw	r2, #24908	; 0x614c
 800135c:	f240 0300 	movw	r3, #0
 8001360:	f2c2 0200 	movt	r2, #8192	; 0x2000
 8001364:	f2c2 0300 	movt	r3, #8192	; 0x2000
 8001368:	2100      	movs	r1, #0
 800136a:	f640 10c4 	movw	r0, #2500	; 0x9c4
 800136e:	6011      	str	r1, [r2, #0]
 8001370:	6021      	str	r1, [r4, #0]
 8001372:	6018      	str	r0, [r3, #0]
 8001374:	b01d      	add	sp, #116	; 0x74
 8001376:	e8bd 8ff0 	ldmia.w	sp!, {r4, r5, r6, r7, r8, r9, sl, fp, pc}
 800137a:	681a      	ldr	r2, [r3, #0]
 800137c:	b97a      	cbnz	r2, 800139e <ResetInverterDay+0x266>
 800137e:	2301      	movs	r3, #1
 8001380:	6023      	str	r3, [r4, #0]
 8001382:	e704      	b.n	800118e <ResetInverterDay+0x56>
 8001384:	2200      	movs	r2, #0
 8001386:	2180      	movs	r1, #128	; 0x80
 8001388:	f04f 4090 	mov.w	r0, #1207959552	; 0x48000000
 800138c:	f003 fe32 	bl	8004ff4 <HAL_GPIO_WritePin>
 8001390:	f240 2340 	movw	r3, #576	; 0x240
 8001394:	f2c2 0300 	movt	r3, #8192	; 0x2000
 8001398:	2201      	movs	r2, #1
 800139a:	601a      	str	r2, [r3, #0]
 800139c:	e70e      	b.n	80011bc <ResetInverterDay+0x84>
 800139e:	3a01      	subs	r2, #1
 80013a0:	601a      	str	r2, [r3, #0]
 80013a2:	2a00      	cmp	r2, #0
 80013a4:	f47f aef3 	bne.w	800118e <ResetInverterDay+0x56>
 80013a8:	e7e9      	b.n	800137e <ResetInverterDay+0x246>
 80013aa:	f246 134c 	movw	r3, #24908	; 0x614c
 80013ae:	f2c2 0300 	movt	r3, #8192	; 0x2000
 80013b2:	2200      	movs	r2, #0
 80013b4:	601a      	str	r2, [r3, #0]
 80013b6:	6022      	str	r2, [r4, #0]
 80013b8:	e6e9      	b.n	800118e <ResetInverterDay+0x56>
 80013ba:	bf00      	nop

080013bc <ResetInverterNight>:
 80013bc:	e92d 43f0 	stmdb	sp!, {r4, r5, r6, r7, r8, r9, lr}
 80013c0:	f246 24b4 	movw	r4, #25268	; 0x62b4
 80013c4:	f2c2 0400 	movt	r4, #8192	; 0x2000
 80013c8:	b09d      	sub	sp, #116	; 0x74
 80013ca:	6823      	ldr	r3, [r4, #0]
 80013cc:	2b25      	cmp	r3, #37	; 0x25
 80013ce:	f200 8120 	bhi.w	8001612 <ResetInverterNight+0x256>
 80013d2:	e8df f003 	tbb	[pc, r3]
 80013d6:	74cd      	.short	0x74cd
 80013d8:	13131313 	.word	0x13131313
 80013dc:	13131313 	.word	0x13131313
 80013e0:	13131313 	.word	0x13131313
 80013e4:	13131313 	.word	0x13131313
 80013e8:	13131313 	.word	0x13131313
 80013ec:	13131313 	.word	0x13131313
 80013f0:	18181813 	.word	0x18181813
 80013f4:	18181818 	.word	0x18181818
 80013f8:	dd181818 	.word	0xdd181818
 80013fc:	3301      	adds	r3, #1
 80013fe:	6023      	str	r3, [r4, #0]
 8001400:	b01d      	add	sp, #116	; 0x74
 8001402:	e8bd 83f0 	ldmia.w	sp!, {r4, r5, r6, r7, r8, r9, pc}
 8001406:	f645 1690 	movw	r6, #22928	; 0x5990
 800140a:	f2c2 0600 	movt	r6, #8192	; 0x2000
 800140e:	6973      	ldr	r3, [r6, #20]
 8001410:	2b50      	cmp	r3, #80	; 0x50
 8001412:	f240 80e4 	bls.w	80015de <ResetInverterNight+0x222>
 8001416:	2201      	movs	r2, #1
 8001418:	2180      	movs	r1, #128	; 0x80
 800141a:	f04f 4090 	mov.w	r0, #1207959552	; 0x48000000
 800141e:	f003 fde9 	bl	8004ff4 <HAL_GPIO_WritePin>
 8001422:	f240 2340 	movw	r3, #576	; 0x240
 8001426:	f2c2 0300 	movt	r3, #8192	; 0x2000
 800142a:	2200      	movs	r2, #0
 800142c:	601a      	str	r2, [r3, #0]
 800142e:	f000 fcbb 	bl	8001da8 <BatteryMOS_ON>
 8001432:	6823      	ldr	r3, [r4, #0]
 8001434:	f246 2168 	movw	r1, #25192	; 0x6268
 8001438:	3301      	adds	r3, #1
 800143a:	2500      	movs	r5, #0
 800143c:	f2c2 0100 	movt	r1, #8192	; 0x2000
 8001440:	224c      	movs	r2, #76	; 0x4c
 8001442:	f04f 0860 	mov.w	r8, #96	; 0x60
 8001446:	f04f 0900 	mov.w	r9, #0
 800144a:	a808      	add	r0, sp, #32
 800144c:	6023      	str	r3, [r4, #0]
 800144e:	f008 fd26 	bl	8009e9e <memcpy>
 8001452:	462a      	mov	r2, r5
 8001454:	e9cd 8900 	strd	r8, r9, [sp]
 8001458:	4669      	mov	r1, sp
 800145a:	f04f 0800 	mov.w	r8, #0
 800145e:	f04f 0900 	mov.w	r9, #0
 8001462:	a808      	add	r0, sp, #32
 8001464:	e9cd 8902 	strd	r8, r9, [sp, #8]
 8001468:	e9cd 8904 	strd	r8, r9, [sp, #16]
 800146c:	9506      	str	r5, [sp, #24]
 800146e:	f004 ffab 	bl	80063c8 <HAL_TIM_PWM_ConfigChannel>
 8001472:	4629      	mov	r1, r5
 8001474:	a808      	add	r0, sp, #32
 8001476:	f004 fecf 	bl	8006218 <HAL_TIM_PWM_Start>
 800147a:	f246 2068 	movw	r0, #25192	; 0x6268
 800147e:	4629      	mov	r1, r5
 8001480:	f2c2 0000 	movt	r0, #8192	; 0x2000
 8001484:	f004 ff40 	bl	8006308 <HAL_TIM_PWM_Stop>
 8001488:	f44f 6080 	mov.w	r0, #1024	; 0x400
 800148c:	2302      	movs	r3, #2
 800148e:	a908      	add	r1, sp, #32
 8001490:	f6c4 0000 	movt	r0, #18432	; 0x4800
 8001494:	f44f 7800 	mov.w	r8, #512	; 0x200
 8001498:	f04f 0900 	mov.w	r9, #0
 800149c:	930a      	str	r3, [sp, #40]	; 0x28
 800149e:	e9cd 550b 	strd	r5, r5, [sp, #44]	; 0x2c
 80014a2:	e9cd 8908 	strd	r8, r9, [sp, #32]
 80014a6:	f003 fc9b 	bl	8004de0 <HAL_GPIO_Init>
 80014aa:	6832      	ldr	r2, [r6, #0]
 80014ac:	f244 6350 	movw	r3, #18000	; 0x4650
 80014b0:	429a      	cmp	r2, r3
 80014b2:	d9a5      	bls.n	8001400 <ResetInverterNight+0x44>
 80014b4:	2301      	movs	r3, #1
 80014b6:	6023      	str	r3, [r4, #0]
 80014b8:	b01d      	add	sp, #116	; 0x74
 80014ba:	e8bd 83f0 	ldmia.w	sp!, {r4, r5, r6, r7, r8, r9, pc}
 80014be:	f246 134c 	movw	r3, #24908	; 0x614c
 80014c2:	f2c2 0300 	movt	r3, #8192	; 0x2000
 80014c6:	2201      	movs	r2, #1
 80014c8:	2180      	movs	r1, #128	; 0x80
 80014ca:	f04f 4090 	mov.w	r0, #1207959552	; 0x48000000
 80014ce:	601a      	str	r2, [r3, #0]
 80014d0:	f003 fd90 	bl	8004ff4 <HAL_GPIO_WritePin>
 80014d4:	f645 12b0 	movw	r2, #22960	; 0x59b0
 80014d8:	f2c2 0200 	movt	r2, #8192	; 0x2000
 80014dc:	f240 2340 	movw	r3, #576	; 0x240
 80014e0:	f2c2 0300 	movt	r3, #8192	; 0x2000
 80014e4:	6b92      	ldr	r2, [r2, #56]	; 0x38
 80014e6:	2000      	movs	r0, #0
 80014e8:	2119      	movs	r1, #25
 80014ea:	6018      	str	r0, [r3, #0]
 80014ec:	6021      	str	r1, [r4, #0]
 80014ee:	b10a      	cbz	r2, 80014f4 <ResetInverterNight+0x138>
 80014f0:	2302      	movs	r3, #2
 80014f2:	6023      	str	r3, [r4, #0]
 80014f4:	f645 2308 	movw	r3, #23048	; 0x5a08
 80014f8:	f2c2 0300 	movt	r3, #8192	; 0x2000
 80014fc:	f246 2168 	movw	r1, #25192	; 0x6268
 8001500:	6e5a      	ldr	r2, [r3, #100]	; 0x64
 8001502:	2400      	movs	r4, #0
 8001504:	1c55      	adds	r5, r2, #1
 8001506:	a808      	add	r0, sp, #32
 8001508:	f2c2 0100 	movt	r1, #8192	; 0x2000
 800150c:	224c      	movs	r2, #76	; 0x4c
 800150e:	2660      	movs	r6, #96	; 0x60
 8001510:	27c8      	movs	r7, #200	; 0xc8
 8001512:	665d      	str	r5, [r3, #100]	; 0x64
 8001514:	f008 fcc3 	bl	8009e9e <memcpy>
 8001518:	4622      	mov	r2, r4
 800151a:	e9cd 6700 	strd	r6, r7, [sp]
 800151e:	4669      	mov	r1, sp
 8001520:	2600      	movs	r6, #0
 8001522:	2700      	movs	r7, #0
 8001524:	a808      	add	r0, sp, #32
 8001526:	e9cd 6702 	strd	r6, r7, [sp, #8]
 800152a:	e9cd 6704 	strd	r6, r7, [sp, #16]
 800152e:	9406      	str	r4, [sp, #24]
 8001530:	f004 ff4a 	bl	80063c8 <HAL_TIM_PWM_ConfigChannel>
 8001534:	4621      	mov	r1, r4
 8001536:	a808      	add	r0, sp, #32
 8001538:	f004 fe6e 	bl	8006218 <HAL_TIM_PWM_Start>
 800153c:	f246 2068 	movw	r0, #25192	; 0x6268
 8001540:	4621      	mov	r1, r4
 8001542:	f2c2 0000 	movt	r0, #8192	; 0x2000
 8001546:	f004 fe67 	bl	8006218 <HAL_TIM_PWM_Start>
 800154a:	f44f 6080 	mov.w	r0, #1024	; 0x400
 800154e:	2302      	movs	r3, #2
 8001550:	a908      	add	r1, sp, #32
 8001552:	f6c4 0000 	movt	r0, #18432	; 0x4800
 8001556:	f44f 7600 	mov.w	r6, #512	; 0x200
 800155a:	2700      	movs	r7, #0
 800155c:	e9cd 440b 	strd	r4, r4, [sp, #44]	; 0x2c
 8001560:	e9cd 6708 	strd	r6, r7, [sp, #32]
 8001564:	930a      	str	r3, [sp, #40]	; 0x28
 8001566:	f003 fc3b 	bl	8004de0 <HAL_GPIO_Init>
 800156a:	b01d      	add	sp, #116	; 0x74
 800156c:	e8bd 83f0 	ldmia.w	sp!, {r4, r5, r6, r7, r8, r9, pc}
 8001570:	f645 1390 	movw	r3, #22928	; 0x5990
 8001574:	f2c2 0300 	movt	r3, #8192	; 0x2000
 8001578:	f243 02d3 	movw	r2, #12499	; 0x30d3
 800157c:	681b      	ldr	r3, [r3, #0]
 800157e:	4293      	cmp	r3, r2
 8001580:	d81b      	bhi.n	80015ba <ResetInverterNight+0x1fe>
 8001582:	f240 0300 	movw	r3, #0
 8001586:	f2c2 0300 	movt	r3, #8192	; 0x2000
 800158a:	2222      	movs	r2, #34	; 0x22
 800158c:	601a      	str	r2, [r3, #0]
 800158e:	e737      	b.n	8001400 <ResetInverterNight+0x44>
 8001590:	f645 10b0 	movw	r0, #22960	; 0x59b0
 8001594:	f246 124c 	movw	r2, #24908	; 0x614c
 8001598:	f240 0300 	movw	r3, #0
 800159c:	f2c2 0000 	movt	r0, #8192	; 0x2000
 80015a0:	f2c2 0200 	movt	r2, #8192	; 0x2000
 80015a4:	f2c2 0300 	movt	r3, #8192	; 0x2000
 80015a8:	2100      	movs	r1, #0
 80015aa:	2523      	movs	r5, #35	; 0x23
 80015ac:	6381      	str	r1, [r0, #56]	; 0x38
 80015ae:	6021      	str	r1, [r4, #0]
 80015b0:	6011      	str	r1, [r2, #0]
 80015b2:	601d      	str	r5, [r3, #0]
 80015b4:	b01d      	add	sp, #116	; 0x74
 80015b6:	e8bd 83f0 	ldmia.w	sp!, {r4, r5, r6, r7, r8, r9, pc}
 80015ba:	f244 6250 	movw	r2, #18000	; 0x4650
 80015be:	4293      	cmp	r3, r2
 80015c0:	d81a      	bhi.n	80015f8 <ResetInverterNight+0x23c>
 80015c2:	f240 0300 	movw	r3, #0
 80015c6:	f2c2 0300 	movt	r3, #8192	; 0x2000
 80015ca:	681a      	ldr	r2, [r3, #0]
 80015cc:	2a00      	cmp	r2, #0
 80015ce:	f43f af71 	beq.w	80014b4 <ResetInverterNight+0xf8>
 80015d2:	3a01      	subs	r2, #1
 80015d4:	601a      	str	r2, [r3, #0]
 80015d6:	2a00      	cmp	r2, #0
 80015d8:	f47f af12 	bne.w	8001400 <ResetInverterNight+0x44>
 80015dc:	e76a      	b.n	80014b4 <ResetInverterNight+0xf8>
 80015de:	2200      	movs	r2, #0
 80015e0:	2180      	movs	r1, #128	; 0x80
 80015e2:	f04f 4090 	mov.w	r0, #1207959552	; 0x48000000
 80015e6:	f003 fd05 	bl	8004ff4 <HAL_GPIO_WritePin>
 80015ea:	f240 2340 	movw	r3, #576	; 0x240
 80015ee:	f2c2 0300 	movt	r3, #8192	; 0x2000
 80015f2:	2201      	movs	r2, #1
 80015f4:	601a      	str	r2, [r3, #0]
 80015f6:	e71a      	b.n	800142e <ResetInverterNight+0x72>
 80015f8:	f240 0200 	movw	r2, #0
 80015fc:	f645 13b0 	movw	r3, #22960	; 0x59b0
 8001600:	f2c2 0200 	movt	r2, #8192	; 0x2000
 8001604:	f2c2 0300 	movt	r3, #8192	; 0x2000
 8001608:	2000      	movs	r0, #0
 800160a:	2101      	movs	r1, #1
 800160c:	6010      	str	r0, [r2, #0]
 800160e:	6399      	str	r1, [r3, #56]	; 0x38
 8001610:	e750      	b.n	80014b4 <ResetInverterNight+0xf8>
 8001612:	f246 134c 	movw	r3, #24908	; 0x614c
 8001616:	f2c2 0300 	movt	r3, #8192	; 0x2000
 800161a:	2200      	movs	r2, #0
 800161c:	601a      	str	r2, [r3, #0]
 800161e:	6022      	str	r2, [r4, #0]
 8001620:	e6ee      	b.n	8001400 <ResetInverterNight+0x44>
 8001622:	bf00      	nop

08001624 <LedStatusShow>:
 8001624:	b538      	push	{r3, r4, r5, lr}
 8001626:	f645 14ac 	movw	r4, #22956	; 0x59ac
 800162a:	f2c2 0400 	movt	r4, #8192	; 0x2000
 800162e:	6823      	ldr	r3, [r4, #0]
 8001630:	2b00      	cmp	r3, #0
 8001632:	d144      	bne.n	80016be <LedStatusShow+0x9a>
 8001634:	f645 1590 	movw	r5, #22928	; 0x5990
 8001638:	f2c2 0500 	movt	r5, #8192	; 0x2000
 800163c:	69ab      	ldr	r3, [r5, #24]
 800163e:	2b50      	cmp	r3, #80	; 0x50
 8001640:	d917      	bls.n	8001672 <LedStatusShow+0x4e>
 8001642:	f44f 6080 	mov.w	r0, #1024	; 0x400
 8001646:	f6c4 0000 	movt	r0, #18432	; 0x4800
 800164a:	2201      	movs	r2, #1
 800164c:	f44f 4100 	mov.w	r1, #32768	; 0x8000
 8001650:	f003 fcd0 	bl	8004ff4 <HAL_GPIO_WritePin>
 8001654:	696b      	ldr	r3, [r5, #20]
 8001656:	2b50      	cmp	r3, #80	; 0x50
 8001658:	d859      	bhi.n	800170e <LedStatusShow+0xea>
 800165a:	f44f 6080 	mov.w	r0, #1024	; 0x400
 800165e:	f6c4 0000 	movt	r0, #18432	; 0x4800
 8001662:	2201      	movs	r2, #1
 8001664:	f44f 5100 	mov.w	r1, #8192	; 0x2000
 8001668:	f003 fcc4 	bl	8004ff4 <HAL_GPIO_WritePin>
 800166c:	2301      	movs	r3, #1
 800166e:	6023      	str	r3, [r4, #0]
 8001670:	bd38      	pop	{r3, r4, r5, pc}
 8001672:	696b      	ldr	r3, [r5, #20]
 8001674:	2b50      	cmp	r3, #80	; 0x50
 8001676:	d84a      	bhi.n	800170e <LedStatusShow+0xea>
 8001678:	f645 13b0 	movw	r3, #22960	; 0x59b0
 800167c:	f2c2 0300 	movt	r3, #8192	; 0x2000
 8001680:	6a1a      	ldr	r2, [r3, #32]
 8001682:	2a00      	cmp	r2, #0
 8001684:	d14d      	bne.n	8001722 <LedStatusShow+0xfe>
 8001686:	691a      	ldr	r2, [r3, #16]
 8001688:	2a00      	cmp	r2, #0
 800168a:	d15f      	bne.n	800174c <LedStatusShow+0x128>
 800168c:	68da      	ldr	r2, [r3, #12]
 800168e:	2a00      	cmp	r2, #0
 8001690:	d168      	bne.n	8001764 <LedStatusShow+0x140>
 8001692:	689a      	ldr	r2, [r3, #8]
 8001694:	2a00      	cmp	r2, #0
 8001696:	d17d      	bne.n	8001794 <LedStatusShow+0x170>
 8001698:	e9d3 2100 	ldrd	r2, r1, [r3]
 800169c:	430a      	orrs	r2, r1
 800169e:	d155      	bne.n	800174c <LedStatusShow+0x128>
 80016a0:	69db      	ldr	r3, [r3, #28]
 80016a2:	2b00      	cmp	r3, #0
 80016a4:	d0e4      	beq.n	8001670 <LedStatusShow+0x4c>
 80016a6:	f44f 6080 	mov.w	r0, #1024	; 0x400
 80016aa:	f6c4 0000 	movt	r0, #18432	; 0x4800
 80016ae:	2201      	movs	r2, #1
 80016b0:	f44f 4180 	mov.w	r1, #16384	; 0x4000
 80016b4:	f003 fc9e 	bl	8004ff4 <HAL_GPIO_WritePin>
 80016b8:	2309      	movs	r3, #9
 80016ba:	6023      	str	r3, [r4, #0]
 80016bc:	bd38      	pop	{r3, r4, r5, pc}
 80016be:	f44f 6080 	mov.w	r0, #1024	; 0x400
 80016c2:	3b01      	subs	r3, #1
 80016c4:	f6c4 0000 	movt	r0, #18432	; 0x4800
 80016c8:	2200      	movs	r2, #0
 80016ca:	f44f 4100 	mov.w	r1, #32768	; 0x8000
 80016ce:	6023      	str	r3, [r4, #0]
 80016d0:	f003 fc90 	bl	8004ff4 <HAL_GPIO_WritePin>
 80016d4:	f44f 6080 	mov.w	r0, #1024	; 0x400
 80016d8:	f6c4 0000 	movt	r0, #18432	; 0x4800
 80016dc:	2200      	movs	r2, #0
 80016de:	f44f 4180 	mov.w	r1, #16384	; 0x4000
 80016e2:	f003 fc87 	bl	8004ff4 <HAL_GPIO_WritePin>
 80016e6:	f44f 6080 	mov.w	r0, #1024	; 0x400
 80016ea:	f6c4 0000 	movt	r0, #18432	; 0x4800
 80016ee:	2200      	movs	r2, #0
 80016f0:	f44f 5100 	mov.w	r1, #8192	; 0x2000
 80016f4:	f003 fc7e 	bl	8004ff4 <HAL_GPIO_WritePin>
 80016f8:	f44f 6080 	mov.w	r0, #1024	; 0x400
 80016fc:	e8bd 4038 	ldmia.w	sp!, {r3, r4, r5, lr}
 8001700:	f6c4 0000 	movt	r0, #18432	; 0x4800
 8001704:	2200      	movs	r2, #0
 8001706:	f44f 5180 	mov.w	r1, #4096	; 0x1000
 800170a:	f003 bc73 	b.w	8004ff4 <HAL_GPIO_WritePin>
 800170e:	f44f 6080 	mov.w	r0, #1024	; 0x400
 8001712:	f6c4 0000 	movt	r0, #18432	; 0x4800
 8001716:	2201      	movs	r2, #1
 8001718:	f44f 4180 	mov.w	r1, #16384	; 0x4000
 800171c:	f003 fc6a 	bl	8004ff4 <HAL_GPIO_WritePin>
 8001720:	e79b      	b.n	800165a <LedStatusShow+0x36>
 8001722:	f44f 6080 	mov.w	r0, #1024	; 0x400
 8001726:	f6c4 0000 	movt	r0, #18432	; 0x4800
 800172a:	2201      	movs	r2, #1
 800172c:	f44f 4100 	mov.w	r1, #32768	; 0x8000
 8001730:	f003 fc60 	bl	8004ff4 <HAL_GPIO_WritePin>
 8001734:	f44f 6080 	mov.w	r0, #1024	; 0x400
 8001738:	f6c4 0000 	movt	r0, #18432	; 0x4800
 800173c:	2201      	movs	r2, #1
 800173e:	f44f 4180 	mov.w	r1, #16384	; 0x4000
 8001742:	f003 fc57 	bl	8004ff4 <HAL_GPIO_WritePin>
 8001746:	2301      	movs	r3, #1
 8001748:	6023      	str	r3, [r4, #0]
 800174a:	bd38      	pop	{r3, r4, r5, pc}
 800174c:	f44f 6080 	mov.w	r0, #1024	; 0x400
 8001750:	f6c4 0000 	movt	r0, #18432	; 0x4800
 8001754:	2201      	movs	r2, #1
 8001756:	f44f 4100 	mov.w	r1, #32768	; 0x8000
 800175a:	f003 fc4b 	bl	8004ff4 <HAL_GPIO_WritePin>
 800175e:	2301      	movs	r3, #1
 8001760:	6023      	str	r3, [r4, #0]
 8001762:	bd38      	pop	{r3, r4, r5, pc}
 8001764:	f240 2340 	movw	r3, #576	; 0x240
 8001768:	f2c2 0300 	movt	r3, #8192	; 0x2000
 800176c:	f44f 6080 	mov.w	r0, #1024	; 0x400
 8001770:	681b      	ldr	r3, [r3, #0]
 8001772:	f6c4 0000 	movt	r0, #18432	; 0x4800
 8001776:	2201      	movs	r2, #1
 8001778:	f44f 4180 	mov.w	r1, #16384	; 0x4000
 800177c:	b12b      	cbz	r3, 800178a <LedStatusShow+0x166>
 800177e:	f240 2338 	movw	r3, #568	; 0x238
 8001782:	f2c2 0300 	movt	r3, #8192	; 0x2000
 8001786:	681b      	ldr	r3, [r3, #0]
 8001788:	b983      	cbnz	r3, 80017ac <LedStatusShow+0x188>
 800178a:	f003 fc33 	bl	8004ff4 <HAL_GPIO_WritePin>
 800178e:	2303      	movs	r3, #3
 8001790:	6023      	str	r3, [r4, #0]
 8001792:	bd38      	pop	{r3, r4, r5, pc}
 8001794:	f44f 6080 	mov.w	r0, #1024	; 0x400
 8001798:	f6c4 0000 	movt	r0, #18432	; 0x4800
 800179c:	2201      	movs	r2, #1
 800179e:	f44f 4100 	mov.w	r1, #32768	; 0x8000
 80017a2:	f003 fc27 	bl	8004ff4 <HAL_GPIO_WritePin>
 80017a6:	2309      	movs	r3, #9
 80017a8:	6023      	str	r3, [r4, #0]
 80017aa:	bd38      	pop	{r3, r4, r5, pc}
 80017ac:	f003 fc22 	bl	8004ff4 <HAL_GPIO_WritePin>
 80017b0:	2301      	movs	r3, #1
 80017b2:	6023      	str	r3, [r4, #0]
 80017b4:	bd38      	pop	{r3, r4, r5, pc}
 80017b6:	bf00      	nop

080017b8 <RestoreStatisticsFromFLASH>:
 80017b8:	b580      	push	{r7, lr}
 80017ba:	b084      	sub	sp, #16
 80017bc:	af00      	add	r7, sp, #0
 80017be:	2300      	movs	r3, #0
 80017c0:	60bb      	str	r3, [r7, #8]
 80017c2:	2300      	movs	r3, #0
 80017c4:	607b      	str	r3, [r7, #4]
 80017c6:	f246 1348 	movw	r3, #24904	; 0x6148
 80017ca:	f2c2 0300 	movt	r3, #8192	; 0x2000
 80017ce:	2200      	movs	r2, #0
 80017d0:	601a      	str	r2, [r3, #0]
 80017d2:	2300      	movs	r3, #0
 80017d4:	60fb      	str	r3, [r7, #12]
 80017d6:	e03b      	b.n	8001850 <RestoreStatisticsFromFLASH+0x98>
 80017d8:	2304      	movs	r3, #4
 80017da:	603b      	str	r3, [r7, #0]
 80017dc:	e010      	b.n	8001800 <RestoreStatisticsFromFLASH+0x48>
 80017de:	683b      	ldr	r3, [r7, #0]
 80017e0:	3b01      	subs	r3, #1
 80017e2:	603b      	str	r3, [r7, #0]
 80017e4:	68bb      	ldr	r3, [r7, #8]
 80017e6:	021a      	lsls	r2, r3, #8
 80017e8:	f244 0300 	movw	r3, #16384	; 0x4000
 80017ec:	f6c0 0301 	movt	r3, #2049	; 0x801
 80017f0:	68f9      	ldr	r1, [r7, #12]
 80017f2:	02c9      	lsls	r1, r1, #11
 80017f4:	4419      	add	r1, r3
 80017f6:	683b      	ldr	r3, [r7, #0]
 80017f8:	440b      	add	r3, r1
 80017fa:	781b      	ldrb	r3, [r3, #0]
 80017fc:	4313      	orrs	r3, r2
 80017fe:	60bb      	str	r3, [r7, #8]
 8001800:	683b      	ldr	r3, [r7, #0]
 8001802:	2b00      	cmp	r3, #0
 8001804:	d1eb      	bne.n	80017de <RestoreStatisticsFromFLASH+0x26>
 8001806:	68bb      	ldr	r3, [r7, #8]
 8001808:	f1b3 3fff 	cmp.w	r3, #4294967295
 800180c:	d101      	bne.n	8001812 <RestoreStatisticsFromFLASH+0x5a>
 800180e:	2300      	movs	r3, #0
 8001810:	60bb      	str	r3, [r7, #8]
 8001812:	68ba      	ldr	r2, [r7, #8]
 8001814:	687b      	ldr	r3, [r7, #4]
 8001816:	429a      	cmp	r2, r3
 8001818:	d90f      	bls.n	800183a <RestoreStatisticsFromFLASH+0x82>
 800181a:	f246 1348 	movw	r3, #24904	; 0x6148
 800181e:	f2c2 0300 	movt	r3, #8192	; 0x2000
 8001822:	68fa      	ldr	r2, [r7, #12]
 8001824:	601a      	str	r2, [r3, #0]
 8001826:	68bb      	ldr	r3, [r7, #8]
 8001828:	607b      	str	r3, [r7, #4]
 800182a:	f44f 5100 	mov.w	r1, #8192	; 0x2000
 800182e:	f44f 6080 	mov.w	r0, #1024	; 0x400
 8001832:	f6c4 0000 	movt	r0, #18432	; 0x4800
 8001836:	f003 fbe3 	bl	8005000 <HAL_GPIO_TogglePin>
 800183a:	f44f 4180 	mov.w	r1, #16384	; 0x4000
 800183e:	f44f 6080 	mov.w	r0, #1024	; 0x400
 8001842:	f6c4 0000 	movt	r0, #18432	; 0x4800
 8001846:	f003 fbdb 	bl	8005000 <HAL_GPIO_TogglePin>
 800184a:	68fb      	ldr	r3, [r7, #12]
 800184c:	3301      	adds	r3, #1
 800184e:	60fb      	str	r3, [r7, #12]
 8001850:	68fb      	ldr	r3, [r7, #12]
 8001852:	2b3f      	cmp	r3, #63	; 0x3f
 8001854:	d9c0      	bls.n	80017d8 <RestoreStatisticsFromFLASH+0x20>
 8001856:	2200      	movs	r2, #0
 8001858:	f44f 4180 	mov.w	r1, #16384	; 0x4000
 800185c:	f44f 6080 	mov.w	r0, #1024	; 0x400
 8001860:	f6c4 0000 	movt	r0, #18432	; 0x4800
 8001864:	f003 fbc6 	bl	8004ff4 <HAL_GPIO_WritePin>
 8001868:	2200      	movs	r2, #0
 800186a:	f44f 5100 	mov.w	r1, #8192	; 0x2000
 800186e:	f44f 6080 	mov.w	r0, #1024	; 0x400
 8001872:	f6c4 0000 	movt	r0, #18432	; 0x4800
 8001876:	f003 fbbd 	bl	8004ff4 <HAL_GPIO_WritePin>
 800187a:	2300      	movs	r3, #0
 800187c:	60fb      	str	r3, [r7, #12]
 800187e:	e017      	b.n	80018b0 <RestoreStatisticsFromFLASH+0xf8>
 8001880:	f246 1348 	movw	r3, #24904	; 0x6148
 8001884:	f2c2 0300 	movt	r3, #8192	; 0x2000
 8001888:	6819      	ldr	r1, [r3, #0]
 800188a:	68fa      	ldr	r2, [r7, #12]
 800188c:	f246 13b8 	movw	r3, #25016	; 0x61b8
 8001890:	f2c2 0300 	movt	r3, #8192	; 0x2000
 8001894:	441a      	add	r2, r3
 8001896:	f244 0300 	movw	r3, #16384	; 0x4000
 800189a:	f6c0 0301 	movt	r3, #2049	; 0x801
 800189e:	02c9      	lsls	r1, r1, #11
 80018a0:	4419      	add	r1, r3
 80018a2:	68fb      	ldr	r3, [r7, #12]
 80018a4:	440b      	add	r3, r1
 80018a6:	781b      	ldrb	r3, [r3, #0]
 80018a8:	7013      	strb	r3, [r2, #0]
 80018aa:	68fb      	ldr	r3, [r7, #12]
 80018ac:	3301      	adds	r3, #1
 80018ae:	60fb      	str	r3, [r7, #12]
 80018b0:	68fb      	ldr	r3, [r7, #12]
 80018b2:	2baf      	cmp	r3, #175	; 0xaf
 80018b4:	d9e4      	bls.n	8001880 <RestoreStatisticsFromFLASH+0xc8>
 80018b6:	f246 13b8 	movw	r3, #25016	; 0x61b8
 80018ba:	f2c2 0300 	movt	r3, #8192	; 0x2000
 80018be:	69db      	ldr	r3, [r3, #28]
 80018c0:	f1b3 3fff 	cmp.w	r3, #4294967295
 80018c4:	d119      	bne.n	80018fa <RestoreStatisticsFromFLASH+0x142>
 80018c6:	2300      	movs	r3, #0
 80018c8:	60fb      	str	r3, [r7, #12]
 80018ca:	e012      	b.n	80018f2 <RestoreStatisticsFromFLASH+0x13a>
 80018cc:	68fa      	ldr	r2, [r7, #12]
 80018ce:	f645 2308 	movw	r3, #23048	; 0x5a08
 80018d2:	f2c2 0300 	movt	r3, #8192	; 0x2000
 80018d6:	4413      	add	r3, r2
 80018d8:	2200      	movs	r2, #0
 80018da:	701a      	strb	r2, [r3, #0]
 80018dc:	68fa      	ldr	r2, [r7, #12]
 80018de:	f246 13b8 	movw	r3, #25016	; 0x61b8
 80018e2:	f2c2 0300 	movt	r3, #8192	; 0x2000
 80018e6:	4413      	add	r3, r2
 80018e8:	2200      	movs	r2, #0
 80018ea:	701a      	strb	r2, [r3, #0]
 80018ec:	68fb      	ldr	r3, [r7, #12]
 80018ee:	3301      	adds	r3, #1
 80018f0:	60fb      	str	r3, [r7, #12]
 80018f2:	68fb      	ldr	r3, [r7, #12]
 80018f4:	2baf      	cmp	r3, #175	; 0xaf
 80018f6:	d9e9      	bls.n	80018cc <RestoreStatisticsFromFLASH+0x114>
 80018f8:	e00d      	b.n	8001916 <RestoreStatisticsFromFLASH+0x15e>
 80018fa:	f645 2208 	movw	r2, #23048	; 0x5a08
 80018fe:	f2c2 0200 	movt	r2, #8192	; 0x2000
 8001902:	f246 13b8 	movw	r3, #25016	; 0x61b8
 8001906:	f2c2 0300 	movt	r3, #8192	; 0x2000
 800190a:	4610      	mov	r0, r2
 800190c:	4619      	mov	r1, r3
 800190e:	23b0      	movs	r3, #176	; 0xb0
 8001910:	461a      	mov	r2, r3
 8001912:	f008 fac4 	bl	8009e9e <memcpy>
 8001916:	bf00      	nop
 8001918:	3710      	adds	r7, #16
 800191a:	46bd      	mov	sp, r7
 800191c:	bd80      	pop	{r7, pc}
 800191e:	bf00      	nop

08001920 <StoreStatistics2FLASH>:
 8001920:	b580      	push	{r7, lr}
 8001922:	b088      	sub	sp, #32
 8001924:	af00      	add	r7, sp, #0
 8001926:	2300      	movs	r3, #0
 8001928:	61fb      	str	r3, [r7, #28]
 800192a:	2300      	movs	r3, #0
 800192c:	61bb      	str	r3, [r7, #24]
 800192e:	f645 5344 	movw	r3, #23876	; 0x5d44
 8001932:	f2c2 0300 	movt	r3, #8192	; 0x2000
 8001936:	681b      	ldr	r3, [r3, #0]
 8001938:	4618      	mov	r0, r3
 800193a:	f005 ff3d 	bl	80077b8 <osTimerStop>
 800193e:	f246 12b8 	movw	r2, #25016	; 0x61b8
 8001942:	f2c2 0200 	movt	r2, #8192	; 0x2000
 8001946:	f645 2308 	movw	r3, #23048	; 0x5a08
 800194a:	f2c2 0300 	movt	r3, #8192	; 0x2000
 800194e:	4610      	mov	r0, r2
 8001950:	4619      	mov	r1, r3
 8001952:	23b0      	movs	r3, #176	; 0xb0
 8001954:	461a      	mov	r2, r3
 8001956:	f008 faa2 	bl	8009e9e <memcpy>
 800195a:	f246 1348 	movw	r3, #24904	; 0x6148
 800195e:	f2c2 0300 	movt	r3, #8192	; 0x2000
 8001962:	681b      	ldr	r3, [r3, #0]
 8001964:	2b3e      	cmp	r3, #62	; 0x3e
 8001966:	d80b      	bhi.n	8001980 <StoreStatistics2FLASH+0x60>
 8001968:	f246 1348 	movw	r3, #24904	; 0x6148
 800196c:	f2c2 0300 	movt	r3, #8192	; 0x2000
 8001970:	681b      	ldr	r3, [r3, #0]
 8001972:	1c5a      	adds	r2, r3, #1
 8001974:	f246 1348 	movw	r3, #24904	; 0x6148
 8001978:	f2c2 0300 	movt	r3, #8192	; 0x2000
 800197c:	601a      	str	r2, [r3, #0]
 800197e:	e005      	b.n	800198c <StoreStatistics2FLASH+0x6c>
 8001980:	f246 1348 	movw	r3, #24904	; 0x6148
 8001984:	f2c2 0300 	movt	r3, #8192	; 0x2000
 8001988:	2200      	movs	r2, #0
 800198a:	601a      	str	r2, [r3, #0]
 800198c:	f645 2308 	movw	r3, #23048	; 0x5a08
 8001990:	f2c2 0300 	movt	r3, #8192	; 0x2000
 8001994:	681b      	ldr	r3, [r3, #0]
 8001996:	1c5a      	adds	r2, r3, #1
 8001998:	f645 2308 	movw	r3, #23048	; 0x5a08
 800199c:	f2c2 0300 	movt	r3, #8192	; 0x2000
 80019a0:	601a      	str	r2, [r3, #0]
 80019a2:	2300      	movs	r3, #0
 80019a4:	607b      	str	r3, [r7, #4]
 80019a6:	2301      	movs	r3, #1
 80019a8:	613b      	str	r3, [r7, #16]
 80019aa:	f246 1348 	movw	r3, #24904	; 0x6148
 80019ae:	f2c2 0300 	movt	r3, #8192	; 0x2000
 80019b2:	681b      	ldr	r3, [r3, #0]
 80019b4:	3340      	adds	r3, #64	; 0x40
 80019b6:	60fb      	str	r3, [r7, #12]
 80019b8:	2301      	movs	r3, #1
 80019ba:	60bb      	str	r3, [r7, #8]
 80019bc:	f003 f8b0 	bl	8004b20 <HAL_FLASH_Unlock>
 80019c0:	f44f 5300 	mov.w	r3, #8192	; 0x2000
 80019c4:	f2c4 0302 	movt	r3, #16386	; 0x4002
 80019c8:	22b3      	movs	r2, #179	; 0xb3
 80019ca:	611a      	str	r2, [r3, #16]
 80019cc:	f107 0214 	add.w	r2, r7, #20
 80019d0:	1d3b      	adds	r3, r7, #4
 80019d2:	4611      	mov	r1, r2
 80019d4:	4618      	mov	r0, r3
 80019d6:	f003 f903 	bl	8004be0 <HAL_FLASHEx_Erase>
 80019da:	f003 f8b7 	bl	8004b4c <HAL_FLASH_Lock>
 80019de:	f003 f89f 	bl	8004b20 <HAL_FLASH_Unlock>
 80019e2:	f44f 5300 	mov.w	r3, #8192	; 0x2000
 80019e6:	f2c4 0302 	movt	r3, #16386	; 0x4002
 80019ea:	22b3      	movs	r2, #179	; 0xb3
 80019ec:	611a      	str	r2, [r3, #16]
 80019ee:	e02f      	b.n	8001a50 <StoreStatistics2FLASH+0x130>
 80019f0:	f246 1348 	movw	r3, #24904	; 0x6148
 80019f4:	f2c2 0300 	movt	r3, #8192	; 0x2000
 80019f8:	681b      	ldr	r3, [r3, #0]
 80019fa:	02da      	lsls	r2, r3, #11
 80019fc:	69bb      	ldr	r3, [r7, #24]
 80019fe:	441a      	add	r2, r3
 8001a00:	f244 0300 	movw	r3, #16384	; 0x4000
 8001a04:	f6c0 0301 	movt	r3, #2049	; 0x801
 8001a08:	4413      	add	r3, r2
 8001a0a:	4619      	mov	r1, r3
 8001a0c:	69fb      	ldr	r3, [r7, #28]
 8001a0e:	00da      	lsls	r2, r3, #3
 8001a10:	f246 13b8 	movw	r3, #25016	; 0x61b8
 8001a14:	f2c2 0300 	movt	r3, #8192	; 0x2000
 8001a18:	4413      	add	r3, r2
 8001a1a:	e9d3 2300 	ldrd	r2, r3, [r3]
 8001a1e:	2000      	movs	r0, #0
 8001a20:	f002 ffbc 	bl	800499c <HAL_FLASH_Program>
 8001a24:	4603      	mov	r3, r0
 8001a26:	2b00      	cmp	r3, #0
 8001a28:	d106      	bne.n	8001a38 <StoreStatistics2FLASH+0x118>
 8001a2a:	69bb      	ldr	r3, [r7, #24]
 8001a2c:	3308      	adds	r3, #8
 8001a2e:	61bb      	str	r3, [r7, #24]
 8001a30:	69fb      	ldr	r3, [r7, #28]
 8001a32:	3301      	adds	r3, #1
 8001a34:	61fb      	str	r3, [r7, #28]
 8001a36:	e00b      	b.n	8001a50 <StoreStatistics2FLASH+0x130>
 8001a38:	f645 5344 	movw	r3, #23876	; 0x5d44
 8001a3c:	f2c2 0300 	movt	r3, #8192	; 0x2000
 8001a40:	681b      	ldr	r3, [r3, #0]
 8001a42:	2164      	movs	r1, #100	; 0x64
 8001a44:	4618      	mov	r0, r3
 8001a46:	f005 fe9f 	bl	8007788 <osTimerStart>
 8001a4a:	f003 f889 	bl	8004b60 <HAL_FLASH_GetError>
 8001a4e:	e00d      	b.n	8001a6c <StoreStatistics2FLASH+0x14c>
 8001a50:	69fb      	ldr	r3, [r7, #28]
 8001a52:	2b15      	cmp	r3, #21
 8001a54:	d9cc      	bls.n	80019f0 <StoreStatistics2FLASH+0xd0>
 8001a56:	f003 f879 	bl	8004b4c <HAL_FLASH_Lock>
 8001a5a:	f645 5344 	movw	r3, #23876	; 0x5d44
 8001a5e:	f2c2 0300 	movt	r3, #8192	; 0x2000
 8001a62:	681b      	ldr	r3, [r3, #0]
 8001a64:	2164      	movs	r1, #100	; 0x64
 8001a66:	4618      	mov	r0, r3
 8001a68:	f005 fe8e 	bl	8007788 <osTimerStart>
 8001a6c:	3720      	adds	r7, #32
 8001a6e:	46bd      	mov	sp, r7
 8001a70:	bd80      	pop	{r7, pc}
 8001a72:	bf00      	nop

08001a74 <DeleteStatistics2FLASH>:
 8001a74:	b530      	push	{r4, r5, lr}
 8001a76:	f645 5544 	movw	r5, #23876	; 0x5d44
 8001a7a:	f2c2 0500 	movt	r5, #8192	; 0x2000
 8001a7e:	b087      	sub	sp, #28
 8001a80:	6828      	ldr	r0, [r5, #0]
 8001a82:	f005 fe99 	bl	80077b8 <osTimerStop>
 8001a86:	f645 2008 	movw	r0, #23048	; 0x5a08
 8001a8a:	22b0      	movs	r2, #176	; 0xb0
 8001a8c:	2100      	movs	r1, #0
 8001a8e:	f2c2 0000 	movt	r0, #8192	; 0x2000
 8001a92:	f008 fa12 	bl	8009eba <memset>
 8001a96:	f246 1448 	movw	r4, #24904	; 0x6148
 8001a9a:	f246 10b8 	movw	r0, #25016	; 0x61b8
 8001a9e:	22b0      	movs	r2, #176	; 0xb0
 8001aa0:	2100      	movs	r1, #0
 8001aa2:	f2c2 0400 	movt	r4, #8192	; 0x2000
 8001aa6:	f2c2 0000 	movt	r0, #8192	; 0x2000
 8001aaa:	f008 fa06 	bl	8009eba <memset>
 8001aae:	2300      	movs	r3, #0
 8001ab0:	2240      	movs	r2, #64	; 0x40
 8001ab2:	2000      	movs	r0, #0
 8001ab4:	2101      	movs	r1, #1
 8001ab6:	6023      	str	r3, [r4, #0]
 8001ab8:	2301      	movs	r3, #1
 8001aba:	e9cd 2304 	strd	r2, r3, [sp, #16]
 8001abe:	e9cd 0102 	strd	r0, r1, [sp, #8]
 8001ac2:	f003 f82d 	bl	8004b20 <HAL_FLASH_Unlock>
 8001ac6:	f44f 5300 	mov.w	r3, #8192	; 0x2000
 8001aca:	f2c4 0302 	movt	r3, #16386	; 0x4002
 8001ace:	22b3      	movs	r2, #179	; 0xb3
 8001ad0:	611a      	str	r2, [r3, #16]
 8001ad2:	6823      	ldr	r3, [r4, #0]
 8001ad4:	2b3e      	cmp	r3, #62	; 0x3e
 8001ad6:	d80b      	bhi.n	8001af0 <DeleteStatistics2FLASH+0x7c>
 8001ad8:	a901      	add	r1, sp, #4
 8001ada:	a802      	add	r0, sp, #8
 8001adc:	f003 f880 	bl	8004be0 <HAL_FLASHEx_Erase>
 8001ae0:	6823      	ldr	r3, [r4, #0]
 8001ae2:	1c5a      	adds	r2, r3, #1
 8001ae4:	2a3e      	cmp	r2, #62	; 0x3e
 8001ae6:	f103 0341 	add.w	r3, r3, #65	; 0x41
 8001aea:	6022      	str	r2, [r4, #0]
 8001aec:	9304      	str	r3, [sp, #16]
 8001aee:	d9f3      	bls.n	8001ad8 <DeleteStatistics2FLASH+0x64>
 8001af0:	f003 f82c 	bl	8004b4c <HAL_FLASH_Lock>
 8001af4:	2300      	movs	r3, #0
 8001af6:	6828      	ldr	r0, [r5, #0]
 8001af8:	6023      	str	r3, [r4, #0]
 8001afa:	2164      	movs	r1, #100	; 0x64
 8001afc:	f005 fe44 	bl	8007788 <osTimerStart>
 8001b00:	b007      	add	sp, #28
 8001b02:	bd30      	pop	{r4, r5, pc}

08001b04 <Calculate_WattSeconds>:
 8001b04:	f645 13b0 	movw	r3, #22960	; 0x59b0
 8001b08:	f2c2 0300 	movt	r3, #8192	; 0x2000
 8001b0c:	b4f0      	push	{r4, r5, r6, r7}
 8001b0e:	681a      	ldr	r2, [r3, #0]
 8001b10:	2a00      	cmp	r2, #0
 8001b12:	f040 80d2 	bne.w	8001cba <Calculate_WattSeconds+0x1b6>
 8001b16:	f645 1290 	movw	r2, #22928	; 0x5990
 8001b1a:	f2c2 0200 	movt	r2, #8192	; 0x2000
 8001b1e:	68d1      	ldr	r1, [r2, #12]
 8001b20:	6850      	ldr	r0, [r2, #4]
 8001b22:	685c      	ldr	r4, [r3, #4]
 8001b24:	b18c      	cbz	r4, 8001b4a <Calculate_WattSeconds+0x46>
 8001b26:	f645 4434 	movw	r4, #23604	; 0x5c34
 8001b2a:	f2c2 0400 	movt	r4, #8192	; 0x2000
 8001b2e:	f241 7759 	movw	r7, #5977	; 0x1759
 8001b32:	6865      	ldr	r5, [r4, #4]
 8001b34:	f2cd 17b7 	movt	r7, #53687	; 0xd1b7
 8001b38:	fb01 f600 	mul.w	r6, r1, r0
 8001b3c:	fba7 7606 	umull	r7, r6, r7, r6
 8001b40:	eb05 3556 	add.w	r5, r5, r6, lsr #13
 8001b44:	2600      	movs	r6, #0
 8001b46:	6065      	str	r5, [r4, #4]
 8001b48:	605e      	str	r6, [r3, #4]
 8001b4a:	689c      	ldr	r4, [r3, #8]
 8001b4c:	2c00      	cmp	r4, #0
 8001b4e:	f040 809f 	bne.w	8001c90 <Calculate_WattSeconds+0x18c>
 8001b52:	6814      	ldr	r4, [r2, #0]
 8001b54:	68dd      	ldr	r5, [r3, #12]
 8001b56:	b18d      	cbz	r5, 8001b7c <Calculate_WattSeconds+0x78>
 8001b58:	f645 4534 	movw	r5, #23604	; 0x5c34
 8001b5c:	f2c2 0500 	movt	r5, #8192	; 0x2000
 8001b60:	f241 7c59 	movw	ip, #5977	; 0x1759
 8001b64:	68ee      	ldr	r6, [r5, #12]
 8001b66:	f2cd 1cb7 	movt	ip, #53687	; 0xd1b7
 8001b6a:	fb01 f704 	mul.w	r7, r1, r4
 8001b6e:	fbac c707 	umull	ip, r7, ip, r7
 8001b72:	eb06 3657 	add.w	r6, r6, r7, lsr #13
 8001b76:	2700      	movs	r7, #0
 8001b78:	60ee      	str	r6, [r5, #12]
 8001b7a:	60df      	str	r7, [r3, #12]
 8001b7c:	691d      	ldr	r5, [r3, #16]
 8001b7e:	b18d      	cbz	r5, 8001ba4 <Calculate_WattSeconds+0xa0>
 8001b80:	f645 4534 	movw	r5, #23604	; 0x5c34
 8001b84:	f2c2 0500 	movt	r5, #8192	; 0x2000
 8001b88:	f241 7c59 	movw	ip, #5977	; 0x1759
 8001b8c:	692e      	ldr	r6, [r5, #16]
 8001b8e:	f2cd 1cb7 	movt	ip, #53687	; 0xd1b7
 8001b92:	fb01 f700 	mul.w	r7, r1, r0
 8001b96:	fbac c707 	umull	ip, r7, ip, r7
 8001b9a:	eb06 3657 	add.w	r6, r6, r7, lsr #13
 8001b9e:	2700      	movs	r7, #0
 8001ba0:	612e      	str	r6, [r5, #16]
 8001ba2:	611f      	str	r7, [r3, #16]
 8001ba4:	69dd      	ldr	r5, [r3, #28]
 8001ba6:	b145      	cbz	r5, 8001bba <Calculate_WattSeconds+0xb6>
 8001ba8:	f645 4534 	movw	r5, #23604	; 0x5c34
 8001bac:	f2c2 0500 	movt	r5, #8192	; 0x2000
 8001bb0:	2700      	movs	r7, #0
 8001bb2:	69ee      	ldr	r6, [r5, #28]
 8001bb4:	61df      	str	r7, [r3, #28]
 8001bb6:	3601      	adds	r6, #1
 8001bb8:	61ee      	str	r6, [r5, #28]
 8001bba:	6a1d      	ldr	r5, [r3, #32]
 8001bbc:	b145      	cbz	r5, 8001bd0 <Calculate_WattSeconds+0xcc>
 8001bbe:	f645 4534 	movw	r5, #23604	; 0x5c34
 8001bc2:	f2c2 0500 	movt	r5, #8192	; 0x2000
 8001bc6:	2700      	movs	r7, #0
 8001bc8:	6a2e      	ldr	r6, [r5, #32]
 8001bca:	621f      	str	r7, [r3, #32]
 8001bcc:	3601      	adds	r6, #1
 8001bce:	622e      	str	r6, [r5, #32]
 8001bd0:	699d      	ldr	r5, [r3, #24]
 8001bd2:	b145      	cbz	r5, 8001be6 <Calculate_WattSeconds+0xe2>
 8001bd4:	f645 4534 	movw	r5, #23604	; 0x5c34
 8001bd8:	f2c2 0500 	movt	r5, #8192	; 0x2000
 8001bdc:	2700      	movs	r7, #0
 8001bde:	69ae      	ldr	r6, [r5, #24]
 8001be0:	619f      	str	r7, [r3, #24]
 8001be2:	3601      	adds	r6, #1
 8001be4:	61ae      	str	r6, [r5, #24]
 8001be6:	6bdd      	ldr	r5, [r3, #60]	; 0x3c
 8001be8:	b145      	cbz	r5, 8001bfc <Calculate_WattSeconds+0xf8>
 8001bea:	f645 4534 	movw	r5, #23604	; 0x5c34
 8001bee:	f2c2 0500 	movt	r5, #8192	; 0x2000
 8001bf2:	2700      	movs	r7, #0
 8001bf4:	6bee      	ldr	r6, [r5, #60]	; 0x3c
 8001bf6:	63df      	str	r7, [r3, #60]	; 0x3c
 8001bf8:	3601      	adds	r6, #1
 8001bfa:	63ee      	str	r6, [r5, #60]	; 0x3c
 8001bfc:	6c1d      	ldr	r5, [r3, #64]	; 0x40
 8001bfe:	b145      	cbz	r5, 8001c12 <Calculate_WattSeconds+0x10e>
 8001c00:	f645 4534 	movw	r5, #23604	; 0x5c34
 8001c04:	f2c2 0500 	movt	r5, #8192	; 0x2000
 8001c08:	2700      	movs	r7, #0
 8001c0a:	6c2e      	ldr	r6, [r5, #64]	; 0x40
 8001c0c:	641f      	str	r7, [r3, #64]	; 0x40
 8001c0e:	4406      	add	r6, r0
 8001c10:	642e      	str	r6, [r5, #64]	; 0x40
 8001c12:	6c5d      	ldr	r5, [r3, #68]	; 0x44
 8001c14:	b145      	cbz	r5, 8001c28 <Calculate_WattSeconds+0x124>
 8001c16:	f645 4534 	movw	r5, #23604	; 0x5c34
 8001c1a:	f2c2 0500 	movt	r5, #8192	; 0x2000
 8001c1e:	2700      	movs	r7, #0
 8001c20:	6c6e      	ldr	r6, [r5, #68]	; 0x44
 8001c22:	645f      	str	r7, [r3, #68]	; 0x44
 8001c24:	4426      	add	r6, r4
 8001c26:	646e      	str	r6, [r5, #68]	; 0x44
 8001c28:	f645 2308 	movw	r3, #23048	; 0x5a08
 8001c2c:	f2c2 0300 	movt	r3, #8192	; 0x2000
 8001c30:	6955      	ldr	r5, [r2, #20]
 8001c32:	6b5e      	ldr	r6, [r3, #52]	; 0x34
 8001c34:	42b5      	cmp	r5, r6
 8001c36:	d303      	bcc.n	8001c40 <Calculate_WattSeconds+0x13c>
 8001c38:	6b9e      	ldr	r6, [r3, #56]	; 0x38
 8001c3a:	635d      	str	r5, [r3, #52]	; 0x34
 8001c3c:	3601      	adds	r6, #1
 8001c3e:	639e      	str	r6, [r3, #56]	; 0x38
 8001c40:	6992      	ldr	r2, [r2, #24]
 8001c42:	6bdd      	ldr	r5, [r3, #60]	; 0x3c
 8001c44:	42aa      	cmp	r2, r5
 8001c46:	d303      	bcc.n	8001c50 <Calculate_WattSeconds+0x14c>
 8001c48:	6c1d      	ldr	r5, [r3, #64]	; 0x40
 8001c4a:	63da      	str	r2, [r3, #60]	; 0x3c
 8001c4c:	3501      	adds	r5, #1
 8001c4e:	641d      	str	r5, [r3, #64]	; 0x40
 8001c50:	6c5a      	ldr	r2, [r3, #68]	; 0x44
 8001c52:	42a2      	cmp	r2, r4
 8001c54:	d803      	bhi.n	8001c5e <Calculate_WattSeconds+0x15a>
 8001c56:	6c9a      	ldr	r2, [r3, #72]	; 0x48
 8001c58:	645c      	str	r4, [r3, #68]	; 0x44
 8001c5a:	3201      	adds	r2, #1
 8001c5c:	649a      	str	r2, [r3, #72]	; 0x48
 8001c5e:	6cda      	ldr	r2, [r3, #76]	; 0x4c
 8001c60:	4282      	cmp	r2, r0
 8001c62:	d803      	bhi.n	8001c6c <Calculate_WattSeconds+0x168>
 8001c64:	6d1a      	ldr	r2, [r3, #80]	; 0x50
 8001c66:	64d8      	str	r0, [r3, #76]	; 0x4c
 8001c68:	3201      	adds	r2, #1
 8001c6a:	651a      	str	r2, [r3, #80]	; 0x50
 8001c6c:	6d5a      	ldr	r2, [r3, #84]	; 0x54
 8001c6e:	428a      	cmp	r2, r1
 8001c70:	d803      	bhi.n	8001c7a <Calculate_WattSeconds+0x176>
 8001c72:	6d9a      	ldr	r2, [r3, #88]	; 0x58
 8001c74:	6559      	str	r1, [r3, #84]	; 0x54
 8001c76:	3201      	adds	r2, #1
 8001c78:	659a      	str	r2, [r3, #88]	; 0x58
 8001c7a:	29f0      	cmp	r1, #240	; 0xf0
 8001c7c:	d906      	bls.n	8001c8c <Calculate_WattSeconds+0x188>
 8001c7e:	6dda      	ldr	r2, [r3, #92]	; 0x5c
 8001c80:	2af0      	cmp	r2, #240	; 0xf0
 8001c82:	d833      	bhi.n	8001cec <Calculate_WattSeconds+0x1e8>
 8001c84:	6e1a      	ldr	r2, [r3, #96]	; 0x60
 8001c86:	65d9      	str	r1, [r3, #92]	; 0x5c
 8001c88:	3201      	adds	r2, #1
 8001c8a:	661a      	str	r2, [r3, #96]	; 0x60
 8001c8c:	bcf0      	pop	{r4, r5, r6, r7}
 8001c8e:	4770      	bx	lr
 8001c90:	f645 4734 	movw	r7, #23604	; 0x5c34
 8001c94:	f2c2 0700 	movt	r7, #8192	; 0x2000
 8001c98:	6814      	ldr	r4, [r2, #0]
 8001c9a:	6895      	ldr	r5, [r2, #8]
 8001c9c:	68be      	ldr	r6, [r7, #8]
 8001c9e:	f241 7c59 	movw	ip, #5977	; 0x1759
 8001ca2:	fb05 f504 	mul.w	r5, r5, r4
 8001ca6:	f2cd 1cb7 	movt	ip, #53687	; 0xd1b7
 8001caa:	fbac c505 	umull	ip, r5, ip, r5
 8001cae:	eb06 3555 	add.w	r5, r6, r5, lsr #13
 8001cb2:	2600      	movs	r6, #0
 8001cb4:	60bd      	str	r5, [r7, #8]
 8001cb6:	609e      	str	r6, [r3, #8]
 8001cb8:	e74c      	b.n	8001b54 <Calculate_WattSeconds+0x50>
 8001cba:	f645 1290 	movw	r2, #22928	; 0x5990
 8001cbe:	f2c2 0200 	movt	r2, #8192	; 0x2000
 8001cc2:	f645 4434 	movw	r4, #23604	; 0x5c34
 8001cc6:	f2c2 0400 	movt	r4, #8192	; 0x2000
 8001cca:	68d1      	ldr	r1, [r2, #12]
 8001ccc:	6850      	ldr	r0, [r2, #4]
 8001cce:	6825      	ldr	r5, [r4, #0]
 8001cd0:	f241 7759 	movw	r7, #5977	; 0x1759
 8001cd4:	fb00 f601 	mul.w	r6, r0, r1
 8001cd8:	f2cd 17b7 	movt	r7, #53687	; 0xd1b7
 8001cdc:	fba7 7606 	umull	r7, r6, r7, r6
 8001ce0:	eb05 3556 	add.w	r5, r5, r6, lsr #13
 8001ce4:	2600      	movs	r6, #0
 8001ce6:	6025      	str	r5, [r4, #0]
 8001ce8:	601e      	str	r6, [r3, #0]
 8001cea:	e71a      	b.n	8001b22 <Calculate_WattSeconds+0x1e>
 8001cec:	428a      	cmp	r2, r1
 8001cee:	d3cd      	bcc.n	8001c8c <Calculate_WattSeconds+0x188>
 8001cf0:	6e1a      	ldr	r2, [r3, #96]	; 0x60
 8001cf2:	65d9      	str	r1, [r3, #92]	; 0x5c
 8001cf4:	3201      	adds	r2, #1
 8001cf6:	661a      	str	r2, [r3, #96]	; 0x60
 8001cf8:	e7c8      	b.n	8001c8c <Calculate_WattSeconds+0x188>
 8001cfa:	bf00      	nop

08001cfc <Calculate_WattHours>:
 8001cfc:	f645 4334 	movw	r3, #23604	; 0x5c34
 8001d00:	f2c2 0300 	movt	r3, #8192	; 0x2000
 8001d04:	b5f0      	push	{r4, r5, r6, r7, lr}
 8001d06:	e9d3 0500 	ldrd	r0, r5, [r3]
 8001d0a:	f24b 31c5 	movw	r1, #46021	; 0xb3c5
 8001d0e:	f2c9 11a2 	movt	r1, #37282	; 0x91a2
 8001d12:	f645 2208 	movw	r2, #23048	; 0x5a08
 8001d16:	f2c2 0200 	movt	r2, #8192	; 0x2000
 8001d1a:	fba1 6000 	umull	r6, r0, r1, r0
 8001d1e:	e9d3 4702 	ldrd	r4, r7, [r3, #8]
 8001d22:	0ac0      	lsrs	r0, r0, #11
 8001d24:	fba1 5e05 	umull	r5, lr, r1, r5
 8001d28:	691e      	ldr	r6, [r3, #16]
 8001d2a:	6c1d      	ldr	r5, [r3, #64]	; 0x40
 8001d2c:	6050      	str	r0, [r2, #4]
 8001d2e:	6890      	ldr	r0, [r2, #8]
 8001d30:	fba1 4c04 	umull	r4, ip, r1, r4
 8001d34:	fba1 4707 	umull	r4, r7, r1, r7
 8001d38:	fba1 4606 	umull	r4, r6, r1, r6
 8001d3c:	fba1 4505 	umull	r4, r5, r1, r5
 8001d40:	eb00 24de 	add.w	r4, r0, lr, lsr #11
 8001d44:	6094      	str	r4, [r2, #8]
 8001d46:	6990      	ldr	r0, [r2, #24]
 8001d48:	699c      	ldr	r4, [r3, #24]
 8001d4a:	4420      	add	r0, r4
 8001d4c:	68d4      	ldr	r4, [r2, #12]
 8001d4e:	6190      	str	r0, [r2, #24]
 8001d50:	6c58      	ldr	r0, [r3, #68]	; 0x44
 8001d52:	eb04 24dc 	add.w	r4, r4, ip, lsr #11
 8001d56:	fba1 0100 	umull	r0, r1, r1, r0
 8001d5a:	60d4      	str	r4, [r2, #12]
 8001d5c:	e9d2 4004 	ldrd	r4, r0, [r2, #16]
 8001d60:	eb04 27d7 	add.w	r7, r4, r7, lsr #11
 8001d64:	f8d2 4094 	ldr.w	r4, [r2, #148]	; 0x94
 8001d68:	6117      	str	r7, [r2, #16]
 8001d6a:	eb00 26d6 	add.w	r6, r0, r6, lsr #11
 8001d6e:	6fd0      	ldr	r0, [r2, #124]	; 0x7c
 8001d70:	6156      	str	r6, [r2, #20]
 8001d72:	eb04 25d5 	add.w	r5, r4, r5, lsr #11
 8001d76:	eb00 21d1 	add.w	r1, r0, r1, lsr #11
 8001d7a:	69d4      	ldr	r4, [r2, #28]
 8001d7c:	6a10      	ldr	r0, [r2, #32]
 8001d7e:	69de      	ldr	r6, [r3, #28]
 8001d80:	f8c2 5094 	str.w	r5, [r2, #148]	; 0x94
 8001d84:	6a1d      	ldr	r5, [r3, #32]
 8001d86:	67d1      	str	r1, [r2, #124]	; 0x7c
 8001d88:	4434      	add	r4, r6
 8001d8a:	2100      	movs	r1, #0
 8001d8c:	4428      	add	r0, r5
 8001d8e:	e9c2 4007 	strd	r4, r0, [r2, #28]
 8001d92:	e9c3 1110 	strd	r1, r1, [r3, #64]	; 0x40
 8001d96:	e9c3 1100 	strd	r1, r1, [r3]
 8001d9a:	e9c3 1102 	strd	r1, r1, [r3, #8]
 8001d9e:	e9c3 1107 	strd	r1, r1, [r3, #28]
 8001da2:	6199      	str	r1, [r3, #24]
 8001da4:	6119      	str	r1, [r3, #16]
 8001da6:	bdf0      	pop	{r4, r5, r6, r7, pc}

08001da8 <BatteryMOS_ON>:
 8001da8:	f645 1390 	movw	r3, #22928	; 0x5990
 8001dac:	b5f0      	push	{r4, r5, r6, r7, lr}
 8001dae:	f2c2 0300 	movt	r3, #8192	; 0x2000
 8001db2:	b09b      	sub	sp, #108	; 0x6c
 8001db4:	699b      	ldr	r3, [r3, #24]
 8001db6:	2b50      	cmp	r3, #80	; 0x50
 8001db8:	d833      	bhi.n	8001e22 <BatteryMOS_ON+0x7a>
 8001dba:	f240 2438 	movw	r4, #568	; 0x238
 8001dbe:	f2c2 0400 	movt	r4, #8192	; 0x2000
 8001dc2:	6825      	ldr	r5, [r4, #0]
 8001dc4:	b10d      	cbz	r5, 8001dca <BatteryMOS_ON+0x22>
 8001dc6:	b01b      	add	sp, #108	; 0x6c
 8001dc8:	bdf0      	pop	{r4, r5, r6, r7, pc}
 8001dca:	462a      	mov	r2, r5
 8001dcc:	2140      	movs	r1, #64	; 0x40
 8001dce:	f04f 4090 	mov.w	r0, #1207959552	; 0x48000000
 8001dd2:	f003 f90f 	bl	8004ff4 <HAL_GPIO_WritePin>
 8001dd6:	f246 116c 	movw	r1, #24940	; 0x616c
 8001dda:	a807      	add	r0, sp, #28
 8001ddc:	f2c2 0100 	movt	r1, #8192	; 0x2000
 8001de0:	224c      	movs	r2, #76	; 0x4c
 8001de2:	2660      	movs	r6, #96	; 0x60
 8001de4:	f44f 77fa 	mov.w	r7, #500	; 0x1f4
 8001de8:	f008 f859 	bl	8009e9e <memcpy>
 8001dec:	e9cd 6700 	strd	r6, r7, [sp]
 8001df0:	462a      	mov	r2, r5
 8001df2:	4669      	mov	r1, sp
 8001df4:	a807      	add	r0, sp, #28
 8001df6:	2600      	movs	r6, #0
 8001df8:	2708      	movs	r7, #8
 8001dfa:	e9cd 6702 	strd	r6, r7, [sp, #8]
 8001dfe:	9504      	str	r5, [sp, #16]
 8001e00:	f004 fae2 	bl	80063c8 <HAL_TIM_PWM_ConfigChannel>
 8001e04:	4629      	mov	r1, r5
 8001e06:	a807      	add	r0, sp, #28
 8001e08:	f004 fa06 	bl	8006218 <HAL_TIM_PWM_Start>
 8001e0c:	f246 106c 	movw	r0, #24940	; 0x616c
 8001e10:	4629      	mov	r1, r5
 8001e12:	f2c2 0000 	movt	r0, #8192	; 0x2000
 8001e16:	f004 f9ff 	bl	8006218 <HAL_TIM_PWM_Start>
 8001e1a:	2301      	movs	r3, #1
 8001e1c:	6023      	str	r3, [r4, #0]
 8001e1e:	b01b      	add	sp, #108	; 0x6c
 8001e20:	bdf0      	pop	{r4, r5, r6, r7, pc}
 8001e22:	f246 116c 	movw	r1, #24940	; 0x616c
 8001e26:	2400      	movs	r4, #0
 8001e28:	a807      	add	r0, sp, #28
 8001e2a:	f2c2 0100 	movt	r1, #8192	; 0x2000
 8001e2e:	224c      	movs	r2, #76	; 0x4c
 8001e30:	2660      	movs	r6, #96	; 0x60
 8001e32:	2700      	movs	r7, #0
 8001e34:	f008 f833 	bl	8009e9e <memcpy>
 8001e38:	e9cd 6700 	strd	r6, r7, [sp]
 8001e3c:	4622      	mov	r2, r4
 8001e3e:	4669      	mov	r1, sp
 8001e40:	a807      	add	r0, sp, #28
 8001e42:	2600      	movs	r6, #0
 8001e44:	2708      	movs	r7, #8
 8001e46:	e9cd 6702 	strd	r6, r7, [sp, #8]
 8001e4a:	9404      	str	r4, [sp, #16]
 8001e4c:	f004 fabc 	bl	80063c8 <HAL_TIM_PWM_ConfigChannel>
 8001e50:	4621      	mov	r1, r4
 8001e52:	a807      	add	r0, sp, #28
 8001e54:	f004 f9e0 	bl	8006218 <HAL_TIM_PWM_Start>
 8001e58:	2201      	movs	r2, #1
 8001e5a:	2140      	movs	r1, #64	; 0x40
 8001e5c:	f04f 4090 	mov.w	r0, #1207959552	; 0x48000000
 8001e60:	f003 f8c8 	bl	8004ff4 <HAL_GPIO_WritePin>
 8001e64:	f246 106c 	movw	r0, #24940	; 0x616c
 8001e68:	4621      	mov	r1, r4
 8001e6a:	f2c2 0000 	movt	r0, #8192	; 0x2000
 8001e6e:	f004 fa4b 	bl	8006308 <HAL_TIM_PWM_Stop>
 8001e72:	f240 2338 	movw	r3, #568	; 0x238
 8001e76:	f2c2 0300 	movt	r3, #8192	; 0x2000
 8001e7a:	601c      	str	r4, [r3, #0]
 8001e7c:	b01b      	add	sp, #108	; 0x6c
 8001e7e:	bdf0      	pop	{r4, r5, r6, r7, pc}

08001e80 <main>:
 8001e80:	b508      	push	{r3, lr}
 8001e82:	f001 ff17 	bl	8003cb4 <HAL_Init>
 8001e86:	f000 f833 	bl	8001ef0 <SystemClock_Config>
 8001e8a:	f000 f9e9 	bl	8002260 <MX_GPIO_Init>
 8001e8e:	f000 f9b3 	bl	80021f8 <MX_DMA_Init>
 8001e92:	f000 f861 	bl	8001f58 <MX_ADC1_Init>
 8001e96:	f000 f98f 	bl	80021b8 <MX_USART1_UART_Init>
 8001e9a:	f000 f8f3 	bl	8002084 <MX_TIM2_Init>
 8001e9e:	f000 f933 	bl	8002108 <MX_TIM16_Init>
 8001ea2:	f005 fba5 	bl	80075f0 <osKernelInitialize>
 8001ea6:	f64f 53ac 	movw	r3, #64940	; 0xfdac
 8001eaa:	f243 2025 	movw	r0, #12837	; 0x3225
 8001eae:	f6c0 0300 	movt	r3, #2048	; 0x800
 8001eb2:	2200      	movs	r2, #0
 8001eb4:	2101      	movs	r1, #1
 8001eb6:	f6c0 0000 	movt	r0, #2048	; 0x800
 8001eba:	f005 fc21 	bl	8007700 <osTimerNew>
 8001ebe:	f645 5344 	movw	r3, #23876	; 0x5d44
 8001ec2:	f2c2 0300 	movt	r3, #8192	; 0x2000
 8001ec6:	4604      	mov	r4, r0
 8001ec8:	f64f 5288 	movw	r2, #64904	; 0xfd88
 8001ecc:	f642 2091 	movw	r0, #10897	; 0x2a91
 8001ed0:	f6c0 0200 	movt	r2, #2048	; 0x800
 8001ed4:	f6c0 0000 	movt	r0, #2048	; 0x800
 8001ed8:	2100      	movs	r1, #0
 8001eda:	601c      	str	r4, [r3, #0]
 8001edc:	f005 fbb6 	bl	800764c <osThreadNew>
 8001ee0:	f645 1388 	movw	r3, #22920	; 0x5988
 8001ee4:	f2c2 0300 	movt	r3, #8192	; 0x2000
 8001ee8:	6018      	str	r0, [r3, #0]
 8001eea:	f005 fb93 	bl	8007614 <osKernelStart>
 8001eee:	e7fe      	b.n	8001eee <main+0x6e>

08001ef0 <SystemClock_Config>:
 8001ef0:	b530      	push	{r4, r5, lr}
 8001ef2:	b099      	sub	sp, #100	; 0x64
 8001ef4:	a806      	add	r0, sp, #24
 8001ef6:	2244      	movs	r2, #68	; 0x44
 8001ef8:	2100      	movs	r1, #0
 8001efa:	f007 ffde 	bl	8009eba <memset>
 8001efe:	2300      	movs	r3, #0
 8001f00:	f44f 7000 	mov.w	r0, #512	; 0x200
 8001f04:	e9cd 3300 	strd	r3, r3, [sp]
 8001f08:	e9cd 3302 	strd	r3, r3, [sp, #8]
 8001f0c:	9304      	str	r3, [sp, #16]
 8001f0e:	f003 f889 	bl	8005024 <HAL_PWREx_ControlVoltageScaling>
 8001f12:	b108      	cbz	r0, 8001f18 <SystemClock_Config+0x28>
 8001f14:	b672      	cpsid	i
 8001f16:	e7fe      	b.n	8001f16 <SystemClock_Config+0x26>
 8001f18:	4603      	mov	r3, r0
 8001f1a:	2401      	movs	r4, #1
 8001f1c:	a806      	add	r0, sp, #24
 8001f1e:	f44f 3580 	mov.w	r5, #65536	; 0x10000
 8001f22:	e9cd 4506 	strd	r4, r5, [sp, #24]
 8001f26:	9310      	str	r3, [sp, #64]	; 0x40
 8001f28:	f003 f97a 	bl	8005220 <HAL_RCC_OscConfig>
 8001f2c:	4601      	mov	r1, r0
 8001f2e:	b108      	cbz	r0, 8001f34 <SystemClock_Config+0x44>
 8001f30:	b672      	cpsid	i
 8001f32:	e7fe      	b.n	8001f32 <SystemClock_Config+0x42>
 8001f34:	240f      	movs	r4, #15
 8001f36:	2502      	movs	r5, #2
 8001f38:	2200      	movs	r2, #0
 8001f3a:	2300      	movs	r3, #0
 8001f3c:	4668      	mov	r0, sp
 8001f3e:	e9cd 4500 	strd	r4, r5, [sp]
 8001f42:	e9cd 2302 	strd	r2, r3, [sp, #8]
 8001f46:	9104      	str	r1, [sp, #16]
 8001f48:	f003 fce2 	bl	8005910 <HAL_RCC_ClockConfig>
 8001f4c:	b108      	cbz	r0, 8001f52 <SystemClock_Config+0x62>
 8001f4e:	b672      	cpsid	i
 8001f50:	e7fe      	b.n	8001f50 <SystemClock_Config+0x60>
 8001f52:	b019      	add	sp, #100	; 0x64
 8001f54:	bd30      	pop	{r4, r5, pc}
 8001f56:	bf00      	nop

08001f58 <MX_ADC1_Init>:
 8001f58:	b530      	push	{r4, r5, lr}
 8001f5a:	f645 3404 	movw	r4, #23300	; 0x5b04
 8001f5e:	f2c2 0400 	movt	r4, #8192	; 0x2000
 8001f62:	2300      	movs	r3, #0
 8001f64:	b087      	sub	sp, #28
 8001f66:	f2c5 0304 	movt	r3, #20484	; 0x5004
 8001f6a:	2204      	movs	r2, #4
 8001f6c:	f44f 2580 	mov.w	r5, #262144	; 0x40000
 8001f70:	2107      	movs	r1, #7
 8001f72:	6023      	str	r3, [r4, #0]
 8001f74:	6162      	str	r2, [r4, #20]
 8001f76:	2300      	movs	r3, #0
 8001f78:	2201      	movs	r2, #1
 8001f7a:	4620      	mov	r0, r4
 8001f7c:	e9c4 3302 	strd	r3, r3, [r4, #8]
 8001f80:	e9c4 330a 	strd	r3, r3, [r4, #40]	; 0x28
 8001f84:	e9cd 3301 	strd	r3, r3, [sp, #4]
 8001f88:	e9cd 3303 	strd	r3, r3, [sp, #12]
 8001f8c:	6065      	str	r5, [r4, #4]
 8001f8e:	61e1      	str	r1, [r4, #28]
 8001f90:	8323      	strh	r3, [r4, #24]
 8001f92:	f884 3020 	strb.w	r3, [r4, #32]
 8001f96:	6363      	str	r3, [r4, #52]	; 0x34
 8001f98:	f884 3038 	strb.w	r3, [r4, #56]	; 0x38
 8001f9c:	9300      	str	r3, [sp, #0]
 8001f9e:	6122      	str	r2, [r4, #16]
 8001fa0:	f884 2030 	strb.w	r2, [r4, #48]	; 0x30
 8001fa4:	9305      	str	r3, [sp, #20]
 8001fa6:	f001 fea9 	bl	8003cfc <HAL_ADC_Init>
 8001faa:	b108      	cbz	r0, 8001fb0 <MX_ADC1_Init+0x58>
 8001fac:	b672      	cpsid	i
 8001fae:	e7fe      	b.n	8001fae <MX_ADC1_Init+0x56>
 8001fb0:	2202      	movs	r2, #2
 8001fb2:	f2c0 4230 	movt	r2, #1072	; 0x430
 8001fb6:	2306      	movs	r3, #6
 8001fb8:	e9cd 2300 	strd	r2, r3, [sp]
 8001fbc:	2201      	movs	r2, #1
 8001fbe:	237f      	movs	r3, #127	; 0x7f
 8001fc0:	e9cd 2302 	strd	r2, r3, [sp, #8]
 8001fc4:	4669      	mov	r1, sp
 8001fc6:	2204      	movs	r2, #4
 8001fc8:	2300      	movs	r3, #0
 8001fca:	4620      	mov	r0, r4
 8001fcc:	e9cd 2304 	strd	r2, r3, [sp, #16]
 8001fd0:	f001 ffc8 	bl	8003f64 <HAL_ADC_ConfigChannel>
 8001fd4:	b108      	cbz	r0, 8001fda <MX_ADC1_Init+0x82>
 8001fd6:	b672      	cpsid	i
 8001fd8:	e7fe      	b.n	8001fd8 <MX_ADC1_Init+0x80>
 8001fda:	2204      	movs	r2, #4
 8001fdc:	f6c0 0260 	movt	r2, #2144	; 0x860
 8001fe0:	230c      	movs	r3, #12
 8001fe2:	4669      	mov	r1, sp
 8001fe4:	4620      	mov	r0, r4
 8001fe6:	e9cd 2300 	strd	r2, r3, [sp]
 8001fea:	f001 ffbb 	bl	8003f64 <HAL_ADC_ConfigChannel>
 8001fee:	b108      	cbz	r0, 8001ff4 <MX_ADC1_Init+0x9c>
 8001ff0:	b672      	cpsid	i
 8001ff2:	e7fe      	b.n	8001ff2 <MX_ADC1_Init+0x9a>
 8001ff4:	2208      	movs	r2, #8
 8001ff6:	f6c0 4290 	movt	r2, #3216	; 0xc90
 8001ffa:	2312      	movs	r3, #18
 8001ffc:	9002      	str	r0, [sp, #8]
 8001ffe:	4669      	mov	r1, sp
 8002000:	4620      	mov	r0, r4
 8002002:	e9cd 2300 	strd	r2, r3, [sp]
 8002006:	f001 ffad 	bl	8003f64 <HAL_ADC_ConfigChannel>
 800200a:	b108      	cbz	r0, 8002010 <MX_ADC1_Init+0xb8>
 800200c:	b672      	cpsid	i
 800200e:	e7fe      	b.n	800200e <MX_ADC1_Init+0xb6>
 8002010:	2210      	movs	r2, #16
 8002012:	f2c1 02c0 	movt	r2, #4288	; 0x10c0
 8002016:	2318      	movs	r3, #24
 8002018:	4669      	mov	r1, sp
 800201a:	4620      	mov	r0, r4
 800201c:	e9cd 2300 	strd	r2, r3, [sp]
 8002020:	f001 ffa0 	bl	8003f64 <HAL_ADC_ConfigChannel>
 8002024:	b108      	cbz	r0, 800202a <MX_ADC1_Init+0xd2>
 8002026:	b672      	cpsid	i
 8002028:	e7fe      	b.n	8002028 <MX_ADC1_Init+0xd0>
 800202a:	2220      	movs	r2, #32
 800202c:	f2c1 42f0 	movt	r2, #5360	; 0x14f0
 8002030:	f44f 7380 	mov.w	r3, #256	; 0x100
 8002034:	4669      	mov	r1, sp
 8002036:	4620      	mov	r0, r4
 8002038:	e9cd 2300 	strd	r2, r3, [sp]
 800203c:	f001 ff92 	bl	8003f64 <HAL_ADC_ConfigChannel>
 8002040:	b108      	cbz	r0, 8002046 <MX_ADC1_Init+0xee>
 8002042:	b672      	cpsid	i
 8002044:	e7fe      	b.n	8002044 <MX_ADC1_Init+0xec>
 8002046:	2240      	movs	r2, #64	; 0x40
 8002048:	f6c1 1220 	movt	r2, #6432	; 0x1920
 800204c:	f44f 7383 	mov.w	r3, #262	; 0x106
 8002050:	4669      	mov	r1, sp
 8002052:	4620      	mov	r0, r4
 8002054:	e9cd 2300 	strd	r2, r3, [sp]
 8002058:	f001 ff84 	bl	8003f64 <HAL_ADC_ConfigChannel>
 800205c:	b108      	cbz	r0, 8002062 <MX_ADC1_Init+0x10a>
 800205e:	b672      	cpsid	i
 8002060:	e7fe      	b.n	8002060 <MX_ADC1_Init+0x108>
 8002062:	2280      	movs	r2, #128	; 0x80
 8002064:	f6c1 5250 	movt	r2, #7504	; 0x1d50
 8002068:	f44f 7386 	mov.w	r3, #268	; 0x10c
 800206c:	4669      	mov	r1, sp
 800206e:	4620      	mov	r0, r4
 8002070:	e9cd 2300 	strd	r2, r3, [sp]
 8002074:	f001 ff76 	bl	8003f64 <HAL_ADC_ConfigChannel>
 8002078:	b108      	cbz	r0, 800207e <MX_ADC1_Init+0x126>
 800207a:	b672      	cpsid	i
 800207c:	e7fe      	b.n	800207c <MX_ADC1_Init+0x124>
 800207e:	b007      	add	sp, #28
 8002080:	bd30      	pop	{r4, r5, pc}
 8002082:	bf00      	nop

08002084 <MX_TIM2_Init>:
 8002084:	b5d0      	push	{r4, r6, r7, lr}
 8002086:	f246 146c 	movw	r4, #24940	; 0x616c
 800208a:	f2c2 0400 	movt	r4, #8192	; 0x2000
 800208e:	f04f 4380 	mov.w	r3, #1073741824	; 0x40000000
 8002092:	b08c      	sub	sp, #48	; 0x30
 8002094:	2201      	movs	r2, #1
 8002096:	6023      	str	r3, [r4, #0]
 8002098:	f44f 7300 	mov.w	r3, #512	; 0x200
 800209c:	f44f 717a 	mov.w	r1, #1000	; 0x3e8
 80020a0:	6062      	str	r2, [r4, #4]
 80020a2:	6123      	str	r3, [r4, #16]
 80020a4:	2280      	movs	r2, #128	; 0x80
 80020a6:	2300      	movs	r3, #0
 80020a8:	4620      	mov	r0, r4
 80020aa:	e9cd 3302 	strd	r3, r3, [sp, #8]
 80020ae:	e9cd 3305 	strd	r3, r3, [sp, #20]
 80020b2:	e9cd 3307 	strd	r3, r3, [sp, #28]
 80020b6:	e9cd 3309 	strd	r3, r3, [sp, #36]	; 0x24
 80020ba:	60e1      	str	r1, [r4, #12]
 80020bc:	61a2      	str	r2, [r4, #24]
 80020be:	60a3      	str	r3, [r4, #8]
 80020c0:	9301      	str	r3, [sp, #4]
 80020c2:	9304      	str	r3, [sp, #16]
 80020c4:	f004 f82e 	bl	8006124 <HAL_TIM_PWM_Init>
 80020c8:	b108      	cbz	r0, 80020ce <MX_TIM2_Init+0x4a>
 80020ca:	b672      	cpsid	i
 80020cc:	e7fe      	b.n	80020cc <MX_TIM2_Init+0x48>
 80020ce:	4603      	mov	r3, r0
 80020d0:	a901      	add	r1, sp, #4
 80020d2:	4620      	mov	r0, r4
 80020d4:	9301      	str	r3, [sp, #4]
 80020d6:	9303      	str	r3, [sp, #12]
 80020d8:	f004 fc24 	bl	8006924 <HAL_TIMEx_MasterConfigSynchronization>
 80020dc:	b108      	cbz	r0, 80020e2 <MX_TIM2_Init+0x5e>
 80020de:	b672      	cpsid	i
 80020e0:	e7fe      	b.n	80020e0 <MX_TIM2_Init+0x5c>
 80020e2:	4602      	mov	r2, r0
 80020e4:	2660      	movs	r6, #96	; 0x60
 80020e6:	2700      	movs	r7, #0
 80020e8:	9006      	str	r0, [sp, #24]
 80020ea:	9008      	str	r0, [sp, #32]
 80020ec:	a904      	add	r1, sp, #16
 80020ee:	4620      	mov	r0, r4
 80020f0:	e9cd 6704 	strd	r6, r7, [sp, #16]
 80020f4:	f004 f968 	bl	80063c8 <HAL_TIM_PWM_ConfigChannel>
 80020f8:	b108      	cbz	r0, 80020fe <MX_TIM2_Init+0x7a>
 80020fa:	b672      	cpsid	i
 80020fc:	e7fe      	b.n	80020fc <MX_TIM2_Init+0x78>
 80020fe:	4620      	mov	r0, r4
 8002100:	f001 fbd8 	bl	80038b4 <HAL_TIM_MspPostInit>
 8002104:	b00c      	add	sp, #48	; 0x30
 8002106:	bdd0      	pop	{r4, r6, r7, pc}

08002108 <MX_TIM16_Init>:
 8002108:	b5f0      	push	{r4, r5, r6, r7, lr}
 800210a:	2500      	movs	r5, #0
 800210c:	b095      	sub	sp, #84	; 0x54
 800210e:	4629      	mov	r1, r5
 8002110:	222c      	movs	r2, #44	; 0x2c
 8002112:	a808      	add	r0, sp, #32
 8002114:	f246 2468 	movw	r4, #25192	; 0x6268
 8002118:	f2c2 0400 	movt	r4, #8192	; 0x2000
 800211c:	e9cd 5500 	strd	r5, r5, [sp]
 8002120:	e9cd 5502 	strd	r5, r5, [sp, #8]
 8002124:	e9cd 5504 	strd	r5, r5, [sp, #16]
 8002128:	9506      	str	r5, [sp, #24]
 800212a:	f007 fec6 	bl	8009eba <memset>
 800212e:	f44f 4388 	mov.w	r3, #17408	; 0x4400
 8002132:	f2c4 0301 	movt	r3, #16385	; 0x4001
 8002136:	2601      	movs	r6, #1
 8002138:	f44f 71fa 	mov.w	r1, #500	; 0x1f4
 800213c:	2280      	movs	r2, #128	; 0x80
 800213e:	4620      	mov	r0, r4
 8002140:	e9c4 5504 	strd	r5, r5, [r4, #16]
 8002144:	60a5      	str	r5, [r4, #8]
 8002146:	6023      	str	r3, [r4, #0]
 8002148:	6066      	str	r6, [r4, #4]
 800214a:	60e1      	str	r1, [r4, #12]
 800214c:	61a2      	str	r2, [r4, #24]
 800214e:	f003 ff3f 	bl	8005fd0 <HAL_TIM_Base_Init>
 8002152:	b108      	cbz	r0, 8002158 <MX_TIM16_Init+0x50>
 8002154:	b672      	cpsid	i
 8002156:	e7fe      	b.n	8002156 <MX_TIM16_Init+0x4e>
 8002158:	4620      	mov	r0, r4
 800215a:	f003 ffe3 	bl	8006124 <HAL_TIM_PWM_Init>
 800215e:	4602      	mov	r2, r0
 8002160:	b108      	cbz	r0, 8002166 <MX_TIM16_Init+0x5e>
 8002162:	b672      	cpsid	i
 8002164:	e7fe      	b.n	8002164 <MX_TIM16_Init+0x5c>
 8002166:	2660      	movs	r6, #96	; 0x60
 8002168:	27fe      	movs	r7, #254	; 0xfe
 800216a:	e9cd 6700 	strd	r6, r7, [sp]
 800216e:	4669      	mov	r1, sp
 8002170:	2600      	movs	r6, #0
 8002172:	2700      	movs	r7, #0
 8002174:	4620      	mov	r0, r4
 8002176:	e9cd 6702 	strd	r6, r7, [sp, #8]
 800217a:	e9cd 6704 	strd	r6, r7, [sp, #16]
 800217e:	9206      	str	r2, [sp, #24]
 8002180:	f004 f922 	bl	80063c8 <HAL_TIM_PWM_ConfigChannel>
 8002184:	4603      	mov	r3, r0
 8002186:	b108      	cbz	r0, 800218c <MX_TIM16_Init+0x84>
 8002188:	b672      	cpsid	i
 800218a:	e7fe      	b.n	800218a <MX_TIM16_Init+0x82>
 800218c:	e9cd 6708 	strd	r6, r7, [sp, #32]
 8002190:	e9cd 670a 	strd	r6, r7, [sp, #40]	; 0x28
 8002194:	a908      	add	r1, sp, #32
 8002196:	2600      	movs	r6, #0
 8002198:	f44f 5700 	mov.w	r7, #8192	; 0x2000
 800219c:	4620      	mov	r0, r4
 800219e:	e9cd 670c 	strd	r6, r7, [sp, #48]	; 0x30
 80021a2:	9312      	str	r3, [sp, #72]	; 0x48
 80021a4:	f004 fbf8 	bl	8006998 <HAL_TIMEx_ConfigBreakDeadTime>
 80021a8:	b108      	cbz	r0, 80021ae <MX_TIM16_Init+0xa6>
 80021aa:	b672      	cpsid	i
 80021ac:	e7fe      	b.n	80021ac <MX_TIM16_Init+0xa4>
 80021ae:	4620      	mov	r0, r4
 80021b0:	f001 fb80 	bl	80038b4 <HAL_TIM_MspPostInit>
 80021b4:	b015      	add	sp, #84	; 0x54
 80021b6:	bdf0      	pop	{r4, r5, r6, r7, pc}

080021b8 <MX_USART1_UART_Init>:
 80021b8:	f645 30b0 	movw	r0, #23472	; 0x5bb0
 80021bc:	f2c2 0000 	movt	r0, #8192	; 0x2000
 80021c0:	f44f 5360 	mov.w	r3, #14336	; 0x3800
 80021c4:	f2c4 0301 	movt	r3, #16385	; 0x4001
 80021c8:	b510      	push	{r4, lr}
 80021ca:	210c      	movs	r1, #12
 80021cc:	f44f 34e1 	mov.w	r4, #115200	; 0x1c200
 80021d0:	f44f 4200 	mov.w	r2, #32768	; 0x8000
 80021d4:	6003      	str	r3, [r0, #0]
 80021d6:	2300      	movs	r3, #0
 80021d8:	e9c0 3302 	strd	r3, r3, [r0, #8]
 80021dc:	e9c0 3308 	strd	r3, r3, [r0, #32]
 80021e0:	6044      	str	r4, [r0, #4]
 80021e2:	6141      	str	r1, [r0, #20]
 80021e4:	61c2      	str	r2, [r0, #28]
 80021e6:	6103      	str	r3, [r0, #16]
 80021e8:	6183      	str	r3, [r0, #24]
 80021ea:	f005 f8fd 	bl	80073e8 <HAL_UART_Init>
 80021ee:	b108      	cbz	r0, 80021f4 <MX_USART1_UART_Init+0x3c>
 80021f0:	b672      	cpsid	i
 80021f2:	e7fe      	b.n	80021f2 <MX_USART1_UART_Init+0x3a>
 80021f4:	bd10      	pop	{r4, pc}
 80021f6:	bf00      	nop

080021f8 <MX_DMA_Init>:
 80021f8:	f44f 5380 	mov.w	r3, #4096	; 0x1000
 80021fc:	f2c4 0302 	movt	r3, #16386	; 0x4002
 8002200:	b500      	push	{lr}
 8002202:	6c99      	ldr	r1, [r3, #72]	; 0x48
 8002204:	f041 0101 	orr.w	r1, r1, #1
 8002208:	6499      	str	r1, [r3, #72]	; 0x48
 800220a:	6c99      	ldr	r1, [r3, #72]	; 0x48
 800220c:	b083      	sub	sp, #12
 800220e:	f001 0101 	and.w	r1, r1, #1
 8002212:	9100      	str	r1, [sp, #0]
 8002214:	9900      	ldr	r1, [sp, #0]
 8002216:	6c99      	ldr	r1, [r3, #72]	; 0x48
 8002218:	f041 0102 	orr.w	r1, r1, #2
 800221c:	6499      	str	r1, [r3, #72]	; 0x48
 800221e:	6c9b      	ldr	r3, [r3, #72]	; 0x48
 8002220:	f003 0302 	and.w	r3, r3, #2
 8002224:	2200      	movs	r2, #0
 8002226:	9301      	str	r3, [sp, #4]
 8002228:	2105      	movs	r1, #5
 800222a:	200b      	movs	r0, #11
 800222c:	9b01      	ldr	r3, [sp, #4]
 800222e:	f002 fa11 	bl	8004654 <HAL_NVIC_SetPriority>
 8002232:	200b      	movs	r0, #11
 8002234:	f002 fa48 	bl	80046c8 <HAL_NVIC_EnableIRQ>
 8002238:	2200      	movs	r2, #0
 800223a:	2105      	movs	r1, #5
 800223c:	2044      	movs	r0, #68	; 0x44
 800223e:	f002 fa09 	bl	8004654 <HAL_NVIC_SetPriority>
 8002242:	2044      	movs	r0, #68	; 0x44
 8002244:	f002 fa40 	bl	80046c8 <HAL_NVIC_EnableIRQ>
 8002248:	2200      	movs	r2, #0
 800224a:	2105      	movs	r1, #5
 800224c:	2045      	movs	r0, #69	; 0x45
 800224e:	f002 fa01 	bl	8004654 <HAL_NVIC_SetPriority>
 8002252:	2045      	movs	r0, #69	; 0x45
 8002254:	b003      	add	sp, #12
 8002256:	f85d eb04 	ldr.w	lr, [sp], #4
 800225a:	f002 ba35 	b.w	80046c8 <HAL_NVIC_EnableIRQ>
 800225e:	bf00      	nop

08002260 <MX_GPIO_Init>:
 8002260:	e92d 43f0 	stmdb	sp!, {r4, r5, r6, r7, r8, r9, lr}
 8002264:	2400      	movs	r4, #0
 8002266:	b08b      	sub	sp, #44	; 0x2c
 8002268:	e9cd 4404 	strd	r4, r4, [sp, #16]
 800226c:	e9cd 4406 	strd	r4, r4, [sp, #24]
 8002270:	f44f 5380 	mov.w	r3, #4096	; 0x1000
 8002274:	f2c4 0302 	movt	r3, #16386	; 0x4002
 8002278:	9408      	str	r4, [sp, #32]
 800227a:	6cda      	ldr	r2, [r3, #76]	; 0x4c
 800227c:	f042 0280 	orr.w	r2, r2, #128	; 0x80
 8002280:	64da      	str	r2, [r3, #76]	; 0x4c
 8002282:	6cda      	ldr	r2, [r3, #76]	; 0x4c
 8002284:	f002 0280 	and.w	r2, r2, #128	; 0x80
 8002288:	9200      	str	r2, [sp, #0]
 800228a:	9a00      	ldr	r2, [sp, #0]
 800228c:	6cda      	ldr	r2, [r3, #76]	; 0x4c
 800228e:	f042 0204 	orr.w	r2, r2, #4
 8002292:	64da      	str	r2, [r3, #76]	; 0x4c
 8002294:	6cda      	ldr	r2, [r3, #76]	; 0x4c
 8002296:	f002 0204 	and.w	r2, r2, #4
 800229a:	9201      	str	r2, [sp, #4]
 800229c:	9a01      	ldr	r2, [sp, #4]
 800229e:	6cda      	ldr	r2, [r3, #76]	; 0x4c
 80022a0:	f042 0201 	orr.w	r2, r2, #1
 80022a4:	64da      	str	r2, [r3, #76]	; 0x4c
 80022a6:	6cda      	ldr	r2, [r3, #76]	; 0x4c
 80022a8:	f002 0201 	and.w	r2, r2, #1
 80022ac:	9202      	str	r2, [sp, #8]
 80022ae:	9a02      	ldr	r2, [sp, #8]
 80022b0:	6cda      	ldr	r2, [r3, #76]	; 0x4c
 80022b2:	f042 0202 	orr.w	r2, r2, #2
 80022b6:	64da      	str	r2, [r3, #76]	; 0x4c
 80022b8:	6cdb      	ldr	r3, [r3, #76]	; 0x4c
 80022ba:	f44f 6580 	mov.w	r5, #1024	; 0x400
 80022be:	f003 0302 	and.w	r3, r3, #2
 80022c2:	f6c4 0500 	movt	r5, #18432	; 0x4800
 80022c6:	9303      	str	r3, [sp, #12]
 80022c8:	4622      	mov	r2, r4
 80022ca:	f44f 71e8 	mov.w	r1, #464	; 0x1d0
 80022ce:	f04f 4090 	mov.w	r0, #1207959552	; 0x48000000
 80022d2:	9b03      	ldr	r3, [sp, #12]
 80022d4:	f002 fe8e 	bl	8004ff4 <HAL_GPIO_WritePin>
 80022d8:	4622      	mov	r2, r4
 80022da:	4628      	mov	r0, r5
 80022dc:	f44f 4170 	mov.w	r1, #61440	; 0xf000
 80022e0:	f002 fe88 	bl	8004ff4 <HAL_GPIO_WritePin>
 80022e4:	2600      	movs	r6, #0
 80022e6:	2700      	movs	r7, #0
 80022e8:	a904      	add	r1, sp, #16
 80022ea:	f44f 72e8 	mov.w	r2, #464	; 0x1d0
 80022ee:	2301      	movs	r3, #1
 80022f0:	f04f 4090 	mov.w	r0, #1207959552	; 0x48000000
 80022f4:	e9cd 2304 	strd	r2, r3, [sp, #16]
 80022f8:	e9cd 6706 	strd	r6, r7, [sp, #24]
 80022fc:	f002 fd70 	bl	8004de0 <HAL_GPIO_Init>
 8002300:	f44f 6000 	mov.w	r0, #2048	; 0x800
 8002304:	a904      	add	r1, sp, #16
 8002306:	2230      	movs	r2, #48	; 0x30
 8002308:	2300      	movs	r3, #0
 800230a:	2401      	movs	r4, #1
 800230c:	f6c4 0000 	movt	r0, #18432	; 0x4800
 8002310:	e9cd 2304 	strd	r2, r3, [sp, #16]
 8002314:	9406      	str	r4, [sp, #24]
 8002316:	f002 fd63 	bl	8004de0 <HAL_GPIO_Init>
 800231a:	2203      	movs	r2, #3
 800231c:	4628      	mov	r0, r5
 800231e:	a904      	add	r1, sp, #16
 8002320:	2300      	movs	r3, #0
 8002322:	e9cd 2304 	strd	r2, r3, [sp, #16]
 8002326:	9406      	str	r4, [sp, #24]
 8002328:	f44f 7801 	mov.w	r8, #516	; 0x204
 800232c:	f002 fd58 	bl	8004de0 <HAL_GPIO_Init>
 8002330:	f04f 0900 	mov.w	r9, #0
 8002334:	4628      	mov	r0, r5
 8002336:	a904      	add	r1, sp, #16
 8002338:	2302      	movs	r3, #2
 800233a:	9306      	str	r3, [sp, #24]
 800233c:	e9cd 8904 	strd	r8, r9, [sp, #16]
 8002340:	f002 fd4e 	bl	8004de0 <HAL_GPIO_Init>
 8002344:	f44f 4270 	mov.w	r2, #61440	; 0xf000
 8002348:	2301      	movs	r3, #1
 800234a:	4628      	mov	r0, r5
 800234c:	a904      	add	r1, sp, #16
 800234e:	e9cd 6706 	strd	r6, r7, [sp, #24]
 8002352:	e9cd 2304 	strd	r2, r3, [sp, #16]
 8002356:	f002 fd43 	bl	8004de0 <HAL_GPIO_Init>
 800235a:	b00b      	add	sp, #44	; 0x2c
 800235c:	e8bd 83f0 	ldmia.w	sp!, {r4, r5, r6, r7, r8, r9, pc}

08002360 <HAL_UART_RxCpltCallback>:
 8002360:	6803      	ldr	r3, [r0, #0]
 8002362:	69db      	ldr	r3, [r3, #28]
 8002364:	06db      	lsls	r3, r3, #27
 8002366:	d526      	bpl.n	80023b6 <HAL_UART_RxCpltCallback+0x56>
 8002368:	e92d 41f0 	stmdb	sp!, {r4, r5, r6, r7, r8, lr}
 800236c:	f240 2352 	movw	r3, #594	; 0x252
 8002370:	f2c2 0300 	movt	r3, #8192	; 0x2000
 8002374:	f645 32b0 	movw	r2, #23472	; 0x5bb0
 8002378:	7819      	ldrb	r1, [r3, #0]
 800237a:	6f00      	ldr	r0, [r0, #112]	; 0x70
 800237c:	f2c2 0200 	movt	r2, #8192	; 0x2000
 8002380:	3101      	adds	r1, #1
 8002382:	6812      	ldr	r2, [r2, #0]
 8002384:	7019      	strb	r1, [r3, #0]
 8002386:	6803      	ldr	r3, [r0, #0]
 8002388:	2110      	movs	r1, #16
 800238a:	f240 2453 	movw	r4, #595	; 0x253
 800238e:	6211      	str	r1, [r2, #32]
 8002390:	f2c2 0400 	movt	r4, #8192	; 0x2000
 8002394:	685b      	ldr	r3, [r3, #4]
 8002396:	7821      	ldrb	r1, [r4, #0]
 8002398:	f240 2250 	movw	r2, #592	; 0x250
 800239c:	f2c2 0200 	movt	r2, #8192	; 0x2000
 80023a0:	f1c3 037f 	rsb	r3, r3, #127	; 0x7f
 80023a4:	b29b      	uxth	r3, r3
 80023a6:	2901      	cmp	r1, #1
 80023a8:	8815      	ldrh	r5, [r2, #0]
 80023aa:	8013      	strh	r3, [r2, #0]
 80023ac:	d90b      	bls.n	80023c6 <HAL_UART_RxCpltCallback+0x66>
 80023ae:	2300      	movs	r3, #0
 80023b0:	7023      	strb	r3, [r4, #0]
 80023b2:	e8bd 81f0 	ldmia.w	sp!, {r4, r5, r6, r7, r8, pc}
 80023b6:	f240 2353 	movw	r3, #595	; 0x253
 80023ba:	f2c2 0300 	movt	r3, #8192	; 0x2000
 80023be:	781a      	ldrb	r2, [r3, #0]
 80023c0:	3201      	adds	r2, #1
 80023c2:	701a      	strb	r2, [r3, #0]
 80023c4:	4770      	bx	lr
 80023c6:	bb69      	cbnz	r1, 8002424 <HAL_UART_RxCpltCallback+0xc4>
 80023c8:	1b5b      	subs	r3, r3, r5
 80023ca:	b29b      	uxth	r3, r3
 80023cc:	3b01      	subs	r3, #1
 80023ce:	2b7e      	cmp	r3, #126	; 0x7e
 80023d0:	d8ed      	bhi.n	80023ae <HAL_UART_RxCpltCallback+0x4e>
 80023d2:	f645 46c4 	movw	r6, #23748	; 0x5cc4
 80023d6:	f2c2 0600 	movt	r6, #8192	; 0x2000
 80023da:	5d77      	ldrb	r7, [r6, r5]
 80023dc:	f007 03df 	and.w	r3, r7, #223	; 0xdf
 80023e0:	2b46      	cmp	r3, #70	; 0x46
 80023e2:	d026      	beq.n	8002432 <HAL_UART_RxCpltCallback+0xd2>
 80023e4:	2b43      	cmp	r3, #67	; 0x43
 80023e6:	d12b      	bne.n	8002440 <HAL_UART_RxCpltCallback+0xe0>
 80023e8:	f240 2348 	movw	r3, #584	; 0x248
 80023ec:	f2c2 0300 	movt	r3, #8192	; 0x2000
 80023f0:	2205      	movs	r2, #5
 80023f2:	601a      	str	r2, [r3, #0]
 80023f4:	2f3f      	cmp	r7, #63	; 0x3f
 80023f6:	d1da      	bne.n	80023ae <HAL_UART_RxCpltCallback+0x4e>
 80023f8:	f240 2348 	movw	r3, #584	; 0x248
 80023fc:	f2c2 0300 	movt	r3, #8192	; 0x2000
 8002400:	f645 5048 	movw	r0, #23880	; 0x5d48
 8002404:	f24f 5178 	movw	r1, #62840	; 0xf578
 8002408:	253c      	movs	r5, #60	; 0x3c
 800240a:	f2c2 0000 	movt	r0, #8192	; 0x2000
 800240e:	f44f 72c1 	mov.w	r2, #386	; 0x182
 8002412:	f6c0 0100 	movt	r1, #2048	; 0x800
 8002416:	601d      	str	r5, [r3, #0]
 8002418:	f007 fd41 	bl	8009e9e <memcpy>
 800241c:	2300      	movs	r3, #0
 800241e:	7023      	strb	r3, [r4, #0]
 8002420:	e8bd 81f0 	ldmia.w	sp!, {r4, r5, r6, r7, r8, pc}
 8002424:	42ab      	cmp	r3, r5
 8002426:	d8c2      	bhi.n	80023ae <HAL_UART_RxCpltCallback+0x4e>
 8002428:	f1c5 027f 	rsb	r2, r5, #127	; 0x7f
 800242c:	4413      	add	r3, r2
 800242e:	b29b      	uxth	r3, r3
 8002430:	e7cc      	b.n	80023cc <HAL_UART_RxCpltCallback+0x6c>
 8002432:	f240 2348 	movw	r3, #584	; 0x248
 8002436:	f2c2 0300 	movt	r3, #8192	; 0x2000
 800243a:	2204      	movs	r2, #4
 800243c:	601a      	str	r2, [r3, #0]
 800243e:	e7d9      	b.n	80023f4 <HAL_UART_RxCpltCallback+0x94>
 8002440:	2b57      	cmp	r3, #87	; 0x57
 8002442:	d106      	bne.n	8002452 <HAL_UART_RxCpltCallback+0xf2>
 8002444:	f240 2348 	movw	r3, #584	; 0x248
 8002448:	f2c2 0300 	movt	r3, #8192	; 0x2000
 800244c:	2203      	movs	r2, #3
 800244e:	601a      	str	r2, [r3, #0]
 8002450:	e7d0      	b.n	80023f4 <HAL_UART_RxCpltCallback+0x94>
 8002452:	2b45      	cmp	r3, #69	; 0x45
 8002454:	d11e      	bne.n	8002494 <HAL_UART_RxCpltCallback+0x134>
 8002456:	f645 2508 	movw	r5, #23048	; 0x5a08
 800245a:	f2c2 0500 	movt	r5, #8192	; 0x2000
 800245e:	4628      	mov	r0, r5
 8002460:	f246 16bc 	movw	r6, #25020	; 0x61bc
 8002464:	f850 8b04 	ldr.w	r8, [r0], #4
 8002468:	f2c2 0600 	movt	r6, #8192	; 0x2000
 800246c:	22ac      	movs	r2, #172	; 0xac
 800246e:	2100      	movs	r1, #0
 8002470:	f007 fd23 	bl	8009eba <memset>
 8002474:	22ac      	movs	r2, #172	; 0xac
 8002476:	4630      	mov	r0, r6
 8002478:	2100      	movs	r1, #0
 800247a:	f007 fd1e 	bl	8009eba <memset>
 800247e:	f240 2348 	movw	r3, #584	; 0x248
 8002482:	f2c2 0300 	movt	r3, #8192	; 0x2000
 8002486:	2204      	movs	r2, #4
 8002488:	f8c5 8000 	str.w	r8, [r5]
 800248c:	f846 8c04 	str.w	r8, [r6, #-4]
 8002490:	601a      	str	r2, [r3, #0]
 8002492:	e7af      	b.n	80023f4 <HAL_UART_RxCpltCallback+0x94>
 8002494:	2b44      	cmp	r3, #68	; 0x44
 8002496:	d10a      	bne.n	80024ae <HAL_UART_RxCpltCallback+0x14e>
 8002498:	f7ff faec 	bl	8001a74 <DeleteStatistics2FLASH>
 800249c:	f240 2348 	movw	r3, #584	; 0x248
 80024a0:	f2c2 0300 	movt	r3, #8192	; 0x2000
 80024a4:	5d77      	ldrb	r7, [r6, r5]
 80024a6:	2204      	movs	r2, #4
 80024a8:	601a      	str	r2, [r3, #0]
 80024aa:	f007 03df 	and.w	r3, r7, #223	; 0xdf
 80024ae:	2b48      	cmp	r3, #72	; 0x48
 80024b0:	d0a2      	beq.n	80023f8 <HAL_UART_RxCpltCallback+0x98>
 80024b2:	e79f      	b.n	80023f4 <HAL_UART_RxCpltCallback+0x94>

080024b4 <HAL_UART_TxCpltCallback>:
 80024b4:	f240 2354 	movw	r3, #596	; 0x254
 80024b8:	f2c2 0300 	movt	r3, #8192	; 0x2000
 80024bc:	781a      	ldrb	r2, [r3, #0]
 80024be:	3201      	adds	r2, #1
 80024c0:	701a      	strb	r2, [r3, #0]
 80024c2:	4770      	bx	lr

080024c4 <InverterOn_batteryAsBackup>:
 80024c4:	e92d 43f0 	stmdb	sp!, {r4, r5, r6, r7, r8, r9, lr}
 80024c8:	f240 265c 	movw	r6, #604	; 0x25c
 80024cc:	f2c2 0600 	movt	r6, #8192	; 0x2000
 80024d0:	f645 1590 	movw	r5, #22928	; 0x5990
 80024d4:	f2c2 0500 	movt	r5, #8192	; 0x2000
 80024d8:	6832      	ldr	r2, [r6, #0]
 80024da:	68e9      	ldr	r1, [r5, #12]
 80024dc:	f645 4334 	movw	r3, #23604	; 0x5c34
 80024e0:	f2c2 0300 	movt	r3, #8192	; 0x2000
 80024e4:	f202 1259 	addw	r2, r2, #345	; 0x159
 80024e8:	2400      	movs	r4, #0
 80024ea:	4291      	cmp	r1, r2
 80024ec:	b09d      	sub	sp, #116	; 0x74
 80024ee:	63dc      	str	r4, [r3, #60]	; 0x3c
 80024f0:	d202      	bcs.n	80024f8 <InverterOn_batteryAsBackup+0x34>
 80024f2:	29f0      	cmp	r1, #240	; 0xf0
 80024f4:	f200 80d9 	bhi.w	80026aa <InverterOn_batteryAsBackup+0x1e6>
 80024f8:	f645 14b0 	movw	r4, #22960	; 0x59b0
 80024fc:	f2c2 0400 	movt	r4, #8192	; 0x2000
 8002500:	6963      	ldr	r3, [r4, #20]
 8002502:	2b00      	cmp	r3, #0
 8002504:	f040 80ee 	bne.w	80026e4 <InverterOn_batteryAsBackup+0x220>
 8002508:	696b      	ldr	r3, [r5, #20]
 800250a:	2700      	movs	r7, #0
 800250c:	2b50      	cmp	r3, #80	; 0x50
 800250e:	6037      	str	r7, [r6, #0]
 8002510:	6167      	str	r7, [r4, #20]
 8002512:	f200 8083 	bhi.w	800261c <InverterOn_batteryAsBackup+0x158>
 8002516:	463a      	mov	r2, r7
 8002518:	2180      	movs	r1, #128	; 0x80
 800251a:	f04f 4090 	mov.w	r0, #1207959552	; 0x48000000
 800251e:	f002 fd69 	bl	8004ff4 <HAL_GPIO_WritePin>
 8002522:	f240 2340 	movw	r3, #576	; 0x240
 8002526:	f2c2 0300 	movt	r3, #8192	; 0x2000
 800252a:	2201      	movs	r2, #1
 800252c:	601a      	str	r2, [r3, #0]
 800252e:	682b      	ldr	r3, [r5, #0]
 8002530:	f5b3 7f87 	cmp.w	r3, #270	; 0x10e
 8002534:	f200 8082 	bhi.w	800263c <InverterOn_batteryAsBackup+0x178>
 8002538:	6b63      	ldr	r3, [r4, #52]	; 0x34
 800253a:	b943      	cbnz	r3, 800254e <InverterOn_batteryAsBackup+0x8a>
 800253c:	f645 2308 	movw	r3, #23048	; 0x5a08
 8002540:	f2c2 0300 	movt	r3, #8192	; 0x2000
 8002544:	2101      	movs	r1, #1
 8002546:	6b1a      	ldr	r2, [r3, #48]	; 0x30
 8002548:	6361      	str	r1, [r4, #52]	; 0x34
 800254a:	440a      	add	r2, r1
 800254c:	631a      	str	r2, [r3, #48]	; 0x30
 800254e:	2601      	movs	r6, #1
 8002550:	61a6      	str	r6, [r4, #24]
 8002552:	f7fe fdf1 	bl	8001138 <ResetInverterDay>
 8002556:	f246 134c 	movw	r3, #24908	; 0x614c
 800255a:	f2c2 0300 	movt	r3, #8192	; 0x2000
 800255e:	681b      	ldr	r3, [r3, #0]
 8002560:	2b00      	cmp	r3, #0
 8002562:	d158      	bne.n	8002616 <InverterOn_batteryAsBackup+0x152>
 8002564:	f240 2758 	movw	r7, #600	; 0x258
 8002568:	f2c2 0700 	movt	r7, #8192	; 0x2000
 800256c:	68e9      	ldr	r1, [r5, #12]
 800256e:	683a      	ldr	r2, [r7, #0]
 8002570:	f202 1291 	addw	r2, r2, #401	; 0x191
 8002574:	4291      	cmp	r1, r2
 8002576:	d202      	bcs.n	800257e <InverterOn_batteryAsBackup+0xba>
 8002578:	29f0      	cmp	r1, #240	; 0xf0
 800257a:	f200 80e5 	bhi.w	8002748 <InverterOn_batteryAsBackup+0x284>
 800257e:	f246 116c 	movw	r1, #24940	; 0x616c
 8002582:	2600      	movs	r6, #0
 8002584:	f2c2 0100 	movt	r1, #8192	; 0x2000
 8002588:	224c      	movs	r2, #76	; 0x4c
 800258a:	f04f 0860 	mov.w	r8, #96	; 0x60
 800258e:	f04f 0900 	mov.w	r9, #0
 8002592:	a809      	add	r0, sp, #36	; 0x24
 8002594:	f007 fc83 	bl	8009e9e <memcpy>
 8002598:	e9cd 8902 	strd	r8, r9, [sp, #8]
 800259c:	4632      	mov	r2, r6
 800259e:	a902      	add	r1, sp, #8
 80025a0:	a809      	add	r0, sp, #36	; 0x24
 80025a2:	f04f 0800 	mov.w	r8, #0
 80025a6:	f04f 0908 	mov.w	r9, #8
 80025aa:	e9cd 8904 	strd	r8, r9, [sp, #16]
 80025ae:	9606      	str	r6, [sp, #24]
 80025b0:	f003 ff0a 	bl	80063c8 <HAL_TIM_PWM_ConfigChannel>
 80025b4:	4631      	mov	r1, r6
 80025b6:	a809      	add	r0, sp, #36	; 0x24
 80025b8:	f003 fe2e 	bl	8006218 <HAL_TIM_PWM_Start>
 80025bc:	2201      	movs	r2, #1
 80025be:	2140      	movs	r1, #64	; 0x40
 80025c0:	f04f 4090 	mov.w	r0, #1207959552	; 0x48000000
 80025c4:	f002 fd16 	bl	8004ff4 <HAL_GPIO_WritePin>
 80025c8:	f246 106c 	movw	r0, #24940	; 0x616c
 80025cc:	4631      	mov	r1, r6
 80025ce:	f2c2 0000 	movt	r0, #8192	; 0x2000
 80025d2:	f003 fe99 	bl	8006308 <HAL_TIM_PWM_Stop>
 80025d6:	68e9      	ldr	r1, [r5, #12]
 80025d8:	603e      	str	r6, [r7, #0]
 80025da:	f240 2338 	movw	r3, #568	; 0x238
 80025de:	f2c2 0300 	movt	r3, #8192	; 0x2000
 80025e2:	2201      	movs	r2, #1
 80025e4:	f5b1 7fc9 	cmp.w	r1, #402	; 0x192
 80025e8:	601e      	str	r6, [r3, #0]
 80025ea:	6222      	str	r2, [r4, #32]
 80025ec:	d313      	bcc.n	8002616 <InverterOn_batteryAsBackup+0x152>
 80025ee:	f645 2308 	movw	r3, #23048	; 0x5a08
 80025f2:	f2c2 0300 	movt	r3, #8192	; 0x2000
 80025f6:	6b20      	ldr	r0, [r4, #48]	; 0x30
 80025f8:	f8d3 5094 	ldr.w	r5, [r3, #148]	; 0x94
 80025fc:	f8c3 5080 	str.w	r5, [r3, #128]	; 0x80
 8002600:	2800      	cmp	r0, #0
 8002602:	f040 80ab 	bne.w	800275c <InverterOn_batteryAsBackup+0x298>
 8002606:	6aa5      	ldr	r5, [r4, #40]	; 0x28
 8002608:	2d00      	cmp	r5, #0
 800260a:	f000 80ab 	beq.w	8002764 <InverterOn_batteryAsBackup+0x2a0>
 800260e:	e9c4 020b 	strd	r0, r2, [r4, #44]	; 0x2c
 8002612:	f8c3 109c 	str.w	r1, [r3, #156]	; 0x9c
 8002616:	b01d      	add	sp, #116	; 0x74
 8002618:	e8bd 83f0 	ldmia.w	sp!, {r4, r5, r6, r7, r8, r9, pc}
 800261c:	2201      	movs	r2, #1
 800261e:	2180      	movs	r1, #128	; 0x80
 8002620:	f04f 4090 	mov.w	r0, #1207959552	; 0x48000000
 8002624:	f002 fce6 	bl	8004ff4 <HAL_GPIO_WritePin>
 8002628:	f240 2340 	movw	r3, #576	; 0x240
 800262c:	f2c2 0300 	movt	r3, #8192	; 0x2000
 8002630:	601f      	str	r7, [r3, #0]
 8002632:	682b      	ldr	r3, [r5, #0]
 8002634:	f5b3 7f87 	cmp.w	r3, #270	; 0x10e
 8002638:	f67f af7e 	bls.w	8002538 <InverterOn_batteryAsBackup+0x74>
 800263c:	f246 116c 	movw	r1, #24940	; 0x616c
 8002640:	2500      	movs	r5, #0
 8002642:	2601      	movs	r6, #1
 8002644:	a809      	add	r0, sp, #36	; 0x24
 8002646:	f2c2 0100 	movt	r1, #8192	; 0x2000
 800264a:	224c      	movs	r2, #76	; 0x4c
 800264c:	f04f 0860 	mov.w	r8, #96	; 0x60
 8002650:	f04f 0900 	mov.w	r9, #0
 8002654:	60a6      	str	r6, [r4, #8]
 8002656:	f007 fc22 	bl	8009e9e <memcpy>
 800265a:	e9cd 8902 	strd	r8, r9, [sp, #8]
 800265e:	462a      	mov	r2, r5
 8002660:	a902      	add	r1, sp, #8
 8002662:	a809      	add	r0, sp, #36	; 0x24
 8002664:	f04f 0800 	mov.w	r8, #0
 8002668:	f04f 0908 	mov.w	r9, #8
 800266c:	e9cd 8904 	strd	r8, r9, [sp, #16]
 8002670:	9506      	str	r5, [sp, #24]
 8002672:	f003 fea9 	bl	80063c8 <HAL_TIM_PWM_ConfigChannel>
 8002676:	4629      	mov	r1, r5
 8002678:	a809      	add	r0, sp, #36	; 0x24
 800267a:	f003 fdcd 	bl	8006218 <HAL_TIM_PWM_Start>
 800267e:	4632      	mov	r2, r6
 8002680:	2140      	movs	r1, #64	; 0x40
 8002682:	f04f 4090 	mov.w	r0, #1207959552	; 0x48000000
 8002686:	f002 fcb5 	bl	8004ff4 <HAL_GPIO_WritePin>
 800268a:	f246 106c 	movw	r0, #24940	; 0x616c
 800268e:	4629      	mov	r1, r5
 8002690:	f2c2 0000 	movt	r0, #8192	; 0x2000
 8002694:	f003 fe38 	bl	8006308 <HAL_TIM_PWM_Stop>
 8002698:	f240 2338 	movw	r3, #568	; 0x238
 800269c:	f2c2 0300 	movt	r3, #8192	; 0x2000
 80026a0:	6365      	str	r5, [r4, #52]	; 0x34
 80026a2:	601d      	str	r5, [r3, #0]
 80026a4:	b01d      	add	sp, #116	; 0x74
 80026a6:	e8bd 83f0 	ldmia.w	sp!, {r4, r5, r6, r7, r8, r9, pc}
 80026aa:	691b      	ldr	r3, [r3, #16]
 80026ac:	f5b3 7f16 	cmp.w	r3, #600	; 0x258
 80026b0:	f4bf af22 	bcs.w	80024f8 <InverterOn_batteryAsBackup+0x34>
 80026b4:	f7ff fb78 	bl	8001da8 <BatteryMOS_ON>
 80026b8:	2316      	movs	r3, #22
 80026ba:	2201      	movs	r2, #1
 80026bc:	2180      	movs	r1, #128	; 0x80
 80026be:	f04f 4090 	mov.w	r0, #1207959552	; 0x48000000
 80026c2:	6033      	str	r3, [r6, #0]
 80026c4:	f002 fc96 	bl	8004ff4 <HAL_GPIO_WritePin>
 80026c8:	f240 2140 	movw	r1, #576	; 0x240
 80026cc:	f645 13b0 	movw	r3, #22960	; 0x59b0
 80026d0:	f2c2 0300 	movt	r3, #8192	; 0x2000
 80026d4:	f2c2 0100 	movt	r1, #8192	; 0x2000
 80026d8:	2201      	movs	r2, #1
 80026da:	e9c3 2204 	strd	r2, r2, [r3, #16]
 80026de:	600c      	str	r4, [r1, #0]
 80026e0:	641a      	str	r2, [r3, #64]	; 0x40
 80026e2:	e798      	b.n	8002616 <InverterOn_batteryAsBackup+0x152>
 80026e4:	f246 116c 	movw	r1, #24940	; 0x616c
 80026e8:	2700      	movs	r7, #0
 80026ea:	f2c2 0100 	movt	r1, #8192	; 0x2000
 80026ee:	224c      	movs	r2, #76	; 0x4c
 80026f0:	f04f 0860 	mov.w	r8, #96	; 0x60
 80026f4:	f04f 0900 	mov.w	r9, #0
 80026f8:	a809      	add	r0, sp, #36	; 0x24
 80026fa:	f007 fbd0 	bl	8009e9e <memcpy>
 80026fe:	e9cd 8902 	strd	r8, r9, [sp, #8]
 8002702:	463a      	mov	r2, r7
 8002704:	a902      	add	r1, sp, #8
 8002706:	a809      	add	r0, sp, #36	; 0x24
 8002708:	f04f 0800 	mov.w	r8, #0
 800270c:	f04f 0908 	mov.w	r9, #8
 8002710:	e9cd 8904 	strd	r8, r9, [sp, #16]
 8002714:	9706      	str	r7, [sp, #24]
 8002716:	f003 fe57 	bl	80063c8 <HAL_TIM_PWM_ConfigChannel>
 800271a:	4639      	mov	r1, r7
 800271c:	a809      	add	r0, sp, #36	; 0x24
 800271e:	f003 fd7b 	bl	8006218 <HAL_TIM_PWM_Start>
 8002722:	2201      	movs	r2, #1
 8002724:	2140      	movs	r1, #64	; 0x40
 8002726:	f04f 4090 	mov.w	r0, #1207959552	; 0x48000000
 800272a:	f002 fc63 	bl	8004ff4 <HAL_GPIO_WritePin>
 800272e:	f246 106c 	movw	r0, #24940	; 0x616c
 8002732:	4639      	mov	r1, r7
 8002734:	f2c2 0000 	movt	r0, #8192	; 0x2000
 8002738:	f003 fde6 	bl	8006308 <HAL_TIM_PWM_Stop>
 800273c:	f240 2338 	movw	r3, #568	; 0x238
 8002740:	f2c2 0300 	movt	r3, #8192	; 0x2000
 8002744:	601f      	str	r7, [r3, #0]
 8002746:	e6df      	b.n	8002508 <InverterOn_batteryAsBackup+0x44>
 8002748:	9301      	str	r3, [sp, #4]
 800274a:	f7ff fb2d 	bl	8001da8 <BatteryMOS_ON>
 800274e:	9b01      	ldr	r3, [sp, #4]
 8002750:	6066      	str	r6, [r4, #4]
 8002752:	2213      	movs	r2, #19
 8002754:	6426      	str	r6, [r4, #64]	; 0x40
 8002756:	62a3      	str	r3, [r4, #40]	; 0x28
 8002758:	603a      	str	r2, [r7, #0]
 800275a:	e75c      	b.n	8002616 <InverterOn_batteryAsBackup+0x152>
 800275c:	6aa2      	ldr	r2, [r4, #40]	; 0x28
 800275e:	2a00      	cmp	r2, #0
 8002760:	f47f af59 	bne.w	8002616 <InverterOn_batteryAsBackup+0x152>
 8002764:	2200      	movs	r2, #0
 8002766:	2101      	movs	r1, #1
 8002768:	e9c4 2109 	strd	r2, r1, [r4, #36]	; 0x24
 800276c:	67da      	str	r2, [r3, #124]	; 0x7c
 800276e:	e752      	b.n	8002616 <InverterOn_batteryAsBackup+0x152>

08002770 <DischargeProcedure>:
 8002770:	f645 4334 	movw	r3, #23604	; 0x5c34
 8002774:	b5f0      	push	{r4, r5, r6, r7, lr}
 8002776:	f2c2 0300 	movt	r3, #8192	; 0x2000
 800277a:	f645 14b0 	movw	r4, #22960	; 0x59b0
 800277e:	6bda      	ldr	r2, [r3, #60]	; 0x3c
 8002780:	f2c2 0400 	movt	r4, #8192	; 0x2000
 8002784:	2301      	movs	r3, #1
 8002786:	2100      	movs	r1, #0
 8002788:	f5b2 7f61 	cmp.w	r2, #900	; 0x384
 800278c:	b09b      	sub	sp, #108	; 0x6c
 800278e:	6161      	str	r1, [r4, #20]
 8002790:	61e3      	str	r3, [r4, #28]
 8002792:	63e3      	str	r3, [r4, #60]	; 0x3c
 8002794:	d11b      	bne.n	80027ce <DischargeProcedure+0x5e>
 8002796:	f645 2308 	movw	r3, #23048	; 0x5a08
 800279a:	f2c2 0300 	movt	r3, #8192	; 0x2000
 800279e:	e9d3 2522 	ldrd	r2, r5, [r3, #136]	; 0x88
 80027a2:	f8d3 1084 	ldr.w	r1, [r3, #132]	; 0x84
 80027a6:	f8d3 0094 	ldr.w	r0, [r3, #148]	; 0x94
 80027aa:	f8c3 0084 	str.w	r0, [r3, #132]	; 0x84
 80027ae:	f8c3 1088 	str.w	r1, [r3, #136]	; 0x88
 80027b2:	f8d3 00a0 	ldr.w	r0, [r3, #160]	; 0xa0
 80027b6:	f8d3 10a4 	ldr.w	r1, [r3, #164]	; 0xa4
 80027ba:	f8c3 208c 	str.w	r2, [r3, #140]	; 0x8c
 80027be:	f8d3 20a8 	ldr.w	r2, [r3, #168]	; 0xa8
 80027c2:	f8c3 5090 	str.w	r5, [r3, #144]	; 0x90
 80027c6:	e9c3 0129 	strd	r0, r1, [r3, #164]	; 0xa4
 80027ca:	f8c3 20ac 	str.w	r2, [r3, #172]	; 0xac
 80027ce:	f240 255c 	movw	r5, #604	; 0x25c
 80027d2:	f2c2 0500 	movt	r5, #8192	; 0x2000
 80027d6:	f645 1690 	movw	r6, #22928	; 0x5990
 80027da:	682b      	ldr	r3, [r5, #0]
 80027dc:	f2c2 0600 	movt	r6, #8192	; 0x2000
 80027e0:	f5c3 73ac 	rsb	r3, r3, #344	; 0x158
 80027e4:	68f2      	ldr	r2, [r6, #12]
 80027e6:	3301      	adds	r3, #1
 80027e8:	429a      	cmp	r2, r3
 80027ea:	d927      	bls.n	800283c <DischargeProcedure+0xcc>
 80027ec:	f246 134c 	movw	r3, #24908	; 0x614c
 80027f0:	f2c2 0300 	movt	r3, #8192	; 0x2000
 80027f4:	681b      	ldr	r3, [r3, #0]
 80027f6:	b1f3      	cbz	r3, 8002836 <DischargeProcedure+0xc6>
 80027f8:	f7fe fde0 	bl	80013bc <ResetInverterNight>
 80027fc:	f240 2340 	movw	r3, #576	; 0x240
 8002800:	f2c2 0300 	movt	r3, #8192	; 0x2000
 8002804:	2216      	movs	r2, #22
 8002806:	681b      	ldr	r3, [r3, #0]
 8002808:	602a      	str	r2, [r5, #0]
 800280a:	b113      	cbz	r3, 8002812 <DischargeProcedure+0xa2>
 800280c:	2301      	movs	r3, #1
 800280e:	60e3      	str	r3, [r4, #12]
 8002810:	6463      	str	r3, [r4, #68]	; 0x44
 8002812:	6833      	ldr	r3, [r6, #0]
 8002814:	f5b3 7f87 	cmp.w	r3, #270	; 0x10e
 8002818:	d90b      	bls.n	8002832 <DischargeProcedure+0xc2>
 800281a:	6aa3      	ldr	r3, [r4, #40]	; 0x28
 800281c:	b14b      	cbz	r3, 8002832 <DischargeProcedure+0xc2>
 800281e:	f645 2308 	movw	r3, #23048	; 0x5a08
 8002822:	f2c2 0300 	movt	r3, #8192	; 0x2000
 8002826:	2100      	movs	r1, #0
 8002828:	6a9a      	ldr	r2, [r3, #40]	; 0x28
 800282a:	62a1      	str	r1, [r4, #40]	; 0x28
 800282c:	3201      	adds	r2, #1
 800282e:	629a      	str	r2, [r3, #40]	; 0x28
 8002830:	6321      	str	r1, [r4, #48]	; 0x30
 8002832:	b01b      	add	sp, #108	; 0x6c
 8002834:	bdf0      	pop	{r4, r5, r6, r7, pc}
 8002836:	f7fe fbdf 	bl	8000ff8 <DelayedInvMosOn>
 800283a:	e7dd      	b.n	80027f8 <DischargeProcedure+0x88>
 800283c:	2201      	movs	r2, #1
 800283e:	2180      	movs	r1, #128	; 0x80
 8002840:	f04f 4090 	mov.w	r0, #1207959552	; 0x48000000
 8002844:	f002 fbd6 	bl	8004ff4 <HAL_GPIO_WritePin>
 8002848:	f645 2308 	movw	r3, #23048	; 0x5a08
 800284c:	f2c2 0300 	movt	r3, #8192	; 0x2000
 8002850:	f240 2740 	movw	r7, #576	; 0x240
 8002854:	6ed8      	ldr	r0, [r3, #108]	; 0x6c
 8002856:	6fd9      	ldr	r1, [r3, #124]	; 0x7c
 8002858:	66d9      	str	r1, [r3, #108]	; 0x6c
 800285a:	6f19      	ldr	r1, [r3, #112]	; 0x70
 800285c:	6718      	str	r0, [r3, #112]	; 0x70
 800285e:	6f58      	ldr	r0, [r3, #116]	; 0x74
 8002860:	f240 2258 	movw	r2, #600	; 0x258
 8002864:	e9c3 101d 	strd	r1, r0, [r3, #116]	; 0x74
 8002868:	f2c2 0200 	movt	r2, #8192	; 0x2000
 800286c:	f2c2 0700 	movt	r7, #8192	; 0x2000
 8002870:	6ae0      	ldr	r0, [r4, #44]	; 0x2c
 8002872:	2100      	movs	r1, #0
 8002874:	6011      	str	r1, [r2, #0]
 8002876:	6039      	str	r1, [r7, #0]
 8002878:	6a62      	ldr	r2, [r4, #36]	; 0x24
 800287a:	6029      	str	r1, [r5, #0]
 800287c:	2800      	cmp	r0, #0
 800287e:	d149      	bne.n	8002914 <DischargeProcedure+0x1a4>
 8002880:	2a00      	cmp	r2, #0
 8002882:	d052      	beq.n	800292a <DischargeProcedure+0x1ba>
 8002884:	68f1      	ldr	r1, [r6, #12]
 8002886:	6320      	str	r0, [r4, #48]	; 0x30
 8002888:	2201      	movs	r2, #1
 800288a:	f8c3 1098 	str.w	r1, [r3, #152]	; 0x98
 800288e:	62e2      	str	r2, [r4, #44]	; 0x2c
 8002890:	f645 13f8 	movw	r3, #23032	; 0x59f8
 8002894:	f2c2 0300 	movt	r3, #8192	; 0x2000
 8002898:	685c      	ldr	r4, [r3, #4]
 800289a:	2c00      	cmp	r4, #0
 800289c:	d1c9      	bne.n	8002832 <DischargeProcedure+0xc2>
 800289e:	681b      	ldr	r3, [r3, #0]
 80028a0:	2b02      	cmp	r3, #2
 80028a2:	d1c6      	bne.n	8002832 <DischargeProcedure+0xc2>
 80028a4:	6973      	ldr	r3, [r6, #20]
 80028a6:	2b50      	cmp	r3, #80	; 0x50
 80028a8:	d948      	bls.n	800293c <DischargeProcedure+0x1cc>
 80028aa:	2201      	movs	r2, #1
 80028ac:	2180      	movs	r1, #128	; 0x80
 80028ae:	f04f 4090 	mov.w	r0, #1207959552	; 0x48000000
 80028b2:	f002 fb9f 	bl	8004ff4 <HAL_GPIO_WritePin>
 80028b6:	603c      	str	r4, [r7, #0]
 80028b8:	f246 116c 	movw	r1, #24940	; 0x616c
 80028bc:	2400      	movs	r4, #0
 80028be:	f2c2 0100 	movt	r1, #8192	; 0x2000
 80028c2:	224c      	movs	r2, #76	; 0x4c
 80028c4:	2660      	movs	r6, #96	; 0x60
 80028c6:	2700      	movs	r7, #0
 80028c8:	a807      	add	r0, sp, #28
 80028ca:	f007 fae8 	bl	8009e9e <memcpy>
 80028ce:	e9cd 6700 	strd	r6, r7, [sp]
 80028d2:	4622      	mov	r2, r4
 80028d4:	4669      	mov	r1, sp
 80028d6:	a807      	add	r0, sp, #28
 80028d8:	2600      	movs	r6, #0
 80028da:	2708      	movs	r7, #8
 80028dc:	e9cd 6702 	strd	r6, r7, [sp, #8]
 80028e0:	9404      	str	r4, [sp, #16]
 80028e2:	f003 fd71 	bl	80063c8 <HAL_TIM_PWM_ConfigChannel>
 80028e6:	4621      	mov	r1, r4
 80028e8:	a807      	add	r0, sp, #28
 80028ea:	f003 fc95 	bl	8006218 <HAL_TIM_PWM_Start>
 80028ee:	2201      	movs	r2, #1
 80028f0:	2140      	movs	r1, #64	; 0x40
 80028f2:	f04f 4090 	mov.w	r0, #1207959552	; 0x48000000
 80028f6:	f002 fb7d 	bl	8004ff4 <HAL_GPIO_WritePin>
 80028fa:	f246 106c 	movw	r0, #24940	; 0x616c
 80028fe:	4621      	mov	r1, r4
 8002900:	f2c2 0000 	movt	r0, #8192	; 0x2000
 8002904:	f003 fd00 	bl	8006308 <HAL_TIM_PWM_Stop>
 8002908:	f240 2338 	movw	r3, #568	; 0x238
 800290c:	f2c2 0300 	movt	r3, #8192	; 0x2000
 8002910:	601c      	str	r4, [r3, #0]
 8002912:	e78e      	b.n	8002832 <DischargeProcedure+0xc2>
 8002914:	2a00      	cmp	r2, #0
 8002916:	d1bb      	bne.n	8002890 <DischargeProcedure+0x120>
 8002918:	6a59      	ldr	r1, [r3, #36]	; 0x24
 800291a:	62a2      	str	r2, [r4, #40]	; 0x28
 800291c:	3101      	adds	r1, #1
 800291e:	f8c3 2094 	str.w	r2, [r3, #148]	; 0x94
 8002922:	2201      	movs	r2, #1
 8002924:	6259      	str	r1, [r3, #36]	; 0x24
 8002926:	6262      	str	r2, [r4, #36]	; 0x24
 8002928:	e7b2      	b.n	8002890 <DischargeProcedure+0x120>
 800292a:	6a59      	ldr	r1, [r3, #36]	; 0x24
 800292c:	62a2      	str	r2, [r4, #40]	; 0x28
 800292e:	3101      	adds	r1, #1
 8002930:	2001      	movs	r0, #1
 8002932:	f8c3 2094 	str.w	r2, [r3, #148]	; 0x94
 8002936:	6259      	str	r1, [r3, #36]	; 0x24
 8002938:	6260      	str	r0, [r4, #36]	; 0x24
 800293a:	e77a      	b.n	8002832 <DischargeProcedure+0xc2>
 800293c:	4622      	mov	r2, r4
 800293e:	2180      	movs	r1, #128	; 0x80
 8002940:	f04f 4090 	mov.w	r0, #1207959552	; 0x48000000
 8002944:	f002 fb56 	bl	8004ff4 <HAL_GPIO_WritePin>
 8002948:	2301      	movs	r3, #1
 800294a:	603b      	str	r3, [r7, #0]
 800294c:	e7b4      	b.n	80028b8 <DischargeProcedure+0x148>
 800294e:	bf00      	nop

08002950 <PrintFlashStats2TxBuffer>:
 8002950:	b530      	push	{r4, r5, lr}
 8002952:	f645 2208 	movw	r2, #23048	; 0x5a08
 8002956:	f2c2 0200 	movt	r2, #8192	; 0x2000
 800295a:	b09f      	sub	sp, #124	; 0x7c
 800295c:	e9d2 1426 	ldrd	r1, r4, [r2, #152]	; 0x98
 8002960:	f8d2 5084 	ldr.w	r5, [r2, #132]	; 0x84
 8002964:	6ed3      	ldr	r3, [r2, #108]	; 0x6c
 8002966:	951d      	str	r5, [sp, #116]	; 0x74
 8002968:	f8d2 5080 	ldr.w	r5, [r2, #128]	; 0x80
 800296c:	941c      	str	r4, [sp, #112]	; 0x70
 800296e:	6e94      	ldr	r4, [r2, #104]	; 0x68
 8002970:	911b      	str	r1, [sp, #108]	; 0x6c
 8002972:	6e51      	ldr	r1, [r2, #100]	; 0x64
 8002974:	931a      	str	r3, [sp, #104]	; 0x68
 8002976:	6e13      	ldr	r3, [r2, #96]	; 0x60
 8002978:	9519      	str	r5, [sp, #100]	; 0x64
 800297a:	6d95      	ldr	r5, [r2, #88]	; 0x58
 800297c:	9418      	str	r4, [sp, #96]	; 0x60
 800297e:	6dd4      	ldr	r4, [r2, #92]	; 0x5c
 8002980:	9117      	str	r1, [sp, #92]	; 0x5c
 8002982:	6d51      	ldr	r1, [r2, #84]	; 0x54
 8002984:	9316      	str	r3, [sp, #88]	; 0x58
 8002986:	6d13      	ldr	r3, [r2, #80]	; 0x50
 8002988:	9515      	str	r5, [sp, #84]	; 0x54
 800298a:	6c95      	ldr	r5, [r2, #72]	; 0x48
 800298c:	9414      	str	r4, [sp, #80]	; 0x50
 800298e:	6cd4      	ldr	r4, [r2, #76]	; 0x4c
 8002990:	9113      	str	r1, [sp, #76]	; 0x4c
 8002992:	6c51      	ldr	r1, [r2, #68]	; 0x44
 8002994:	9312      	str	r3, [sp, #72]	; 0x48
 8002996:	6c13      	ldr	r3, [r2, #64]	; 0x40
 8002998:	e9cd 4510 	strd	r4, r5, [sp, #64]	; 0x40
 800299c:	e9cd 310e 	strd	r3, r1, [sp, #56]	; 0x38
 80029a0:	6994      	ldr	r4, [r2, #24]
 80029a2:	6a11      	ldr	r1, [r2, #32]
 80029a4:	6b93      	ldr	r3, [r2, #56]	; 0x38
 80029a6:	e9cd 1400 	strd	r1, r4, [sp]
 80029aa:	6b51      	ldr	r1, [r2, #52]	; 0x34
 80029ac:	6bd5      	ldr	r5, [r2, #60]	; 0x3c
 80029ae:	6ad4      	ldr	r4, [r2, #44]	; 0x2c
 80029b0:	930d      	str	r3, [sp, #52]	; 0x34
 80029b2:	6b13      	ldr	r3, [r2, #48]	; 0x30
 80029b4:	910c      	str	r1, [sp, #48]	; 0x30
 80029b6:	6a91      	ldr	r1, [r2, #40]	; 0x28
 80029b8:	950b      	str	r5, [sp, #44]	; 0x2c
 80029ba:	6a55      	ldr	r5, [r2, #36]	; 0x24
 80029bc:	940a      	str	r4, [sp, #40]	; 0x28
 80029be:	68d4      	ldr	r4, [r2, #12]
 80029c0:	9309      	str	r3, [sp, #36]	; 0x24
 80029c2:	6953      	ldr	r3, [r2, #20]
 80029c4:	9108      	str	r1, [sp, #32]
 80029c6:	6911      	ldr	r1, [r2, #16]
 80029c8:	9507      	str	r5, [sp, #28]
 80029ca:	6895      	ldr	r5, [r2, #8]
 80029cc:	9406      	str	r4, [sp, #24]
 80029ce:	6854      	ldr	r4, [r2, #4]
 80029d0:	9305      	str	r3, [sp, #20]
 80029d2:	69d3      	ldr	r3, [r2, #28]
 80029d4:	6812      	ldr	r2, [r2, #0]
 80029d6:	9104      	str	r1, [sp, #16]
 80029d8:	f645 5048 	movw	r0, #23880	; 0x5d48
 80029dc:	f64f 01d4 	movw	r1, #63700	; 0xf8d4
 80029e0:	f6c0 0100 	movt	r1, #2048	; 0x800
 80029e4:	f2c2 0000 	movt	r0, #8192	; 0x2000
 80029e8:	e9cd 4502 	strd	r4, r5, [sp, #8]
 80029ec:	f008 f9c2 	bl	800ad74 <siprintf>
 80029f0:	b01f      	add	sp, #124	; 0x7c
 80029f2:	bd30      	pop	{r4, r5, pc}

080029f4 <ShowWhStats>:
 80029f4:	b530      	push	{r4, r5, lr}
 80029f6:	f645 2208 	movw	r2, #23048	; 0x5a08
 80029fa:	f2c2 0200 	movt	r2, #8192	; 0x2000
 80029fe:	e9d2 452a 	ldrd	r4, r5, [r2, #168]	; 0xa8
 8002a02:	b09b      	sub	sp, #108	; 0x6c
 8002a04:	e9d2 3128 	ldrd	r3, r1, [r2, #160]	; 0xa0
 8002a08:	9519      	str	r5, [sp, #100]	; 0x64
 8002a0a:	f8d2 5090 	ldr.w	r5, [r2, #144]	; 0x90
 8002a0e:	9418      	str	r4, [sp, #96]	; 0x60
 8002a10:	f8d2 408c 	ldr.w	r4, [r2, #140]	; 0x8c
 8002a14:	9117      	str	r1, [sp, #92]	; 0x5c
 8002a16:	f8d2 1088 	ldr.w	r1, [r2, #136]	; 0x88
 8002a1a:	9316      	str	r3, [sp, #88]	; 0x58
 8002a1c:	f8d2 3084 	ldr.w	r3, [r2, #132]	; 0x84
 8002a20:	9515      	str	r5, [sp, #84]	; 0x54
 8002a22:	6f95      	ldr	r5, [r2, #120]	; 0x78
 8002a24:	9414      	str	r4, [sp, #80]	; 0x50
 8002a26:	6f54      	ldr	r4, [r2, #116]	; 0x74
 8002a28:	9113      	str	r1, [sp, #76]	; 0x4c
 8002a2a:	6f11      	ldr	r1, [r2, #112]	; 0x70
 8002a2c:	9312      	str	r3, [sp, #72]	; 0x48
 8002a2e:	6ed3      	ldr	r3, [r2, #108]	; 0x6c
 8002a30:	9511      	str	r5, [sp, #68]	; 0x44
 8002a32:	f8d2 5080 	ldr.w	r5, [r2, #128]	; 0x80
 8002a36:	9410      	str	r4, [sp, #64]	; 0x40
 8002a38:	6fd4      	ldr	r4, [r2, #124]	; 0x7c
 8002a3a:	910f      	str	r1, [sp, #60]	; 0x3c
 8002a3c:	f8d2 1094 	ldr.w	r1, [r2, #148]	; 0x94
 8002a40:	930e      	str	r3, [sp, #56]	; 0x38
 8002a42:	6ad3      	ldr	r3, [r2, #44]	; 0x2c
 8002a44:	e9cd 450c 	strd	r4, r5, [sp, #48]	; 0x30
 8002a48:	e9cd 310a 	strd	r3, r1, [sp, #40]	; 0x28
 8002a4c:	e9d2 5309 	ldrd	r5, r3, [r2, #36]	; 0x24
 8002a50:	6b11      	ldr	r1, [r2, #48]	; 0x30
 8002a52:	68d4      	ldr	r4, [r2, #12]
 8002a54:	9109      	str	r1, [sp, #36]	; 0x24
 8002a56:	6951      	ldr	r1, [r2, #20]
 8002a58:	9308      	str	r3, [sp, #32]
 8002a5a:	6913      	ldr	r3, [r2, #16]
 8002a5c:	9507      	str	r5, [sp, #28]
 8002a5e:	6895      	ldr	r5, [r2, #8]
 8002a60:	9406      	str	r4, [sp, #24]
 8002a62:	6854      	ldr	r4, [r2, #4]
 8002a64:	9105      	str	r1, [sp, #20]
 8002a66:	6991      	ldr	r1, [r2, #24]
 8002a68:	9304      	str	r3, [sp, #16]
 8002a6a:	6a13      	ldr	r3, [r2, #32]
 8002a6c:	e9cd 4502 	strd	r4, r5, [sp, #8]
 8002a70:	e9cd 3100 	strd	r3, r1, [sp]
 8002a74:	f645 5048 	movw	r0, #23880	; 0x5d48
 8002a78:	f64f 21e4 	movw	r1, #64228	; 0xfae4
 8002a7c:	69d3      	ldr	r3, [r2, #28]
 8002a7e:	6812      	ldr	r2, [r2, #0]
 8002a80:	f6c0 0100 	movt	r1, #2048	; 0x800
 8002a84:	f2c2 0000 	movt	r0, #8192	; 0x2000
 8002a88:	f008 f974 	bl	800ad74 <siprintf>
 8002a8c:	b01b      	add	sp, #108	; 0x6c
 8002a8e:	bd30      	pop	{r4, r5, pc}

08002a90 <StartDefaultTask>:
 8002a90:	e92d 4ff0 	stmdb	sp!, {r4, r5, r6, r7, r8, r9, sl, fp, lr}
 8002a94:	f645 1690 	movw	r6, #22928	; 0x5990
 8002a98:	f2c2 0600 	movt	r6, #8192	; 0x2000
 8002a9c:	ed2d 8b02 	vpush	{d8}
 8002aa0:	6973      	ldr	r3, [r6, #20]
 8002aa2:	2b50      	cmp	r3, #80	; 0x50
 8002aa4:	b0b5      	sub	sp, #212	; 0xd4
 8002aa6:	f240 2340 	movw	r3, #576	; 0x240
 8002aaa:	d93b      	bls.n	8002b24 <StartDefaultTask+0x94>
 8002aac:	f2c2 0300 	movt	r3, #8192	; 0x2000
 8002ab0:	461c      	mov	r4, r3
 8002ab2:	2201      	movs	r2, #1
 8002ab4:	2180      	movs	r1, #128	; 0x80
 8002ab6:	f04f 4090 	mov.w	r0, #1207959552	; 0x48000000
 8002aba:	930f      	str	r3, [sp, #60]	; 0x3c
 8002abc:	f002 fa9a 	bl	8004ff4 <HAL_GPIO_WritePin>
 8002ac0:	2300      	movs	r3, #0
 8002ac2:	6023      	str	r3, [r4, #0]
 8002ac4:	f645 34b0 	movw	r4, #23472	; 0x5bb0
 8002ac8:	2200      	movs	r2, #0
 8002aca:	f44f 7180 	mov.w	r1, #256	; 0x100
 8002ace:	f04f 4090 	mov.w	r0, #1207959552	; 0x48000000
 8002ad2:	f2c2 0400 	movt	r4, #8192	; 0x2000
 8002ad6:	f002 fa8d 	bl	8004ff4 <HAL_GPIO_WritePin>
 8002ada:	f7fe fe6d 	bl	80017b8 <RestoreStatisticsFromFLASH>
 8002ade:	4620      	mov	r0, r4
 8002ae0:	f000 ff3c 	bl	800395c <HAL_UART_MspInit>
 8002ae4:	6822      	ldr	r2, [r4, #0]
 8002ae6:	6813      	ldr	r3, [r2, #0]
 8002ae8:	f645 41c4 	movw	r1, #23748	; 0x5cc4
 8002aec:	f043 0310 	orr.w	r3, r3, #16
 8002af0:	6013      	str	r3, [r2, #0]
 8002af2:	f2c2 0100 	movt	r1, #8192	; 0x2000
 8002af6:	227f      	movs	r2, #127	; 0x7f
 8002af8:	4620      	mov	r0, r4
 8002afa:	f004 fd33 	bl	8007564 <HAL_UART_Receive_DMA>
 8002afe:	f246 1150 	movw	r1, #24912	; 0x6150
 8002b02:	f645 3004 	movw	r0, #23300	; 0x5b04
 8002b06:	f2c2 0100 	movt	r1, #8192	; 0x2000
 8002b0a:	f2c2 0000 	movt	r0, #8192	; 0x2000
 8002b0e:	2207      	movs	r2, #7
 8002b10:	f001 fd34 	bl	800457c <HAL_ADC_Start_DMA>
 8002b14:	ee08 0a10 	vmov	s16, r0
 8002b18:	b188      	cbz	r0, 8002b3e <StartDefaultTask+0xae>
 8002b1a:	b035      	add	sp, #212	; 0xd4
 8002b1c:	ecbd 8b02 	vpop	{d8}
 8002b20:	e8bd 8ff0 	ldmia.w	sp!, {r4, r5, r6, r7, r8, r9, sl, fp, pc}
 8002b24:	f2c2 0300 	movt	r3, #8192	; 0x2000
 8002b28:	461c      	mov	r4, r3
 8002b2a:	2200      	movs	r2, #0
 8002b2c:	2180      	movs	r1, #128	; 0x80
 8002b2e:	f04f 4090 	mov.w	r0, #1207959552	; 0x48000000
 8002b32:	930f      	str	r3, [sp, #60]	; 0x3c
 8002b34:	f002 fa5e 	bl	8004ff4 <HAL_GPIO_WritePin>
 8002b38:	2301      	movs	r3, #1
 8002b3a:	6023      	str	r3, [r4, #0]
 8002b3c:	e7c2      	b.n	8002ac4 <StartDefaultTask+0x34>
 8002b3e:	f44f 6080 	mov.w	r0, #1024	; 0x400
 8002b42:	f6c4 0000 	movt	r0, #18432	; 0x4800
 8002b46:	2201      	movs	r2, #1
 8002b48:	f44f 4100 	mov.w	r1, #32768	; 0x8000
 8002b4c:	f002 fa52 	bl	8004ff4 <HAL_GPIO_WritePin>
 8002b50:	f44f 6080 	mov.w	r0, #1024	; 0x400
 8002b54:	f6c4 0000 	movt	r0, #18432	; 0x4800
 8002b58:	2201      	movs	r2, #1
 8002b5a:	f44f 4180 	mov.w	r1, #16384	; 0x4000
 8002b5e:	f002 fa49 	bl	8004ff4 <HAL_GPIO_WritePin>
 8002b62:	f44f 6080 	mov.w	r0, #1024	; 0x400
 8002b66:	f6c4 0000 	movt	r0, #18432	; 0x4800
 8002b6a:	2201      	movs	r2, #1
 8002b6c:	f44f 5100 	mov.w	r1, #8192	; 0x2000
 8002b70:	f002 fa40 	bl	8004ff4 <HAL_GPIO_WritePin>
 8002b74:	f44f 6080 	mov.w	r0, #1024	; 0x400
 8002b78:	f6c4 0000 	movt	r0, #18432	; 0x4800
 8002b7c:	2201      	movs	r2, #1
 8002b7e:	f44f 5180 	mov.w	r1, #4096	; 0x1000
 8002b82:	f002 fa37 	bl	8004ff4 <HAL_GPIO_WritePin>
 8002b86:	f240 1591 	movw	r5, #401	; 0x191
 8002b8a:	21f0      	movs	r1, #240	; 0xf0
 8002b8c:	e9cd 1505 	strd	r1, r5, [sp, #20]
 8002b90:	f44f 7bdc 	mov.w	fp, #440	; 0x1b8
 8002b94:	f240 1159 	movw	r1, #345	; 0x159
 8002b98:	f640 1ec4 	movw	lr, #2500	; 0x9c4
 8002b9c:	f04f 0c16 	mov.w	ip, #22
 8002ba0:	e9cd b103 	strd	fp, r1, [sp, #12]
 8002ba4:	f244 6a50 	movw	sl, #18000	; 0x4650
 8002ba8:	f243 09d4 	movw	r9, #12500	; 0x30d4
 8002bac:	f04f 0823 	mov.w	r8, #35	; 0x23
 8002bb0:	2713      	movs	r7, #19
 8002bb2:	f44f 7387 	mov.w	r3, #270	; 0x10e
 8002bb6:	2250      	movs	r2, #80	; 0x50
 8002bb8:	f645 5048 	movw	r0, #23880	; 0x5d48
 8002bbc:	f24f 61fc 	movw	r1, #63228	; 0xf6fc
 8002bc0:	e9cd e809 	strd	lr, r8, [sp, #36]	; 0x24
 8002bc4:	e9cd 7c07 	strd	r7, ip, [sp, #28]
 8002bc8:	e9cd 9a0b 	strd	r9, sl, [sp, #44]	; 0x2c
 8002bcc:	f6c0 0100 	movt	r1, #2048	; 0x800
 8002bd0:	e9cd 3301 	strd	r3, r3, [sp, #4]
 8002bd4:	9200      	str	r2, [sp, #0]
 8002bd6:	2340      	movs	r3, #64	; 0x40
 8002bd8:	2201      	movs	r2, #1
 8002bda:	f2c2 0000 	movt	r0, #8192	; 0x2000
 8002bde:	f008 f8c9 	bl	800ad74 <siprintf>
 8002be2:	f645 5048 	movw	r0, #23880	; 0x5d48
 8002be6:	f2c2 0000 	movt	r0, #8192	; 0x2000
 8002bea:	f7fd faf1 	bl	80001d0 <strlen>
 8002bee:	f645 5148 	movw	r1, #23880	; 0x5d48
 8002bf2:	b282      	uxth	r2, r0
 8002bf4:	f2c2 0100 	movt	r1, #8192	; 0x2000
 8002bf8:	4620      	mov	r0, r4
 8002bfa:	f003 ff15 	bl	8006a28 <HAL_UART_Transmit_DMA>
 8002bfe:	2005      	movs	r0, #5
 8002c00:	f004 fd70 	bl	80076e4 <osDelay>
 8002c04:	f44f 6080 	mov.w	r0, #1024	; 0x400
 8002c08:	ee18 2a10 	vmov	r2, s16
 8002c0c:	f6c4 0000 	movt	r0, #18432	; 0x4800
 8002c10:	f44f 4100 	mov.w	r1, #32768	; 0x8000
 8002c14:	f002 f9ee 	bl	8004ff4 <HAL_GPIO_WritePin>
 8002c18:	f44f 6080 	mov.w	r0, #1024	; 0x400
 8002c1c:	ee18 2a10 	vmov	r2, s16
 8002c20:	f6c4 0000 	movt	r0, #18432	; 0x4800
 8002c24:	f44f 4180 	mov.w	r1, #16384	; 0x4000
 8002c28:	f002 f9e4 	bl	8004ff4 <HAL_GPIO_WritePin>
 8002c2c:	f44f 6080 	mov.w	r0, #1024	; 0x400
 8002c30:	ee18 2a10 	vmov	r2, s16
 8002c34:	f6c4 0000 	movt	r0, #18432	; 0x4800
 8002c38:	f44f 5100 	mov.w	r1, #8192	; 0x2000
 8002c3c:	f002 f9da 	bl	8004ff4 <HAL_GPIO_WritePin>
 8002c40:	f44f 6080 	mov.w	r0, #1024	; 0x400
 8002c44:	ee18 2a10 	vmov	r2, s16
 8002c48:	f6c4 0000 	movt	r0, #18432	; 0x4800
 8002c4c:	f44f 5180 	mov.w	r1, #4096	; 0x1000
 8002c50:	f002 f9d0 	bl	8004ff4 <HAL_GPIO_WritePin>
 8002c54:	f44f 6080 	mov.w	r0, #1024	; 0x400
 8002c58:	2101      	movs	r1, #1
 8002c5a:	f6c4 0000 	movt	r0, #18432	; 0x4800
 8002c5e:	f002 f9c3 	bl	8004fe8 <HAL_GPIO_ReadPin>
 8002c62:	f645 198c 	movw	r9, #22924	; 0x598c
 8002c66:	f2c2 0900 	movt	r9, #8192	; 0x2000
 8002c6a:	4603      	mov	r3, r0
 8002c6c:	f44f 6000 	mov.w	r0, #2048	; 0x800
 8002c70:	2110      	movs	r1, #16
 8002c72:	f6c4 0000 	movt	r0, #18432	; 0x4800
 8002c76:	f889 3000 	strb.w	r3, [r9]
 8002c7a:	f002 f9b5 	bl	8004fe8 <HAL_GPIO_ReadPin>
 8002c7e:	f899 2000 	ldrb.w	r2, [r9]
 8002c82:	4603      	mov	r3, r0
 8002c84:	f44f 6080 	mov.w	r0, #1024	; 0x400
 8002c88:	eb02 0343 	add.w	r3, r2, r3, lsl #1
 8002c8c:	2102      	movs	r1, #2
 8002c8e:	f6c4 0000 	movt	r0, #18432	; 0x4800
 8002c92:	f889 3000 	strb.w	r3, [r9]
 8002c96:	f002 f9a7 	bl	8004fe8 <HAL_GPIO_ReadPin>
 8002c9a:	f899 2000 	ldrb.w	r2, [r9]
 8002c9e:	4603      	mov	r3, r0
 8002ca0:	f44f 6000 	mov.w	r0, #2048	; 0x800
 8002ca4:	eb02 0383 	add.w	r3, r2, r3, lsl #2
 8002ca8:	2120      	movs	r1, #32
 8002caa:	f6c4 0000 	movt	r0, #18432	; 0x4800
 8002cae:	f889 3000 	strb.w	r3, [r9]
 8002cb2:	f002 f999 	bl	8004fe8 <HAL_GPIO_ReadPin>
 8002cb6:	f899 3000 	ldrb.w	r3, [r9]
 8002cba:	eb03 03c0 	add.w	r3, r3, r0, lsl #3
 8002cbe:	b2db      	uxtb	r3, r3
 8002cc0:	f44f 6080 	mov.w	r0, #1024	; 0x400
 8002cc4:	f003 0201 	and.w	r2, r3, #1
 8002cc8:	f6c4 0000 	movt	r0, #18432	; 0x4800
 8002ccc:	f44f 4100 	mov.w	r1, #32768	; 0x8000
 8002cd0:	f889 3000 	strb.w	r3, [r9]
 8002cd4:	f002 f98e 	bl	8004ff4 <HAL_GPIO_WritePin>
 8002cd8:	f899 2000 	ldrb.w	r2, [r9]
 8002cdc:	f44f 6080 	mov.w	r0, #1024	; 0x400
 8002ce0:	f002 0202 	and.w	r2, r2, #2
 8002ce4:	f6c4 0000 	movt	r0, #18432	; 0x4800
 8002ce8:	f44f 4180 	mov.w	r1, #16384	; 0x4000
 8002cec:	f002 f982 	bl	8004ff4 <HAL_GPIO_WritePin>
 8002cf0:	f899 2000 	ldrb.w	r2, [r9]
 8002cf4:	f44f 6080 	mov.w	r0, #1024	; 0x400
 8002cf8:	f002 0204 	and.w	r2, r2, #4
 8002cfc:	f6c4 0000 	movt	r0, #18432	; 0x4800
 8002d00:	f44f 5100 	mov.w	r1, #8192	; 0x2000
 8002d04:	f002 f976 	bl	8004ff4 <HAL_GPIO_WritePin>
 8002d08:	f899 2000 	ldrb.w	r2, [r9]
 8002d0c:	f44f 6080 	mov.w	r0, #1024	; 0x400
 8002d10:	f002 0208 	and.w	r2, r2, #8
 8002d14:	f44f 5180 	mov.w	r1, #4096	; 0x1000
 8002d18:	f6c4 0000 	movt	r0, #18432	; 0x4800
 8002d1c:	f002 f96a 	bl	8004ff4 <HAL_GPIO_WritePin>
 8002d20:	2032      	movs	r0, #50	; 0x32
 8002d22:	f004 fcdf 	bl	80076e4 <osDelay>
 8002d26:	f44f 6080 	mov.w	r0, #1024	; 0x400
 8002d2a:	ee18 2a10 	vmov	r2, s16
 8002d2e:	f6c4 0000 	movt	r0, #18432	; 0x4800
 8002d32:	f44f 4100 	mov.w	r1, #32768	; 0x8000
 8002d36:	f002 f95d 	bl	8004ff4 <HAL_GPIO_WritePin>
 8002d3a:	f44f 6080 	mov.w	r0, #1024	; 0x400
 8002d3e:	ee18 2a10 	vmov	r2, s16
 8002d42:	f6c4 0000 	movt	r0, #18432	; 0x4800
 8002d46:	f44f 4180 	mov.w	r1, #16384	; 0x4000
 8002d4a:	f002 f953 	bl	8004ff4 <HAL_GPIO_WritePin>
 8002d4e:	f44f 6080 	mov.w	r0, #1024	; 0x400
 8002d52:	ee18 2a10 	vmov	r2, s16
 8002d56:	f6c4 0000 	movt	r0, #18432	; 0x4800
 8002d5a:	f44f 5100 	mov.w	r1, #8192	; 0x2000
 8002d5e:	f002 f949 	bl	8004ff4 <HAL_GPIO_WritePin>
 8002d62:	f44f 6080 	mov.w	r0, #1024	; 0x400
 8002d66:	ee18 2a10 	vmov	r2, s16
 8002d6a:	f44f 5180 	mov.w	r1, #4096	; 0x1000
 8002d6e:	f6c4 0000 	movt	r0, #18432	; 0x4800
 8002d72:	f002 f93f 	bl	8004ff4 <HAL_GPIO_WritePin>
 8002d76:	f7ff fdeb 	bl	8002950 <PrintFlashStats2TxBuffer>
 8002d7a:	f645 5048 	movw	r0, #23880	; 0x5d48
 8002d7e:	f2c2 0000 	movt	r0, #8192	; 0x2000
 8002d82:	f7fd fa25 	bl	80001d0 <strlen>
 8002d86:	f645 5148 	movw	r1, #23880	; 0x5d48
 8002d8a:	b282      	uxth	r2, r0
 8002d8c:	f2c2 0100 	movt	r1, #8192	; 0x2000
 8002d90:	4620      	mov	r0, r4
 8002d92:	f003 fe49 	bl	8006a28 <HAL_UART_Transmit_DMA>
 8002d96:	f240 2c3c 	movw	ip, #572	; 0x23c
 8002d9a:	f8cd c05c 	str.w	ip, [sp, #92]	; 0x5c
 8002d9e:	f645 5344 	movw	r3, #23876	; 0x5d44
 8002da2:	f240 2c34 	movw	ip, #564	; 0x234
 8002da6:	f2c2 0300 	movt	r3, #8192	; 0x2000
 8002daa:	f8cd c060 	str.w	ip, [sp, #96]	; 0x60
 8002dae:	f240 2c38 	movw	ip, #568	; 0x238
 8002db2:	f8cd c048 	str.w	ip, [sp, #72]	; 0x48
 8002db6:	f645 5548 	movw	r5, #23880	; 0x5d48
 8002dba:	f240 2c58 	movw	ip, #600	; 0x258
 8002dbe:	f645 12f8 	movw	r2, #23032	; 0x59f8
 8002dc2:	6818      	ldr	r0, [r3, #0]
 8002dc4:	f8cd c040 	str.w	ip, [sp, #64]	; 0x40
 8002dc8:	2164      	movs	r1, #100	; 0x64
 8002dca:	f2c2 0500 	movt	r5, #8192	; 0x2000
 8002dce:	f645 1cb0 	movw	ip, #22960	; 0x59b0
 8002dd2:	9219      	str	r2, [sp, #100]	; 0x64
 8002dd4:	9511      	str	r5, [sp, #68]	; 0x44
 8002dd6:	f8cd c058 	str.w	ip, [sp, #88]	; 0x58
 8002dda:	f004 fcd5 	bl	8007788 <osTimerStart>
 8002dde:	9a19      	ldr	r2, [sp, #100]	; 0x64
 8002de0:	9b17      	ldr	r3, [sp, #92]	; 0x5c
 8002de2:	4611      	mov	r1, r2
 8002de4:	f2c2 0100 	movt	r1, #8192	; 0x2000
 8002de8:	9a18      	ldr	r2, [sp, #96]	; 0x60
 8002dea:	9119      	str	r1, [sp, #100]	; 0x64
 8002dec:	4619      	mov	r1, r3
 8002dee:	9b12      	ldr	r3, [sp, #72]	; 0x48
 8002df0:	f2c2 0200 	movt	r2, #8192	; 0x2000
 8002df4:	f2c2 0300 	movt	r3, #8192	; 0x2000
 8002df8:	9218      	str	r2, [sp, #96]	; 0x60
 8002dfa:	9312      	str	r3, [sp, #72]	; 0x48
 8002dfc:	9a10      	ldr	r2, [sp, #64]	; 0x40
 8002dfe:	9b16      	ldr	r3, [sp, #88]	; 0x58
 8002e00:	f645 2b08 	movw	fp, #23048	; 0x5a08
 8002e04:	f2c2 0b00 	movt	fp, #8192	; 0x2000
 8002e08:	f240 2444 	movw	r4, #580	; 0x244
 8002e0c:	f240 2748 	movw	r7, #584	; 0x248
 8002e10:	f645 4834 	movw	r8, #23604	; 0x5c34
 8002e14:	f240 2a4c 	movw	sl, #588	; 0x24c
 8002e18:	f2c2 0100 	movt	r1, #8192	; 0x2000
 8002e1c:	f2c2 0200 	movt	r2, #8192	; 0x2000
 8002e20:	f2c2 0300 	movt	r3, #8192	; 0x2000
 8002e24:	ee08 5a90 	vmov	s17, r5
 8002e28:	ed8b 8a25 	vstr	s16, [fp, #148]	; 0x94
 8002e2c:	ed8b 8a1f 	vstr	s16, [fp, #124]	; 0x7c
 8002e30:	f2c2 0400 	movt	r4, #8192	; 0x2000
 8002e34:	f2c2 0700 	movt	r7, #8192	; 0x2000
 8002e38:	f2c2 0800 	movt	r8, #8192	; 0x2000
 8002e3c:	9117      	str	r1, [sp, #92]	; 0x5c
 8002e3e:	f2c2 0a00 	movt	sl, #8192	; 0x2000
 8002e42:	9210      	str	r2, [sp, #64]	; 0x40
 8002e44:	9316      	str	r3, [sp, #88]	; 0x58
 8002e46:	f8cd b038 	str.w	fp, [sp, #56]	; 0x38
 8002e4a:	205a      	movs	r0, #90	; 0x5a
 8002e4c:	f004 fc4a 	bl	80076e4 <osDelay>
 8002e50:	2200      	movs	r2, #0
 8002e52:	f44f 7180 	mov.w	r1, #256	; 0x100
 8002e56:	f04f 4090 	mov.w	r0, #1207959552	; 0x48000000
 8002e5a:	f002 f8cb 	bl	8004ff4 <HAL_GPIO_WritePin>
 8002e5e:	6823      	ldr	r3, [r4, #0]
 8002e60:	b94b      	cbnz	r3, 8002e76 <StartDefaultTask+0x3e6>
 8002e62:	f8dd b038 	ldr.w	fp, [sp, #56]	; 0x38
 8002e66:	2002      	movs	r0, #2
 8002e68:	f004 fc3c 	bl	80076e4 <osDelay>
 8002e6c:	6823      	ldr	r3, [r4, #0]
 8002e6e:	2b00      	cmp	r3, #0
 8002e70:	d0f9      	beq.n	8002e66 <StartDefaultTask+0x3d6>
 8002e72:	f8cd b038 	str.w	fp, [sp, #56]	; 0x38
 8002e76:	683b      	ldr	r3, [r7, #0]
 8002e78:	2b03      	cmp	r3, #3
 8002e7a:	d062      	beq.n	8002f42 <StartDefaultTask+0x4b2>
 8002e7c:	2b02      	cmp	r3, #2
 8002e7e:	d065      	beq.n	8002f4c <StartDefaultTask+0x4bc>
 8002e80:	2b04      	cmp	r3, #4
 8002e82:	f000 8089 	beq.w	8002f98 <StartDefaultTask+0x508>
 8002e86:	2b05      	cmp	r3, #5
 8002e88:	f000 8106 	beq.w	8003098 <StartDefaultTask+0x608>
 8002e8c:	2b01      	cmp	r3, #1
 8002e8e:	f000 8133 	beq.w	80030f8 <StartDefaultTask+0x668>
 8002e92:	2b3c      	cmp	r3, #60	; 0x3c
 8002e94:	f000 80fd 	beq.w	8003092 <StartDefaultTask+0x602>
 8002e98:	b10b      	cbz	r3, 8002e9e <StartDefaultTask+0x40e>
 8002e9a:	3b01      	subs	r3, #1
 8002e9c:	603b      	str	r3, [r7, #0]
 8002e9e:	9a11      	ldr	r2, [sp, #68]	; 0x44
 8002ea0:	2300      	movs	r3, #0
 8002ea2:	7013      	strb	r3, [r2, #0]
 8002ea4:	ee18 0a90 	vmov	r0, s17
 8002ea8:	f7fd f992 	bl	80001d0 <strlen>
 8002eac:	4602      	mov	r2, r0
 8002eae:	f645 30b0 	movw	r0, #23472	; 0x5bb0
 8002eb2:	ee18 1a90 	vmov	r1, s17
 8002eb6:	b292      	uxth	r2, r2
 8002eb8:	f2c2 0000 	movt	r0, #8192	; 0x2000
 8002ebc:	f003 fdb4 	bl	8006a28 <HAL_UART_Transmit_DMA>
 8002ec0:	f8da 3000 	ldr.w	r3, [sl]
 8002ec4:	bb13      	cbnz	r3, 8002f0c <StartDefaultTask+0x47c>
 8002ec6:	f899 3000 	ldrb.w	r3, [r9]
 8002eca:	2b06      	cmp	r3, #6
 8002ecc:	d814      	bhi.n	8002ef8 <StartDefaultTask+0x468>
 8002ece:	6973      	ldr	r3, [r6, #20]
 8002ed0:	2b50      	cmp	r3, #80	; 0x50
 8002ed2:	d821      	bhi.n	8002f18 <StartDefaultTask+0x488>
 8002ed4:	6873      	ldr	r3, [r6, #4]
 8002ed6:	f5b3 7f87 	cmp.w	r3, #270	; 0x10e
 8002eda:	d804      	bhi.n	8002ee6 <StartDefaultTask+0x456>
 8002edc:	68b3      	ldr	r3, [r6, #8]
 8002ede:	f5b3 7fdc 	cmp.w	r3, #440	; 0x1b8
 8002ee2:	f240 8140 	bls.w	8003166 <StartDefaultTask+0x6d6>
 8002ee6:	f7ff faed 	bl	80024c4 <InverterOn_batteryAsBackup>
 8002eea:	9a0e      	ldr	r2, [sp, #56]	; 0x38
 8002eec:	f8d2 30a0 	ldr.w	r3, [r2, #160]	; 0xa0
 8002ef0:	3301      	adds	r3, #1
 8002ef2:	f8c2 30a0 	str.w	r3, [r2, #160]	; 0xa0
 8002ef6:	e7a8      	b.n	8002e4a <StartDefaultTask+0x3ba>
 8002ef8:	1fda      	subs	r2, r3, #7
 8002efa:	2a06      	cmp	r2, #6
 8002efc:	d819      	bhi.n	8002f32 <StartDefaultTask+0x4a2>
 8002efe:	69b3      	ldr	r3, [r6, #24]
 8002f00:	2b50      	cmp	r3, #80	; 0x50
 8002f02:	d94e      	bls.n	8002fa2 <StartDefaultTask+0x512>
 8002f04:	2300      	movs	r3, #0
 8002f06:	f889 3000 	strb.w	r3, [r9]
 8002f0a:	e79e      	b.n	8002e4a <StartDefaultTask+0x3ba>
 8002f0c:	f7fe fd08 	bl	8001920 <StoreStatistics2FLASH>
 8002f10:	2300      	movs	r3, #0
 8002f12:	f8ca 3000 	str.w	r3, [sl]
 8002f16:	e7d6      	b.n	8002ec6 <StartDefaultTask+0x436>
 8002f18:	2307      	movs	r3, #7
 8002f1a:	2201      	movs	r2, #1
 8002f1c:	2180      	movs	r1, #128	; 0x80
 8002f1e:	f04f 4090 	mov.w	r0, #1207959552	; 0x48000000
 8002f22:	f889 3000 	strb.w	r3, [r9]
 8002f26:	f002 f865 	bl	8004ff4 <HAL_GPIO_WritePin>
 8002f2a:	9a0f      	ldr	r2, [sp, #60]	; 0x3c
 8002f2c:	2300      	movs	r3, #0
 8002f2e:	6013      	str	r3, [r2, #0]
 8002f30:	e78b      	b.n	8002e4a <StartDefaultTask+0x3ba>
 8002f32:	2b0e      	cmp	r3, #14
 8002f34:	d189      	bne.n	8002e4a <StartDefaultTask+0x3ba>
 8002f36:	6973      	ldr	r3, [r6, #20]
 8002f38:	2b50      	cmp	r3, #80	; 0x50
 8002f3a:	d8ed      	bhi.n	8002f18 <StartDefaultTask+0x488>
 8002f3c:	f7ff fac2 	bl	80024c4 <InverterOn_batteryAsBackup>
 8002f40:	e783      	b.n	8002e4a <StartDefaultTask+0x3ba>
 8002f42:	2302      	movs	r3, #2
 8002f44:	603b      	str	r3, [r7, #0]
 8002f46:	f7ff fd55 	bl	80029f4 <ShowWhStats>
 8002f4a:	e7ab      	b.n	8002ea4 <StartDefaultTask+0x414>
 8002f4c:	e9d8 1010 	ldrd	r1, r0, [r8, #64]	; 0x40
 8002f50:	f8d8 203c 	ldr.w	r2, [r8, #60]	; 0x3c
 8002f54:	f8d8 3008 	ldr.w	r3, [r8, #8]
 8002f58:	9008      	str	r0, [sp, #32]
 8002f5a:	f8d8 000c 	ldr.w	r0, [r8, #12]
 8002f5e:	9107      	str	r1, [sp, #28]
 8002f60:	f8d8 1004 	ldr.w	r1, [r8, #4]
 8002f64:	9206      	str	r2, [sp, #24]
 8002f66:	f8d8 2000 	ldr.w	r2, [r8]
 8002f6a:	9305      	str	r3, [sp, #20]
 8002f6c:	f8d8 3010 	ldr.w	r3, [r8, #16]
 8002f70:	f8d8 5018 	ldr.w	r5, [r8, #24]
 8002f74:	9500      	str	r5, [sp, #0]
 8002f76:	e9cd 0303 	strd	r0, r3, [sp, #12]
 8002f7a:	e9cd 2101 	strd	r2, r1, [sp, #4]
 8002f7e:	2001      	movs	r0, #1
 8002f80:	f64f 4154 	movw	r1, #64596	; 0xfc54
 8002f84:	6038      	str	r0, [r7, #0]
 8002f86:	e9d8 2307 	ldrd	r2, r3, [r8, #28]
 8002f8a:	ee18 0a90 	vmov	r0, s17
 8002f8e:	f6c0 0100 	movt	r1, #2048	; 0x800
 8002f92:	f007 feef 	bl	800ad74 <siprintf>
 8002f96:	e785      	b.n	8002ea4 <StartDefaultTask+0x414>
 8002f98:	f7ff fcda 	bl	8002950 <PrintFlashStats2TxBuffer>
 8002f9c:	2300      	movs	r3, #0
 8002f9e:	603b      	str	r3, [r7, #0]
 8002fa0:	e780      	b.n	8002ea4 <StartDefaultTask+0x414>
 8002fa2:	6873      	ldr	r3, [r6, #4]
 8002fa4:	f5b3 7f87 	cmp.w	r3, #270	; 0x10e
 8002fa8:	d804      	bhi.n	8002fb4 <StartDefaultTask+0x524>
 8002faa:	68b3      	ldr	r3, [r6, #8]
 8002fac:	f5b3 7fdc 	cmp.w	r3, #440	; 0x1b8
 8002fb0:	f240 80d9 	bls.w	8003166 <StartDefaultTask+0x6d6>
 8002fb4:	9b10      	ldr	r3, [sp, #64]	; 0x40
 8002fb6:	980e      	ldr	r0, [sp, #56]	; 0x38
 8002fb8:	681b      	ldr	r3, [r3, #0]
 8002fba:	f8d0 20a0 	ldr.w	r2, [r0, #160]	; 0xa0
 8002fbe:	68f1      	ldr	r1, [r6, #12]
 8002fc0:	f203 1391 	addw	r3, r3, #401	; 0x191
 8002fc4:	3201      	adds	r2, #1
 8002fc6:	4299      	cmp	r1, r3
 8002fc8:	f8c0 20a0 	str.w	r2, [r0, #160]	; 0xa0
 8002fcc:	d202      	bcs.n	8002fd4 <StartDefaultTask+0x544>
 8002fce:	29f0      	cmp	r1, #240	; 0xf0
 8002fd0:	f200 80e2 	bhi.w	8003198 <StartDefaultTask+0x708>
 8002fd4:	6973      	ldr	r3, [r6, #20]
 8002fd6:	2b50      	cmp	r3, #80	; 0x50
 8002fd8:	f240 80c8 	bls.w	800316c <StartDefaultTask+0x6dc>
 8002fdc:	2201      	movs	r2, #1
 8002fde:	2180      	movs	r1, #128	; 0x80
 8002fe0:	f04f 4090 	mov.w	r0, #1207959552	; 0x48000000
 8002fe4:	f002 f806 	bl	8004ff4 <HAL_GPIO_WritePin>
 8002fe8:	9a0f      	ldr	r2, [sp, #60]	; 0x3c
 8002fea:	2300      	movs	r3, #0
 8002fec:	6013      	str	r3, [r2, #0]
 8002fee:	f246 116c 	movw	r1, #24940	; 0x616c
 8002ff2:	f2c2 0100 	movt	r1, #8192	; 0x2000
 8002ff6:	224c      	movs	r2, #76	; 0x4c
 8002ff8:	a821      	add	r0, sp, #132	; 0x84
 8002ffa:	f006 ff50 	bl	8009e9e <memcpy>
 8002ffe:	f04f 0b60 	mov.w	fp, #96	; 0x60
 8003002:	2300      	movs	r3, #0
 8003004:	f04f 0c00 	mov.w	ip, #0
 8003008:	461a      	mov	r2, r3
 800300a:	e9cd bc1a 	strd	fp, ip, [sp, #104]	; 0x68
 800300e:	a91a      	add	r1, sp, #104	; 0x68
 8003010:	f04f 0c08 	mov.w	ip, #8
 8003014:	f04f 0b00 	mov.w	fp, #0
 8003018:	a821      	add	r0, sp, #132	; 0x84
 800301a:	e9cd bc1c 	strd	fp, ip, [sp, #112]	; 0x70
 800301e:	931e      	str	r3, [sp, #120]	; 0x78
 8003020:	f003 f9d2 	bl	80063c8 <HAL_TIM_PWM_ConfigChannel>
 8003024:	2300      	movs	r3, #0
 8003026:	4619      	mov	r1, r3
 8003028:	a821      	add	r0, sp, #132	; 0x84
 800302a:	f003 f8f5 	bl	8006218 <HAL_TIM_PWM_Start>
 800302e:	2201      	movs	r2, #1
 8003030:	2140      	movs	r1, #64	; 0x40
 8003032:	f04f 4090 	mov.w	r0, #1207959552	; 0x48000000
 8003036:	f001 ffdd 	bl	8004ff4 <HAL_GPIO_WritePin>
 800303a:	2300      	movs	r3, #0
 800303c:	f246 106c 	movw	r0, #24940	; 0x616c
 8003040:	4619      	mov	r1, r3
 8003042:	f2c2 0000 	movt	r0, #8192	; 0x2000
 8003046:	f003 f95f 	bl	8006308 <HAL_TIM_PWM_Stop>
 800304a:	9b12      	ldr	r3, [sp, #72]	; 0x48
 800304c:	68f1      	ldr	r1, [r6, #12]
 800304e:	9810      	ldr	r0, [sp, #64]	; 0x40
 8003050:	9d16      	ldr	r5, [sp, #88]	; 0x58
 8003052:	461a      	mov	r2, r3
 8003054:	2300      	movs	r3, #0
 8003056:	6013      	str	r3, [r2, #0]
 8003058:	f5b1 7fc9 	cmp.w	r1, #402	; 0x192
 800305c:	f04f 0201 	mov.w	r2, #1
 8003060:	6003      	str	r3, [r0, #0]
 8003062:	622a      	str	r2, [r5, #32]
 8003064:	f4ff aef1 	bcc.w	8002e4a <StartDefaultTask+0x3ba>
 8003068:	980e      	ldr	r0, [sp, #56]	; 0x38
 800306a:	f8d5 c030 	ldr.w	ip, [r5, #48]	; 0x30
 800306e:	f8d0 3094 	ldr.w	r3, [r0, #148]	; 0x94
 8003072:	f8c0 3080 	str.w	r3, [r0, #128]	; 0x80
 8003076:	f1bc 0f00 	cmp.w	ip, #0
 800307a:	f040 8081 	bne.w	8003180 <StartDefaultTask+0x6f0>
 800307e:	6aa8      	ldr	r0, [r5, #40]	; 0x28
 8003080:	2800      	cmp	r0, #0
 8003082:	f000 8081 	beq.w	8003188 <StartDefaultTask+0x6f8>
 8003086:	980e      	ldr	r0, [sp, #56]	; 0x38
 8003088:	e9c5 c20b 	strd	ip, r2, [r5, #44]	; 0x2c
 800308c:	f8c0 109c 	str.w	r1, [r0, #156]	; 0x9c
 8003090:	e6db      	b.n	8002e4a <StartDefaultTask+0x3ba>
 8003092:	233b      	movs	r3, #59	; 0x3b
 8003094:	603b      	str	r3, [r7, #0]
 8003096:	e705      	b.n	8002ea4 <StartDefaultTask+0x414>
 8003098:	f244 6350 	movw	r3, #18000	; 0x4650
 800309c:	f243 02d4 	movw	r2, #12500	; 0x30d4
 80030a0:	2116      	movs	r1, #22
 80030a2:	930c      	str	r3, [sp, #48]	; 0x30
 80030a4:	2313      	movs	r3, #19
 80030a6:	f04f 0c23 	mov.w	ip, #35	; 0x23
 80030aa:	f640 10c4 	movw	r0, #2500	; 0x9c4
 80030ae:	920b      	str	r2, [sp, #44]	; 0x2c
 80030b0:	9108      	str	r1, [sp, #32]
 80030b2:	f240 1291 	movw	r2, #401	; 0x191
 80030b6:	f44f 71dc 	mov.w	r1, #440	; 0x1b8
 80030ba:	9307      	str	r3, [sp, #28]
 80030bc:	f44f 7387 	mov.w	r3, #270	; 0x10e
 80030c0:	e9cd 3102 	strd	r3, r1, [sp, #8]
 80030c4:	f8cd c028 	str.w	ip, [sp, #40]	; 0x28
 80030c8:	9009      	str	r0, [sp, #36]	; 0x24
 80030ca:	f04f 0cf0 	mov.w	ip, #240	; 0xf0
 80030ce:	f240 1059 	movw	r0, #345	; 0x159
 80030d2:	9206      	str	r2, [sp, #24]
 80030d4:	f24f 61fc 	movw	r1, #63228	; 0xf6fc
 80030d8:	2250      	movs	r2, #80	; 0x50
 80030da:	e9cd 2300 	strd	r2, r3, [sp]
 80030de:	e9cd 0c04 	strd	r0, ip, [sp, #16]
 80030e2:	2340      	movs	r3, #64	; 0x40
 80030e4:	ee18 0a90 	vmov	r0, s17
 80030e8:	2201      	movs	r2, #1
 80030ea:	f6c0 0100 	movt	r1, #2048	; 0x800
 80030ee:	f007 fe41 	bl	800ad74 <siprintf>
 80030f2:	2300      	movs	r3, #0
 80030f4:	603b      	str	r3, [r7, #0]
 80030f6:	e6d5      	b.n	8002ea4 <StartDefaultTask+0x414>
 80030f8:	9d19      	ldr	r5, [sp, #100]	; 0x64
 80030fa:	9917      	ldr	r1, [sp, #92]	; 0x5c
 80030fc:	686b      	ldr	r3, [r5, #4]
 80030fe:	9300      	str	r3, [sp, #0]
 8003100:	6808      	ldr	r0, [r1, #0]
 8003102:	e9d6 2102 	ldrd	r2, r1, [r6, #8]
 8003106:	2300      	movs	r3, #0
 8003108:	603b      	str	r3, [r7, #0]
 800310a:	6873      	ldr	r3, [r6, #4]
 800310c:	910c      	str	r1, [sp, #48]	; 0x30
 800310e:	930a      	str	r3, [sp, #40]	; 0x28
 8003110:	6971      	ldr	r1, [r6, #20]
 8003112:	9b18      	ldr	r3, [sp, #96]	; 0x60
 8003114:	900d      	str	r0, [sp, #52]	; 0x34
 8003116:	920b      	str	r2, [sp, #44]	; 0x2c
 8003118:	9113      	str	r1, [sp, #76]	; 0x4c
 800311a:	6831      	ldr	r1, [r6, #0]
 800311c:	681b      	ldr	r3, [r3, #0]
 800311e:	9109      	str	r1, [sp, #36]	; 0x24
 8003120:	9912      	ldr	r1, [sp, #72]	; 0x48
 8003122:	69b0      	ldr	r0, [r6, #24]
 8003124:	6809      	ldr	r1, [r1, #0]
 8003126:	9008      	str	r0, [sp, #32]
 8003128:	980f      	ldr	r0, [sp, #60]	; 0x3c
 800312a:	9114      	str	r1, [sp, #80]	; 0x50
 800312c:	9913      	ldr	r1, [sp, #76]	; 0x4c
 800312e:	6800      	ldr	r0, [r0, #0]
 8003130:	6932      	ldr	r2, [r6, #16]
 8003132:	9107      	str	r1, [sp, #28]
 8003134:	9015      	str	r0, [sp, #84]	; 0x54
 8003136:	f899 0000 	ldrb.w	r0, [r9]
 800313a:	9206      	str	r2, [sp, #24]
 800313c:	6829      	ldr	r1, [r5, #0]
 800313e:	9305      	str	r3, [sp, #20]
 8003140:	462a      	mov	r2, r5
 8003142:	460d      	mov	r5, r1
 8003144:	9914      	ldr	r1, [sp, #80]	; 0x50
 8003146:	6893      	ldr	r3, [r2, #8]
 8003148:	9104      	str	r1, [sp, #16]
 800314a:	9915      	ldr	r1, [sp, #84]	; 0x54
 800314c:	68d2      	ldr	r2, [r2, #12]
 800314e:	9103      	str	r1, [sp, #12]
 8003150:	f64f 41ec 	movw	r1, #64748	; 0xfcec
 8003154:	9002      	str	r0, [sp, #8]
 8003156:	f6c0 0100 	movt	r1, #2048	; 0x800
 800315a:	ee18 0a90 	vmov	r0, s17
 800315e:	9501      	str	r5, [sp, #4]
 8003160:	f007 fe08 	bl	800ad74 <siprintf>
 8003164:	e69e      	b.n	8002ea4 <StartDefaultTask+0x414>
 8003166:	f7ff fb03 	bl	8002770 <DischargeProcedure>
 800316a:	e66e      	b.n	8002e4a <StartDefaultTask+0x3ba>
 800316c:	2200      	movs	r2, #0
 800316e:	2180      	movs	r1, #128	; 0x80
 8003170:	f04f 4090 	mov.w	r0, #1207959552	; 0x48000000
 8003174:	f001 ff3e 	bl	8004ff4 <HAL_GPIO_WritePin>
 8003178:	9a0f      	ldr	r2, [sp, #60]	; 0x3c
 800317a:	2301      	movs	r3, #1
 800317c:	6013      	str	r3, [r2, #0]
 800317e:	e736      	b.n	8002fee <StartDefaultTask+0x55e>
 8003180:	6aab      	ldr	r3, [r5, #40]	; 0x28
 8003182:	2b00      	cmp	r3, #0
 8003184:	f47f ae61 	bne.w	8002e4a <StartDefaultTask+0x3ba>
 8003188:	9916      	ldr	r1, [sp, #88]	; 0x58
 800318a:	2201      	movs	r2, #1
 800318c:	628a      	str	r2, [r1, #40]	; 0x28
 800318e:	9a0e      	ldr	r2, [sp, #56]	; 0x38
 8003190:	2300      	movs	r3, #0
 8003192:	624b      	str	r3, [r1, #36]	; 0x24
 8003194:	67d3      	str	r3, [r2, #124]	; 0x7c
 8003196:	e658      	b.n	8002e4a <StartDefaultTask+0x3ba>
 8003198:	9d12      	ldr	r5, [sp, #72]	; 0x48
 800319a:	682b      	ldr	r3, [r5, #0]
 800319c:	bb83      	cbnz	r3, 8003200 <StartDefaultTask+0x770>
 800319e:	461a      	mov	r2, r3
 80031a0:	2140      	movs	r1, #64	; 0x40
 80031a2:	f04f 4090 	mov.w	r0, #1207959552	; 0x48000000
 80031a6:	9313      	str	r3, [sp, #76]	; 0x4c
 80031a8:	f001 ff24 	bl	8004ff4 <HAL_GPIO_WritePin>
 80031ac:	f246 116c 	movw	r1, #24940	; 0x616c
 80031b0:	f2c2 0100 	movt	r1, #8192	; 0x2000
 80031b4:	224c      	movs	r2, #76	; 0x4c
 80031b6:	a821      	add	r0, sp, #132	; 0x84
 80031b8:	f006 fe71 	bl	8009e9e <memcpy>
 80031bc:	9b13      	ldr	r3, [sp, #76]	; 0x4c
 80031be:	931e      	str	r3, [sp, #120]	; 0x78
 80031c0:	f04f 0b60 	mov.w	fp, #96	; 0x60
 80031c4:	f44f 7cfa 	mov.w	ip, #500	; 0x1f4
 80031c8:	461a      	mov	r2, r3
 80031ca:	e9cd bc1a 	strd	fp, ip, [sp, #104]	; 0x68
 80031ce:	a91a      	add	r1, sp, #104	; 0x68
 80031d0:	f04f 0c08 	mov.w	ip, #8
 80031d4:	f04f 0b00 	mov.w	fp, #0
 80031d8:	a821      	add	r0, sp, #132	; 0x84
 80031da:	e9cd bc1c 	strd	fp, ip, [sp, #112]	; 0x70
 80031de:	f003 f8f3 	bl	80063c8 <HAL_TIM_PWM_ConfigChannel>
 80031e2:	9b13      	ldr	r3, [sp, #76]	; 0x4c
 80031e4:	a821      	add	r0, sp, #132	; 0x84
 80031e6:	4619      	mov	r1, r3
 80031e8:	f003 f816 	bl	8006218 <HAL_TIM_PWM_Start>
 80031ec:	9b13      	ldr	r3, [sp, #76]	; 0x4c
 80031ee:	f246 106c 	movw	r0, #24940	; 0x616c
 80031f2:	4619      	mov	r1, r3
 80031f4:	f2c2 0000 	movt	r0, #8192	; 0x2000
 80031f8:	f003 f80e 	bl	8006218 <HAL_TIM_PWM_Start>
 80031fc:	2301      	movs	r3, #1
 80031fe:	602b      	str	r3, [r5, #0]
 8003200:	2201      	movs	r2, #1
 8003202:	2180      	movs	r1, #128	; 0x80
 8003204:	f04f 4090 	mov.w	r0, #1207959552	; 0x48000000
 8003208:	f001 fef4 	bl	8004ff4 <HAL_GPIO_WritePin>
 800320c:	980f      	ldr	r0, [sp, #60]	; 0x3c
 800320e:	2200      	movs	r2, #0
 8003210:	6002      	str	r2, [r0, #0]
 8003212:	9816      	ldr	r0, [sp, #88]	; 0x58
 8003214:	6282      	str	r2, [r0, #40]	; 0x28
 8003216:	9a10      	ldr	r2, [sp, #64]	; 0x40
 8003218:	2301      	movs	r3, #1
 800321a:	2113      	movs	r1, #19
 800321c:	6011      	str	r1, [r2, #0]
 800321e:	6003      	str	r3, [r0, #0]
 8003220:	6403      	str	r3, [r0, #64]	; 0x40
 8003222:	e612      	b.n	8002e4a <StartDefaultTask+0x3ba>

08003224 <Callback01>:
 8003224:	e92d 4ff8 	stmdb	sp!, {r3, r4, r5, r6, r7, r8, r9, sl, fp, lr}
 8003228:	f240 2360 	movw	r3, #608	; 0x260
 800322c:	f2c2 0300 	movt	r3, #8192	; 0x2000
 8003230:	ed2d 8b02 	vpush	{d8}
 8003234:	681a      	ldr	r2, [r3, #0]
 8003236:	2a00      	cmp	r2, #0
 8003238:	f000 81eb 	beq.w	8003612 <Callback01+0x3ee>
 800323c:	3a01      	subs	r2, #1
 800323e:	601a      	str	r2, [r3, #0]
 8003240:	f7fe fc60 	bl	8001b04 <Calculate_WattSeconds>
 8003244:	f246 1550 	movw	r5, #24912	; 0x6150
 8003248:	f645 3004 	movw	r0, #23300	; 0x5b04
 800324c:	f2c2 0500 	movt	r5, #8192	; 0x2000
 8003250:	f2c2 0000 	movt	r0, #8192	; 0x2000
 8003254:	f001 f952 	bl	80044fc <HAL_ADC_Start>
 8003258:	edd5 7a00 	vldr	s15, [r5]
 800325c:	eef8 7a67 	vcvt.f32.u32	s15, s15
 8003260:	eeb0 7a08 	vmov.f32	s14, #8	; 0x40400000  3.0
 8003264:	ee67 7a87 	vmul.f32	s15, s15, s14
 8003268:	ee17 0a90 	vmov	r0, s15
 800326c:	f7fd f96c 	bl	8000548 <__aeabi_f2d>
 8003270:	f64c 42cd 	movw	r2, #52429	; 0xcccd
 8003274:	f640 43cc 	movw	r3, #3276	; 0xccc
 8003278:	f6cc 42cc 	movt	r2, #52428	; 0xcccc
 800327c:	f2c4 0343 	movt	r3, #16451	; 0x4043
 8003280:	f7fd f804 	bl	800028c <__adddf3>
 8003284:	f24f 5358 	movw	r3, #62808	; 0xf558
 8003288:	f6c0 0300 	movt	r3, #2048	; 0x800
 800328c:	e9d3 2300 	ldrd	r2, r3, [r3]
 8003290:	4606      	mov	r6, r0
 8003292:	460f      	mov	r7, r1
 8003294:	f7fd fc22 	bl	8000adc <__aeabi_dcmplt>
 8003298:	2800      	cmp	r0, #0
 800329a:	f040 81b6 	bne.w	800360a <Callback01+0x3e6>
 800329e:	4630      	mov	r0, r6
 80032a0:	4639      	mov	r1, r7
 80032a2:	f7fd fc81 	bl	8000ba8 <__aeabi_d2uiz>
 80032a6:	4603      	mov	r3, r0
 80032a8:	edd5 7a01 	vldr	s15, [r5, #4]
 80032ac:	eef8 7a67 	vcvt.f32.u32	s15, s15
 80032b0:	eeb0 7a08 	vmov.f32	s14, #8	; 0x40400000  3.0
 80032b4:	f645 1490 	movw	r4, #22928	; 0x5990
 80032b8:	ee67 7a87 	vmul.f32	s15, s15, s14
 80032bc:	f2c2 0400 	movt	r4, #8192	; 0x2000
 80032c0:	ee17 0a90 	vmov	r0, s15
 80032c4:	6023      	str	r3, [r4, #0]
 80032c6:	f7fd f93f 	bl	8000548 <__aeabi_f2d>
 80032ca:	f64c 42cd 	movw	r2, #52429	; 0xcccd
 80032ce:	f640 43cc 	movw	r3, #3276	; 0xccc
 80032d2:	f6cc 42cc 	movt	r2, #52428	; 0xcccc
 80032d6:	f2c4 0343 	movt	r3, #16451	; 0x4043
 80032da:	f7fc ffd7 	bl	800028c <__adddf3>
 80032de:	f24f 5358 	movw	r3, #62808	; 0xf558
 80032e2:	f6c0 0300 	movt	r3, #2048	; 0x800
 80032e6:	e9d3 2300 	ldrd	r2, r3, [r3]
 80032ea:	4606      	mov	r6, r0
 80032ec:	460f      	mov	r7, r1
 80032ee:	f7fd fbf5 	bl	8000adc <__aeabi_dcmplt>
 80032f2:	2800      	cmp	r0, #0
 80032f4:	f040 818b 	bne.w	800360e <Callback01+0x3ea>
 80032f8:	4630      	mov	r0, r6
 80032fa:	4639      	mov	r1, r7
 80032fc:	f7fd fc54 	bl	8000ba8 <__aeabi_d2uiz>
 8003300:	edd5 7a02 	vldr	s15, [r5, #8]
 8003304:	6060      	str	r0, [r4, #4]
 8003306:	2300      	movs	r3, #0
 8003308:	f2c4 23c8 	movt	r3, #17096	; 0x42c8
 800330c:	ee08 3a90 	vmov	s17, r3
 8003310:	eef8 7a67 	vcvt.f32.u32	s15, s15
 8003314:	f44f 4370 	mov.w	r3, #61440	; 0xf000
 8003318:	f2c4 537f 	movt	r3, #17791	; 0x457f
 800331c:	ee08 3a10 	vmov	s16, r3
 8003320:	ee67 7aa8 	vmul.f32	s15, s15, s17
 8003324:	eec7 7a88 	vdiv.f32	s15, s15, s16
 8003328:	ee17 0a90 	vmov	r0, s15
 800332c:	f7fd f90c 	bl	8000548 <__aeabi_f2d>
 8003330:	f245 13eb 	movw	r3, #20971	; 0x51eb
 8003334:	f04f 4200 	mov.w	r2, #2147483648	; 0x80000000
 8003338:	f2c4 030a 	movt	r3, #16394	; 0x400a
 800333c:	f7fd f95c 	bl	80005f8 <__aeabi_dmul>
 8003340:	f44f 43c0 	mov.w	r3, #24576	; 0x6000
 8003344:	2200      	movs	r2, #0
 8003346:	f2c4 037e 	movt	r3, #16510	; 0x407e
 800334a:	f7fd f955 	bl	80005f8 <__aeabi_dmul>
 800334e:	2300      	movs	r3, #0
 8003350:	2200      	movs	r2, #0
 8003352:	f6c3 73b0 	movt	r3, #16304	; 0x3fb0
 8003356:	f7fd f94f 	bl	80005f8 <__aeabi_dmul>
 800335a:	f647 22e2 	movw	r2, #31458	; 0x7ae2
 800335e:	f24e 1347 	movw	r3, #57671	; 0xe147
 8003362:	f6ca 6214 	movt	r2, #44564	; 0xae14
 8003366:	f6c3 73ba 	movt	r3, #16314	; 0x3fba
 800336a:	f7fd f945 	bl	80005f8 <__aeabi_dmul>
 800336e:	f7fd fc1b 	bl	8000ba8 <__aeabi_d2uiz>
 8003372:	edd5 7a03 	vldr	s15, [r5, #12]
 8003376:	60a0      	str	r0, [r4, #8]
 8003378:	eef8 7a67 	vcvt.f32.u32	s15, s15
 800337c:	ee67 7aa8 	vmul.f32	s15, s15, s17
 8003380:	eec7 7a88 	vdiv.f32	s15, s15, s16
 8003384:	ee17 0a90 	vmov	r0, s15
 8003388:	f7fd f8de 	bl	8000548 <__aeabi_f2d>
 800338c:	f245 13eb 	movw	r3, #20971	; 0x51eb
 8003390:	f04f 4200 	mov.w	r2, #2147483648	; 0x80000000
 8003394:	f2c4 030a 	movt	r3, #16394	; 0x400a
 8003398:	f7fd f92e 	bl	80005f8 <__aeabi_dmul>
 800339c:	f44f 43c0 	mov.w	r3, #24576	; 0x6000
 80033a0:	2200      	movs	r2, #0
 80033a2:	f2c4 037e 	movt	r3, #16510	; 0x407e
 80033a6:	f7fd f927 	bl	80005f8 <__aeabi_dmul>
 80033aa:	2300      	movs	r3, #0
 80033ac:	2200      	movs	r2, #0
 80033ae:	f6c3 73b0 	movt	r3, #16304	; 0x3fb0
 80033b2:	f7fd f921 	bl	80005f8 <__aeabi_dmul>
 80033b6:	f647 22e2 	movw	r2, #31458	; 0x7ae2
 80033ba:	f24e 1347 	movw	r3, #57671	; 0xe147
 80033be:	f6ca 6214 	movt	r2, #44564	; 0xae14
 80033c2:	f6c3 73ba 	movt	r3, #16314	; 0x3fba
 80033c6:	f7fd f917 	bl	80005f8 <__aeabi_dmul>
 80033ca:	f7fd fbed 	bl	8000ba8 <__aeabi_d2uiz>
 80033ce:	60e0      	str	r0, [r4, #12]
 80033d0:	6928      	ldr	r0, [r5, #16]
 80033d2:	f7fd f897 	bl	8000504 <__aeabi_ui2d>
 80033d6:	2300      	movs	r3, #0
 80033d8:	2200      	movs	r2, #0
 80033da:	f2c4 0308 	movt	r3, #16392	; 0x4008
 80033de:	ec43 2b18 	vmov	d8, r2, r3
 80033e2:	4606      	mov	r6, r0
 80033e4:	460f      	mov	r7, r1
 80033e6:	eeb0 1a48 	vmov.f32	s2, s16
 80033ea:	eef0 1a68 	vmov.f32	s3, s17
 80033ee:	ec47 6b10 	vmov	d0, r6, r7
 80033f2:	f00b f8f5 	bl	800e5e0 <pow>
 80033f6:	4632      	mov	r2, r6
 80033f8:	463b      	mov	r3, r7
 80033fa:	4630      	mov	r0, r6
 80033fc:	4639      	mov	r1, r7
 80033fe:	ec5b ab10 	vmov	sl, fp, d0
 8003402:	f7fd f8f9 	bl	80005f8 <__aeabi_dmul>
 8003406:	f244 322d 	movw	r2, #17197	; 0x432d
 800340a:	f243 63e2 	movw	r3, #14050	; 0x36e2
 800340e:	f6ce 321c 	movt	r2, #60188	; 0xeb1c
 8003412:	f6c3 730a 	movt	r3, #16138	; 0x3f0a
 8003416:	f7fd f8ef 	bl	80005f8 <__aeabi_dmul>
 800341a:	f24f 7285 	movw	r2, #63365	; 0xf785
 800341e:	f241 0394 	movw	r3, #4244	; 0x1094
 8003422:	4680      	mov	r8, r0
 8003424:	4689      	mov	r9, r1
 8003426:	f2cd 6243 	movt	r2, #54851	; 0xd643
 800342a:	f6cb 633e 	movt	r3, #48702	; 0xbe3e
 800342e:	4650      	mov	r0, sl
 8003430:	4659      	mov	r1, fp
 8003432:	f7fd f8e1 	bl	80005f8 <__aeabi_dmul>
 8003436:	4602      	mov	r2, r0
 8003438:	460b      	mov	r3, r1
 800343a:	4640      	mov	r0, r8
 800343c:	4649      	mov	r1, r9
 800343e:	f7fc ff25 	bl	800028c <__adddf3>
 8003442:	f645 12b4 	movw	r2, #22964	; 0x59b4
 8003446:	f648 23da 	movw	r3, #35546	; 0x8ada
 800344a:	4680      	mov	r8, r0
 800344c:	4689      	mov	r9, r1
 800344e:	f6cb 12f5 	movt	r2, #47605	; 0xb9f5
 8003452:	f6c3 73bd 	movt	r3, #16317	; 0x3fbd
 8003456:	4630      	mov	r0, r6
 8003458:	4639      	mov	r1, r7
 800345a:	f7fd f8cd 	bl	80005f8 <__aeabi_dmul>
 800345e:	4602      	mov	r2, r0
 8003460:	460b      	mov	r3, r1
 8003462:	4640      	mov	r0, r8
 8003464:	4649      	mov	r1, r9
 8003466:	f7fc ff0f 	bl	8000288 <__aeabi_dsub>
 800346a:	f245 12ec 	movw	r2, #20972	; 0x51ec
 800346e:	f64e 3385 	movw	r3, #60293	; 0xeb85
 8003472:	f6c1 62b8 	movt	r2, #7864	; 0x1eb8
 8003476:	f2c4 035e 	movt	r3, #16478	; 0x405e
 800347a:	f7fc ff07 	bl	800028c <__adddf3>
 800347e:	f7fd fb93 	bl	8000ba8 <__aeabi_d2uiz>
 8003482:	380d      	subs	r0, #13
 8003484:	6120      	str	r0, [r4, #16]
 8003486:	6968      	ldr	r0, [r5, #20]
 8003488:	f7fd f83c 	bl	8000504 <__aeabi_ui2d>
 800348c:	eeb0 1a48 	vmov.f32	s2, s16
 8003490:	eef0 1a68 	vmov.f32	s3, s17
 8003494:	4606      	mov	r6, r0
 8003496:	460f      	mov	r7, r1
 8003498:	ec47 6b10 	vmov	d0, r6, r7
 800349c:	f00b f8a0 	bl	800e5e0 <pow>
 80034a0:	4632      	mov	r2, r6
 80034a2:	463b      	mov	r3, r7
 80034a4:	4630      	mov	r0, r6
 80034a6:	4639      	mov	r1, r7
 80034a8:	ec5b ab10 	vmov	sl, fp, d0
 80034ac:	f7fd f8a4 	bl	80005f8 <__aeabi_dmul>
 80034b0:	f244 322d 	movw	r2, #17197	; 0x432d
 80034b4:	f243 63e2 	movw	r3, #14050	; 0x36e2
 80034b8:	f6ce 321c 	movt	r2, #60188	; 0xeb1c
 80034bc:	f6c3 730a 	movt	r3, #16138	; 0x3f0a
 80034c0:	f7fd f89a 	bl	80005f8 <__aeabi_dmul>
 80034c4:	f24f 7285 	movw	r2, #63365	; 0xf785
 80034c8:	f241 0394 	movw	r3, #4244	; 0x1094
 80034cc:	4680      	mov	r8, r0
 80034ce:	4689      	mov	r9, r1
 80034d0:	f2cd 6243 	movt	r2, #54851	; 0xd643
 80034d4:	f6cb 633e 	movt	r3, #48702	; 0xbe3e
 80034d8:	4650      	mov	r0, sl
 80034da:	4659      	mov	r1, fp
 80034dc:	f7fd f88c 	bl	80005f8 <__aeabi_dmul>
 80034e0:	4602      	mov	r2, r0
 80034e2:	460b      	mov	r3, r1
 80034e4:	4640      	mov	r0, r8
 80034e6:	4649      	mov	r1, r9
 80034e8:	f7fc fed0 	bl	800028c <__adddf3>
 80034ec:	f645 12b4 	movw	r2, #22964	; 0x59b4
 80034f0:	f648 23da 	movw	r3, #35546	; 0x8ada
 80034f4:	4680      	mov	r8, r0
 80034f6:	4689      	mov	r9, r1
 80034f8:	f6cb 12f5 	movt	r2, #47605	; 0xb9f5
 80034fc:	f6c3 73bd 	movt	r3, #16317	; 0x3fbd
 8003500:	4630      	mov	r0, r6
 8003502:	4639      	mov	r1, r7
 8003504:	f7fd f878 	bl	80005f8 <__aeabi_dmul>
 8003508:	4602      	mov	r2, r0
 800350a:	460b      	mov	r3, r1
 800350c:	4640      	mov	r0, r8
 800350e:	4649      	mov	r1, r9
 8003510:	f7fc feba 	bl	8000288 <__aeabi_dsub>
 8003514:	f245 12ec 	movw	r2, #20972	; 0x51ec
 8003518:	f64e 3385 	movw	r3, #60293	; 0xeb85
 800351c:	f6c1 62b8 	movt	r2, #7864	; 0x1eb8
 8003520:	f2c4 035e 	movt	r3, #16478	; 0x405e
 8003524:	f7fc feb2 	bl	800028c <__adddf3>
 8003528:	f7fd fb3e 	bl	8000ba8 <__aeabi_d2uiz>
 800352c:	380d      	subs	r0, #13
 800352e:	6160      	str	r0, [r4, #20]
 8003530:	69a8      	ldr	r0, [r5, #24]
 8003532:	f7fc ffe7 	bl	8000504 <__aeabi_ui2d>
 8003536:	eeb0 1a48 	vmov.f32	s2, s16
 800353a:	eef0 1a68 	vmov.f32	s3, s17
 800353e:	4606      	mov	r6, r0
 8003540:	460f      	mov	r7, r1
 8003542:	ec47 6b10 	vmov	d0, r6, r7
 8003546:	f00b f84b 	bl	800e5e0 <pow>
 800354a:	4632      	mov	r2, r6
 800354c:	463b      	mov	r3, r7
 800354e:	4630      	mov	r0, r6
 8003550:	4639      	mov	r1, r7
 8003552:	ec5b ab10 	vmov	sl, fp, d0
 8003556:	f7fd f84f 	bl	80005f8 <__aeabi_dmul>
 800355a:	f244 322d 	movw	r2, #17197	; 0x432d
 800355e:	f243 63e2 	movw	r3, #14050	; 0x36e2
 8003562:	f6ce 321c 	movt	r2, #60188	; 0xeb1c
 8003566:	f6c3 730a 	movt	r3, #16138	; 0x3f0a
 800356a:	f7fd f845 	bl	80005f8 <__aeabi_dmul>
 800356e:	f24f 7285 	movw	r2, #63365	; 0xf785
 8003572:	f241 0394 	movw	r3, #4244	; 0x1094
 8003576:	4680      	mov	r8, r0
 8003578:	4689      	mov	r9, r1
 800357a:	f2cd 6243 	movt	r2, #54851	; 0xd643
 800357e:	f6cb 633e 	movt	r3, #48702	; 0xbe3e
 8003582:	4650      	mov	r0, sl
 8003584:	4659      	mov	r1, fp
 8003586:	f7fd f837 	bl	80005f8 <__aeabi_dmul>
 800358a:	4602      	mov	r2, r0
 800358c:	460b      	mov	r3, r1
 800358e:	4640      	mov	r0, r8
 8003590:	4649      	mov	r1, r9
 8003592:	f7fc fe7b 	bl	800028c <__adddf3>
 8003596:	f645 12b4 	movw	r2, #22964	; 0x59b4
 800359a:	f648 23da 	movw	r3, #35546	; 0x8ada
 800359e:	4680      	mov	r8, r0
 80035a0:	4689      	mov	r9, r1
 80035a2:	f6cb 12f5 	movt	r2, #47605	; 0xb9f5
 80035a6:	f6c3 73bd 	movt	r3, #16317	; 0x3fbd
 80035aa:	4630      	mov	r0, r6
 80035ac:	4639      	mov	r1, r7
 80035ae:	f7fd f823 	bl	80005f8 <__aeabi_dmul>
 80035b2:	4602      	mov	r2, r0
 80035b4:	460b      	mov	r3, r1
 80035b6:	4640      	mov	r0, r8
 80035b8:	4649      	mov	r1, r9
 80035ba:	f7fc fe65 	bl	8000288 <__aeabi_dsub>
 80035be:	f245 12ec 	movw	r2, #20972	; 0x51ec
 80035c2:	f64e 3385 	movw	r3, #60293	; 0xeb85
 80035c6:	f6c1 62b8 	movt	r2, #7864	; 0x1eb8
 80035ca:	f2c4 035e 	movt	r3, #16478	; 0x405e
 80035ce:	f7fc fe5d 	bl	800028c <__adddf3>
 80035d2:	f7fd fae9 	bl	8000ba8 <__aeabi_d2uiz>
 80035d6:	4603      	mov	r3, r0
 80035d8:	f44f 6080 	mov.w	r0, #1024	; 0x400
 80035dc:	3b0d      	subs	r3, #13
 80035de:	f44f 7100 	mov.w	r1, #512	; 0x200
 80035e2:	f6c4 0000 	movt	r0, #18432	; 0x4800
 80035e6:	61a3      	str	r3, [r4, #24]
 80035e8:	f001 fcfe 	bl	8004fe8 <HAL_GPIO_ReadPin>
 80035ec:	ecbd 8b02 	vpop	{d8}
 80035f0:	f240 223c 	movw	r2, #572	; 0x23c
 80035f4:	f240 2344 	movw	r3, #580	; 0x244
 80035f8:	f2c2 0200 	movt	r2, #8192	; 0x2000
 80035fc:	f2c2 0300 	movt	r3, #8192	; 0x2000
 8003600:	2101      	movs	r1, #1
 8003602:	6010      	str	r0, [r2, #0]
 8003604:	6019      	str	r1, [r3, #0]
 8003606:	e8bd 8ff8 	ldmia.w	sp!, {r3, r4, r5, r6, r7, r8, r9, sl, fp, pc}
 800360a:	2300      	movs	r3, #0
 800360c:	e64c      	b.n	80032a8 <Callback01+0x84>
 800360e:	2000      	movs	r0, #0
 8003610:	e676      	b.n	8003300 <Callback01+0xdc>
 8003612:	f645 14f8 	movw	r4, #23032	; 0x59f8
 8003616:	f2c2 0400 	movt	r4, #8192	; 0x2000
 800361a:	f240 2548 	movw	r5, #584	; 0x248
 800361e:	6823      	ldr	r3, [r4, #0]
 8003620:	f2c2 0500 	movt	r5, #8192	; 0x2000
 8003624:	3301      	adds	r3, #1
 8003626:	6023      	str	r3, [r4, #0]
 8003628:	f7fd fffc 	bl	8001624 <LedStatusShow>
 800362c:	682b      	ldr	r3, [r5, #0]
 800362e:	b90b      	cbnz	r3, 8003634 <Callback01+0x410>
 8003630:	2302      	movs	r3, #2
 8003632:	602b      	str	r3, [r5, #0]
 8003634:	f240 030c 	movw	r3, #12
 8003638:	f2c2 0300 	movt	r3, #8192	; 0x2000
 800363c:	681a      	ldr	r2, [r3, #0]
 800363e:	2a00      	cmp	r2, #0
 8003640:	f47f adfc 	bne.w	800323c <Callback01+0x18>
 8003644:	6861      	ldr	r1, [r4, #4]
 8003646:	6022      	str	r2, [r4, #0]
 8003648:	f44f 6080 	mov.w	r0, #1024	; 0x400
 800364c:	1c4a      	adds	r2, r1, #1
 800364e:	f6c4 0000 	movt	r0, #18432	; 0x4800
 8003652:	2101      	movs	r1, #1
 8003654:	f04f 093b 	mov.w	r9, #59	; 0x3b
 8003658:	6062      	str	r2, [r4, #4]
 800365a:	f8c3 9000 	str.w	r9, [r3]
 800365e:	f001 fcc3 	bl	8004fe8 <HAL_GPIO_ReadPin>
 8003662:	f645 168c 	movw	r6, #22924	; 0x598c
 8003666:	f2c2 0600 	movt	r6, #8192	; 0x2000
 800366a:	4603      	mov	r3, r0
 800366c:	f44f 6000 	mov.w	r0, #2048	; 0x800
 8003670:	2110      	movs	r1, #16
 8003672:	f6c4 0000 	movt	r0, #18432	; 0x4800
 8003676:	7033      	strb	r3, [r6, #0]
 8003678:	f001 fcb6 	bl	8004fe8 <HAL_GPIO_ReadPin>
 800367c:	7832      	ldrb	r2, [r6, #0]
 800367e:	4603      	mov	r3, r0
 8003680:	f44f 6080 	mov.w	r0, #1024	; 0x400
 8003684:	eb02 0343 	add.w	r3, r2, r3, lsl #1
 8003688:	2102      	movs	r1, #2
 800368a:	f6c4 0000 	movt	r0, #18432	; 0x4800
 800368e:	7033      	strb	r3, [r6, #0]
 8003690:	f001 fcaa 	bl	8004fe8 <HAL_GPIO_ReadPin>
 8003694:	7832      	ldrb	r2, [r6, #0]
 8003696:	4603      	mov	r3, r0
 8003698:	f44f 6000 	mov.w	r0, #2048	; 0x800
 800369c:	eb02 0383 	add.w	r3, r2, r3, lsl #2
 80036a0:	f240 0708 	movw	r7, #8
 80036a4:	f6c4 0000 	movt	r0, #18432	; 0x4800
 80036a8:	2120      	movs	r1, #32
 80036aa:	7033      	strb	r3, [r6, #0]
 80036ac:	f2c2 0700 	movt	r7, #8192	; 0x2000
 80036b0:	f001 fc9a 	bl	8004fe8 <HAL_GPIO_ReadPin>
 80036b4:	7833      	ldrb	r3, [r6, #0]
 80036b6:	f8d7 8000 	ldr.w	r8, [r7]
 80036ba:	eb03 00c0 	add.w	r0, r3, r0, lsl #3
 80036be:	2303      	movs	r3, #3
 80036c0:	7030      	strb	r0, [r6, #0]
 80036c2:	602b      	str	r3, [r5, #0]
 80036c4:	f1b8 0f00 	cmp.w	r8, #0
 80036c8:	d003      	beq.n	80036d2 <Callback01+0x4ae>
 80036ca:	f108 33ff 	add.w	r3, r8, #4294967295
 80036ce:	603b      	str	r3, [r7, #0]
 80036d0:	e5b6      	b.n	8003240 <Callback01+0x1c>
 80036d2:	f7fe fb13 	bl	8001cfc <Calculate_WattHours>
 80036d6:	f240 0304 	movw	r3, #4
 80036da:	f2c2 0300 	movt	r3, #8192	; 0x2000
 80036de:	68a0      	ldr	r0, [r4, #8]
 80036e0:	681a      	ldr	r2, [r3, #0]
 80036e2:	f8c7 9000 	str.w	r9, [r7]
 80036e6:	f240 214c 	movw	r1, #588	; 0x24c
 80036ea:	f2c2 0100 	movt	r1, #8192	; 0x2000
 80036ee:	3001      	adds	r0, #1
 80036f0:	2501      	movs	r5, #1
 80036f2:	f8c4 8004 	str.w	r8, [r4, #4]
 80036f6:	60a0      	str	r0, [r4, #8]
 80036f8:	600d      	str	r5, [r1, #0]
 80036fa:	2a00      	cmp	r2, #0
 80036fc:	f47f ad9e 	bne.w	800323c <Callback01+0x18>
 8003700:	68e1      	ldr	r1, [r4, #12]
 8003702:	60a2      	str	r2, [r4, #8]
 8003704:	3101      	adds	r1, #1
 8003706:	2217      	movs	r2, #23
 8003708:	60e1      	str	r1, [r4, #12]
 800370a:	601a      	str	r2, [r3, #0]
 800370c:	e598      	b.n	8003240 <Callback01+0x1c>
 800370e:	bf00      	nop

08003710 <HAL_TIM_PeriodElapsedCallback>:
 8003710:	6802      	ldr	r2, [r0, #0]
 8003712:	f44f 5380 	mov.w	r3, #4096	; 0x1000
 8003716:	f2c4 0300 	movt	r3, #16384	; 0x4000
 800371a:	429a      	cmp	r2, r3
 800371c:	d000      	beq.n	8003720 <HAL_TIM_PeriodElapsedCallback+0x10>
 800371e:	4770      	bx	lr
 8003720:	f000 bad8 	b.w	8003cd4 <HAL_IncTick>

08003724 <Error_Handler>:
 8003724:	b672      	cpsid	i
 8003726:	e7fe      	b.n	8003726 <Error_Handler+0x2>

08003728 <HAL_MspInit>:
 8003728:	f44f 5380 	mov.w	r3, #4096	; 0x1000
 800372c:	f2c4 0302 	movt	r3, #16386	; 0x4002
 8003730:	b082      	sub	sp, #8
 8003732:	6e19      	ldr	r1, [r3, #96]	; 0x60
 8003734:	f041 0101 	orr.w	r1, r1, #1
 8003738:	6619      	str	r1, [r3, #96]	; 0x60
 800373a:	6e19      	ldr	r1, [r3, #96]	; 0x60
 800373c:	f001 0101 	and.w	r1, r1, #1
 8003740:	9100      	str	r1, [sp, #0]
 8003742:	9900      	ldr	r1, [sp, #0]
 8003744:	6d99      	ldr	r1, [r3, #88]	; 0x58
 8003746:	f041 5180 	orr.w	r1, r1, #268435456	; 0x10000000
 800374a:	6599      	str	r1, [r3, #88]	; 0x58
 800374c:	6d9b      	ldr	r3, [r3, #88]	; 0x58
 800374e:	f003 5380 	and.w	r3, r3, #268435456	; 0x10000000
 8003752:	9301      	str	r3, [sp, #4]
 8003754:	9b01      	ldr	r3, [sp, #4]
 8003756:	2200      	movs	r2, #0
 8003758:	210f      	movs	r1, #15
 800375a:	f06f 0001 	mvn.w	r0, #1
 800375e:	b002      	add	sp, #8
 8003760:	f000 bf78 	b.w	8004654 <HAL_NVIC_SetPriority>

08003764 <HAL_ADC_MspInit>:
 8003764:	b570      	push	{r4, r5, r6, lr}
 8003766:	4604      	mov	r4, r0
 8003768:	b0a0      	sub	sp, #128	; 0x80
 800376a:	2100      	movs	r1, #0
 800376c:	225c      	movs	r2, #92	; 0x5c
 800376e:	a809      	add	r0, sp, #36	; 0x24
 8003770:	e9cd 1104 	strd	r1, r1, [sp, #16]
 8003774:	e9cd 1106 	strd	r1, r1, [sp, #24]
 8003778:	9108      	str	r1, [sp, #32]
 800377a:	f006 fb9e 	bl	8009eba <memset>
 800377e:	6822      	ldr	r2, [r4, #0]
 8003780:	2300      	movs	r3, #0
 8003782:	f2c5 0304 	movt	r3, #20484	; 0x5004
 8003786:	429a      	cmp	r2, r3
 8003788:	d001      	beq.n	800378e <HAL_ADC_MspInit+0x2a>
 800378a:	b020      	add	sp, #128	; 0x80
 800378c:	bd70      	pop	{r4, r5, r6, pc}
 800378e:	f44f 4280 	mov.w	r2, #16384	; 0x4000
 8003792:	f04f 5340 	mov.w	r3, #805306368	; 0x30000000
 8003796:	a809      	add	r0, sp, #36	; 0x24
 8003798:	9209      	str	r2, [sp, #36]	; 0x24
 800379a:	931d      	str	r3, [sp, #116]	; 0x74
 800379c:	f002 fa74 	bl	8005c88 <HAL_RCCEx_PeriphCLKConfig>
 80037a0:	2800      	cmp	r0, #0
 80037a2:	d153      	bne.n	800384c <HAL_ADC_MspInit+0xe8>
 80037a4:	f44f 5380 	mov.w	r3, #4096	; 0x1000
 80037a8:	f2c4 0302 	movt	r3, #16386	; 0x4002
 80037ac:	f44f 6000 	mov.w	r0, #2048	; 0x800
 80037b0:	6cda      	ldr	r2, [r3, #76]	; 0x4c
 80037b2:	f442 5200 	orr.w	r2, r2, #8192	; 0x2000
 80037b6:	64da      	str	r2, [r3, #76]	; 0x4c
 80037b8:	6cda      	ldr	r2, [r3, #76]	; 0x4c
 80037ba:	f402 5200 	and.w	r2, r2, #8192	; 0x2000
 80037be:	9201      	str	r2, [sp, #4]
 80037c0:	9a01      	ldr	r2, [sp, #4]
 80037c2:	6cda      	ldr	r2, [r3, #76]	; 0x4c
 80037c4:	f042 0204 	orr.w	r2, r2, #4
 80037c8:	64da      	str	r2, [r3, #76]	; 0x4c
 80037ca:	6cda      	ldr	r2, [r3, #76]	; 0x4c
 80037cc:	f002 0204 	and.w	r2, r2, #4
 80037d0:	9202      	str	r2, [sp, #8]
 80037d2:	9a02      	ldr	r2, [sp, #8]
 80037d4:	6cda      	ldr	r2, [r3, #76]	; 0x4c
 80037d6:	f042 0201 	orr.w	r2, r2, #1
 80037da:	64da      	str	r2, [r3, #76]	; 0x4c
 80037dc:	6cdb      	ldr	r3, [r3, #76]	; 0x4c
 80037de:	f003 0301 	and.w	r3, r3, #1
 80037e2:	9303      	str	r3, [sp, #12]
 80037e4:	2600      	movs	r6, #0
 80037e6:	220f      	movs	r2, #15
 80037e8:	230b      	movs	r3, #11
 80037ea:	9903      	ldr	r1, [sp, #12]
 80037ec:	9606      	str	r6, [sp, #24]
 80037ee:	f6c4 0000 	movt	r0, #18432	; 0x4800
 80037f2:	a904      	add	r1, sp, #16
 80037f4:	e9cd 2304 	strd	r2, r3, [sp, #16]
 80037f8:	f645 457c 	movw	r5, #23676	; 0x5c7c
 80037fc:	f001 faf0 	bl	8004de0 <HAL_GPIO_Init>
 8003800:	2207      	movs	r2, #7
 8003802:	230b      	movs	r3, #11
 8003804:	a904      	add	r1, sp, #16
 8003806:	f04f 4090 	mov.w	r0, #1207959552	; 0x48000000
 800380a:	f2c2 0500 	movt	r5, #8192	; 0x2000
 800380e:	e9cd 2304 	strd	r2, r3, [sp, #16]
 8003812:	9606      	str	r6, [sp, #24]
 8003814:	f001 fae4 	bl	8004de0 <HAL_GPIO_Init>
 8003818:	2308      	movs	r3, #8
 800381a:	f2c4 0302 	movt	r3, #16386	; 0x4002
 800381e:	2080      	movs	r0, #128	; 0x80
 8003820:	f44f 7100 	mov.w	r1, #512	; 0x200
 8003824:	f44f 6200 	mov.w	r2, #2048	; 0x800
 8003828:	602b      	str	r3, [r5, #0]
 800382a:	6128      	str	r0, [r5, #16]
 800382c:	2320      	movs	r3, #32
 800382e:	4628      	mov	r0, r5
 8003830:	e9c5 6601 	strd	r6, r6, [r5, #4]
 8003834:	e9c5 1205 	strd	r1, r2, [r5, #20]
 8003838:	60ee      	str	r6, [r5, #12]
 800383a:	622e      	str	r6, [r5, #32]
 800383c:	61eb      	str	r3, [r5, #28]
 800383e:	f000 ff51 	bl	80046e4 <HAL_DMA_Init>
 8003842:	b930      	cbnz	r0, 8003852 <HAL_ADC_MspInit+0xee>
 8003844:	64e5      	str	r5, [r4, #76]	; 0x4c
 8003846:	62ac      	str	r4, [r5, #40]	; 0x28
 8003848:	b020      	add	sp, #128	; 0x80
 800384a:	bd70      	pop	{r4, r5, r6, pc}
 800384c:	f7ff ff6a 	bl	8003724 <Error_Handler>
 8003850:	e7a8      	b.n	80037a4 <HAL_ADC_MspInit+0x40>
 8003852:	f7ff ff67 	bl	8003724 <Error_Handler>
 8003856:	e7f5      	b.n	8003844 <HAL_ADC_MspInit+0xe0>

08003858 <HAL_TIM_PWM_MspInit>:
 8003858:	6803      	ldr	r3, [r0, #0]
 800385a:	f1b3 4f80 	cmp.w	r3, #1073741824	; 0x40000000
 800385e:	d000      	beq.n	8003862 <HAL_TIM_PWM_MspInit+0xa>
 8003860:	4770      	bx	lr
 8003862:	f44f 5380 	mov.w	r3, #4096	; 0x1000
 8003866:	f2c4 0302 	movt	r3, #16386	; 0x4002
 800386a:	b082      	sub	sp, #8
 800386c:	6d9a      	ldr	r2, [r3, #88]	; 0x58
 800386e:	f042 0201 	orr.w	r2, r2, #1
 8003872:	659a      	str	r2, [r3, #88]	; 0x58
 8003874:	6d9b      	ldr	r3, [r3, #88]	; 0x58
 8003876:	f003 0301 	and.w	r3, r3, #1
 800387a:	9301      	str	r3, [sp, #4]
 800387c:	9b01      	ldr	r3, [sp, #4]
 800387e:	b002      	add	sp, #8
 8003880:	4770      	bx	lr
 8003882:	bf00      	nop

08003884 <HAL_TIM_Base_MspInit>:
 8003884:	6802      	ldr	r2, [r0, #0]
 8003886:	f44f 4388 	mov.w	r3, #17408	; 0x4400
 800388a:	f2c4 0301 	movt	r3, #16385	; 0x4001
 800388e:	429a      	cmp	r2, r3
 8003890:	d000      	beq.n	8003894 <HAL_TIM_Base_MspInit+0x10>
 8003892:	4770      	bx	lr
 8003894:	f44f 5380 	mov.w	r3, #4096	; 0x1000
 8003898:	f2c4 0302 	movt	r3, #16386	; 0x4002
 800389c:	b082      	sub	sp, #8
 800389e:	6e1a      	ldr	r2, [r3, #96]	; 0x60
 80038a0:	f442 3200 	orr.w	r2, r2, #131072	; 0x20000
 80038a4:	661a      	str	r2, [r3, #96]	; 0x60
 80038a6:	6e1b      	ldr	r3, [r3, #96]	; 0x60
 80038a8:	f403 3300 	and.w	r3, r3, #131072	; 0x20000
 80038ac:	9301      	str	r3, [sp, #4]
 80038ae:	9b01      	ldr	r3, [sp, #4]
 80038b0:	b002      	add	sp, #8
 80038b2:	4770      	bx	lr

080038b4 <HAL_TIM_MspPostInit>:
 80038b4:	b570      	push	{r4, r5, r6, lr}
 80038b6:	6802      	ldr	r2, [r0, #0]
 80038b8:	b088      	sub	sp, #32
 80038ba:	2300      	movs	r3, #0
 80038bc:	f1b2 4f80 	cmp.w	r2, #1073741824	; 0x40000000
 80038c0:	e9cd 3302 	strd	r3, r3, [sp, #8]
 80038c4:	e9cd 3304 	strd	r3, r3, [sp, #16]
 80038c8:	9306      	str	r3, [sp, #24]
 80038ca:	d007      	beq.n	80038dc <HAL_TIM_MspPostInit+0x28>
 80038cc:	f44f 4388 	mov.w	r3, #17408	; 0x4400
 80038d0:	f2c4 0301 	movt	r3, #16385	; 0x4001
 80038d4:	429a      	cmp	r2, r3
 80038d6:	d01f      	beq.n	8003918 <HAL_TIM_MspPostInit+0x64>
 80038d8:	b008      	add	sp, #32
 80038da:	bd70      	pop	{r4, r5, r6, pc}
 80038dc:	f44f 5380 	mov.w	r3, #4096	; 0x1000
 80038e0:	f2c4 0302 	movt	r3, #16386	; 0x4002
 80038e4:	2001      	movs	r0, #1
 80038e6:	6cda      	ldr	r2, [r3, #76]	; 0x4c
 80038e8:	f042 0201 	orr.w	r2, r2, #1
 80038ec:	64da      	str	r2, [r3, #76]	; 0x4c
 80038ee:	6cdb      	ldr	r3, [r3, #76]	; 0x4c
 80038f0:	9006      	str	r0, [sp, #24]
 80038f2:	f003 0301 	and.w	r3, r3, #1
 80038f6:	9300      	str	r3, [sp, #0]
 80038f8:	2200      	movs	r2, #0
 80038fa:	2300      	movs	r3, #0
 80038fc:	a902      	add	r1, sp, #8
 80038fe:	2420      	movs	r4, #32
 8003900:	2502      	movs	r5, #2
 8003902:	f04f 4090 	mov.w	r0, #1207959552	; 0x48000000
 8003906:	e9cd 4502 	strd	r4, r5, [sp, #8]
 800390a:	e9cd 2304 	strd	r2, r3, [sp, #16]
 800390e:	9e00      	ldr	r6, [sp, #0]
 8003910:	f001 fa66 	bl	8004de0 <HAL_GPIO_Init>
 8003914:	b008      	add	sp, #32
 8003916:	bd70      	pop	{r4, r5, r6, pc}
 8003918:	f44f 5380 	mov.w	r3, #4096	; 0x1000
 800391c:	f2c4 0302 	movt	r3, #16386	; 0x4002
 8003920:	f44f 6080 	mov.w	r0, #1024	; 0x400
 8003924:	6cda      	ldr	r2, [r3, #76]	; 0x4c
 8003926:	f042 0202 	orr.w	r2, r2, #2
 800392a:	64da      	str	r2, [r3, #76]	; 0x4c
 800392c:	6cdb      	ldr	r3, [r3, #76]	; 0x4c
 800392e:	f003 0302 	and.w	r3, r3, #2
 8003932:	9301      	str	r3, [sp, #4]
 8003934:	230e      	movs	r3, #14
 8003936:	9a01      	ldr	r2, [sp, #4]
 8003938:	9306      	str	r3, [sp, #24]
 800393a:	2200      	movs	r2, #0
 800393c:	2300      	movs	r3, #0
 800393e:	a902      	add	r1, sp, #8
 8003940:	f6c4 0000 	movt	r0, #18432	; 0x4800
 8003944:	f44f 7480 	mov.w	r4, #256	; 0x100
 8003948:	2502      	movs	r5, #2
 800394a:	e9cd 4502 	strd	r4, r5, [sp, #8]
 800394e:	e9cd 2304 	strd	r2, r3, [sp, #16]
 8003952:	f001 fa45 	bl	8004de0 <HAL_GPIO_Init>
 8003956:	b008      	add	sp, #32
 8003958:	bd70      	pop	{r4, r5, r6, pc}
 800395a:	bf00      	nop

0800395c <HAL_UART_MspInit>:
 800395c:	b5f0      	push	{r4, r5, r6, r7, lr}
 800395e:	2400      	movs	r4, #0
 8003960:	b09f      	sub	sp, #124	; 0x7c
 8003962:	4605      	mov	r5, r0
 8003964:	225c      	movs	r2, #92	; 0x5c
 8003966:	4621      	mov	r1, r4
 8003968:	a807      	add	r0, sp, #28
 800396a:	e9cd 4402 	strd	r4, r4, [sp, #8]
 800396e:	e9cd 4404 	strd	r4, r4, [sp, #16]
 8003972:	9406      	str	r4, [sp, #24]
 8003974:	f006 faa1 	bl	8009eba <memset>
 8003978:	682a      	ldr	r2, [r5, #0]
 800397a:	f44f 5360 	mov.w	r3, #14336	; 0x3800
 800397e:	f2c4 0301 	movt	r3, #16385	; 0x4001
 8003982:	429a      	cmp	r2, r3
 8003984:	d001      	beq.n	800398a <HAL_UART_MspInit+0x2e>
 8003986:	b01f      	add	sp, #124	; 0x7c
 8003988:	bdf0      	pop	{r4, r5, r6, r7, pc}
 800398a:	2301      	movs	r3, #1
 800398c:	a807      	add	r0, sp, #28
 800398e:	940f      	str	r4, [sp, #60]	; 0x3c
 8003990:	9307      	str	r3, [sp, #28]
 8003992:	f002 f979 	bl	8005c88 <HAL_RCCEx_PeriphCLKConfig>
 8003996:	2800      	cmp	r0, #0
 8003998:	d174      	bne.n	8003a84 <HAL_UART_MspInit+0x128>
 800399a:	f44f 5380 	mov.w	r3, #4096	; 0x1000
 800399e:	f2c4 0302 	movt	r3, #16386	; 0x4002
 80039a2:	2407      	movs	r4, #7
 80039a4:	6e1a      	ldr	r2, [r3, #96]	; 0x60
 80039a6:	f442 4280 	orr.w	r2, r2, #16384	; 0x4000
 80039aa:	661a      	str	r2, [r3, #96]	; 0x60
 80039ac:	6e1a      	ldr	r2, [r3, #96]	; 0x60
 80039ae:	f402 4280 	and.w	r2, r2, #16384	; 0x4000
 80039b2:	9200      	str	r2, [sp, #0]
 80039b4:	9a00      	ldr	r2, [sp, #0]
 80039b6:	6cda      	ldr	r2, [r3, #76]	; 0x4c
 80039b8:	f042 0201 	orr.w	r2, r2, #1
 80039bc:	64da      	str	r2, [r3, #76]	; 0x4c
 80039be:	6cdb      	ldr	r3, [r3, #76]	; 0x4c
 80039c0:	9406      	str	r4, [sp, #24]
 80039c2:	f003 0301 	and.w	r3, r3, #1
 80039c6:	9301      	str	r3, [sp, #4]
 80039c8:	2200      	movs	r2, #0
 80039ca:	9b01      	ldr	r3, [sp, #4]
 80039cc:	f44f 7600 	mov.w	r6, #512	; 0x200
 80039d0:	2302      	movs	r3, #2
 80039d2:	a902      	add	r1, sp, #8
 80039d4:	f04f 4090 	mov.w	r0, #1207959552	; 0x48000000
 80039d8:	2702      	movs	r7, #2
 80039da:	e9cd 2304 	strd	r2, r3, [sp, #16]
 80039de:	e9cd 6702 	strd	r6, r7, [sp, #8]
 80039e2:	f001 f9fd 	bl	8004de0 <HAL_GPIO_Init>
 80039e6:	f44f 6280 	mov.w	r2, #1024	; 0x400
 80039ea:	2302      	movs	r3, #2
 80039ec:	e9cd 2302 	strd	r2, r3, [sp, #8]
 80039f0:	a902      	add	r1, sp, #8
 80039f2:	2201      	movs	r2, #1
 80039f4:	2302      	movs	r3, #2
 80039f6:	f04f 4090 	mov.w	r0, #1207959552	; 0x48000000
 80039fa:	f645 3668 	movw	r6, #23400	; 0x5b68
 80039fe:	f2c2 0600 	movt	r6, #8192	; 0x2000
 8003a02:	e9cd 2304 	strd	r2, r3, [sp, #16]
 8003a06:	9406      	str	r4, [sp, #24]
 8003a08:	f001 f9ea 	bl	8004de0 <HAL_GPIO_Init>
 8003a0c:	f44f 6390 	mov.w	r3, #1152	; 0x480
 8003a10:	f2c4 0302 	movt	r3, #16386	; 0x4002
 8003a14:	2402      	movs	r4, #2
 8003a16:	2180      	movs	r1, #128	; 0x80
 8003a18:	2220      	movs	r2, #32
 8003a1a:	6033      	str	r3, [r6, #0]
 8003a1c:	4630      	mov	r0, r6
 8003a1e:	2300      	movs	r3, #0
 8003a20:	e9c6 3302 	strd	r3, r3, [r6, #8]
 8003a24:	e9c6 3305 	strd	r3, r3, [r6, #20]
 8003a28:	6074      	str	r4, [r6, #4]
 8003a2a:	6131      	str	r1, [r6, #16]
 8003a2c:	61f2      	str	r2, [r6, #28]
 8003a2e:	6233      	str	r3, [r6, #32]
 8003a30:	f000 fe58 	bl	80046e4 <HAL_DMA_Init>
 8003a34:	bb60      	cbnz	r0, 8003a90 <HAL_UART_MspInit+0x134>
 8003a36:	f645 24b8 	movw	r4, #23224	; 0x5ab8
 8003a3a:	f2c2 0400 	movt	r4, #8192	; 0x2000
 8003a3e:	f240 436c 	movw	r3, #1132	; 0x46c
 8003a42:	f2c4 0302 	movt	r3, #16386	; 0x4002
 8003a46:	2702      	movs	r7, #2
 8003a48:	2110      	movs	r1, #16
 8003a4a:	2280      	movs	r2, #128	; 0x80
 8003a4c:	6023      	str	r3, [r4, #0]
 8003a4e:	672e      	str	r6, [r5, #112]	; 0x70
 8003a50:	2300      	movs	r3, #0
 8003a52:	4620      	mov	r0, r4
 8003a54:	e9c4 3203 	strd	r3, r2, [r4, #12]
 8003a58:	e9c4 3305 	strd	r3, r3, [r4, #20]
 8003a5c:	e9c4 3307 	strd	r3, r3, [r4, #28]
 8003a60:	62b5      	str	r5, [r6, #40]	; 0x28
 8003a62:	6067      	str	r7, [r4, #4]
 8003a64:	60a1      	str	r1, [r4, #8]
 8003a66:	f000 fe3d 	bl	80046e4 <HAL_DMA_Init>
 8003a6a:	b970      	cbnz	r0, 8003a8a <HAL_UART_MspInit+0x12e>
 8003a6c:	2200      	movs	r2, #0
 8003a6e:	2105      	movs	r1, #5
 8003a70:	66ec      	str	r4, [r5, #108]	; 0x6c
 8003a72:	2025      	movs	r0, #37	; 0x25
 8003a74:	62a5      	str	r5, [r4, #40]	; 0x28
 8003a76:	f000 fded 	bl	8004654 <HAL_NVIC_SetPriority>
 8003a7a:	2025      	movs	r0, #37	; 0x25
 8003a7c:	f000 fe24 	bl	80046c8 <HAL_NVIC_EnableIRQ>
 8003a80:	b01f      	add	sp, #124	; 0x7c
 8003a82:	bdf0      	pop	{r4, r5, r6, r7, pc}
 8003a84:	f7ff fe4e 	bl	8003724 <Error_Handler>
 8003a88:	e787      	b.n	800399a <HAL_UART_MspInit+0x3e>
 8003a8a:	f7ff fe4b 	bl	8003724 <Error_Handler>
 8003a8e:	e7ed      	b.n	8003a6c <HAL_UART_MspInit+0x110>
 8003a90:	f7ff fe48 	bl	8003724 <Error_Handler>
 8003a94:	e7cf      	b.n	8003a36 <HAL_UART_MspInit+0xda>
 8003a96:	bf00      	nop

08003a98 <HAL_InitTick>:
 8003a98:	b530      	push	{r4, r5, lr}
 8003a9a:	4601      	mov	r1, r0
 8003a9c:	b089      	sub	sp, #36	; 0x24
 8003a9e:	2200      	movs	r2, #0
 8003aa0:	2036      	movs	r0, #54	; 0x36
 8003aa2:	f000 fdd7 	bl	8004654 <HAL_NVIC_SetPriority>
 8003aa6:	2036      	movs	r0, #54	; 0x36
 8003aa8:	f000 fe0e 	bl	80046c8 <HAL_NVIC_EnableIRQ>
 8003aac:	f44f 5380 	mov.w	r3, #4096	; 0x1000
 8003ab0:	f2c4 0302 	movt	r3, #16386	; 0x4002
 8003ab4:	a901      	add	r1, sp, #4
 8003ab6:	6d9a      	ldr	r2, [r3, #88]	; 0x58
 8003ab8:	f042 0210 	orr.w	r2, r2, #16
 8003abc:	659a      	str	r2, [r3, #88]	; 0x58
 8003abe:	6d9b      	ldr	r3, [r3, #88]	; 0x58
 8003ac0:	f003 0310 	and.w	r3, r3, #16
 8003ac4:	9302      	str	r3, [sp, #8]
 8003ac6:	a803      	add	r0, sp, #12
 8003ac8:	9b02      	ldr	r3, [sp, #8]
 8003aca:	f002 f81f 	bl	8005b0c <HAL_RCC_GetClockConfig>
 8003ace:	f001 fff1 	bl	8005ab4 <HAL_RCC_GetPCLK1Freq>
 8003ad2:	f64d 6383 	movw	r3, #56963	; 0xde83
 8003ad6:	f2c4 331b 	movt	r3, #17179	; 0x431b
 8003ada:	fba3 3000 	umull	r3, r0, r3, r0
 8003ade:	f246 24b8 	movw	r4, #25272	; 0x62b8
 8003ae2:	f2c2 0400 	movt	r4, #8192	; 0x2000
 8003ae6:	0c83      	lsrs	r3, r0, #18
 8003ae8:	f44f 5180 	mov.w	r1, #4096	; 0x1000
 8003aec:	2200      	movs	r2, #0
 8003aee:	3b01      	subs	r3, #1
 8003af0:	f2c4 0100 	movt	r1, #16384	; 0x4000
 8003af4:	f240 35e7 	movw	r5, #999	; 0x3e7
 8003af8:	4620      	mov	r0, r4
 8003afa:	e9c4 1300 	strd	r1, r3, [r4]
 8003afe:	e9c4 5203 	strd	r5, r2, [r4, #12]
 8003b02:	60a2      	str	r2, [r4, #8]
 8003b04:	f002 fa64 	bl	8005fd0 <HAL_TIM_Base_Init>
 8003b08:	b110      	cbz	r0, 8003b10 <HAL_InitTick+0x78>
 8003b0a:	2001      	movs	r0, #1
 8003b0c:	b009      	add	sp, #36	; 0x24
 8003b0e:	bd30      	pop	{r4, r5, pc}
 8003b10:	4620      	mov	r0, r4
 8003b12:	f002 fad7 	bl	80060c4 <HAL_TIM_Base_Start_IT>
 8003b16:	b009      	add	sp, #36	; 0x24
 8003b18:	bd30      	pop	{r4, r5, pc}
 8003b1a:	bf00      	nop

08003b1c <NMI_Handler>:
 8003b1c:	e7fe      	b.n	8003b1c <NMI_Handler>
 8003b1e:	bf00      	nop

08003b20 <HardFault_Handler>:
 8003b20:	e7fe      	b.n	8003b20 <HardFault_Handler>
 8003b22:	bf00      	nop

08003b24 <MemManage_Handler>:
 8003b24:	e7fe      	b.n	8003b24 <MemManage_Handler>
 8003b26:	bf00      	nop

08003b28 <BusFault_Handler>:
 8003b28:	e7fe      	b.n	8003b28 <BusFault_Handler>
 8003b2a:	bf00      	nop

08003b2c <UsageFault_Handler>:
 8003b2c:	e7fe      	b.n	8003b2c <UsageFault_Handler>
 8003b2e:	bf00      	nop

08003b30 <DebugMon_Handler>:
 8003b30:	4770      	bx	lr
 8003b32:	bf00      	nop

08003b34 <DMA1_Channel1_IRQHandler>:
 8003b34:	f645 407c 	movw	r0, #23676	; 0x5c7c
 8003b38:	f2c2 0000 	movt	r0, #8192	; 0x2000
 8003b3c:	f000 bee0 	b.w	8004900 <HAL_DMA_IRQHandler>

08003b40 <USART1_IRQHandler>:
 8003b40:	b510      	push	{r4, lr}
 8003b42:	f645 34b0 	movw	r4, #23472	; 0x5bb0
 8003b46:	f2c2 0400 	movt	r4, #8192	; 0x2000
 8003b4a:	4620      	mov	r0, r4
 8003b4c:	f003 f854 	bl	8006bf8 <HAL_UART_IRQHandler>
 8003b50:	6823      	ldr	r3, [r4, #0]
 8003b52:	69db      	ldr	r3, [r3, #28]
 8003b54:	06db      	lsls	r3, r3, #27
 8003b56:	d400      	bmi.n	8003b5a <USART1_IRQHandler+0x1a>
 8003b58:	bd10      	pop	{r4, pc}
 8003b5a:	4620      	mov	r0, r4
 8003b5c:	e8bd 4010 	ldmia.w	sp!, {r4, lr}
 8003b60:	f7fe bbfe 	b.w	8002360 <HAL_UART_RxCpltCallback>

08003b64 <TIM6_DAC_IRQHandler>:
 8003b64:	f246 20b8 	movw	r0, #25272	; 0x62b8
 8003b68:	f2c2 0000 	movt	r0, #8192	; 0x2000
 8003b6c:	f002 be22 	b.w	80067b4 <HAL_TIM_IRQHandler>

08003b70 <DMA2_Channel6_IRQHandler>:
 8003b70:	f645 20b8 	movw	r0, #23224	; 0x5ab8
 8003b74:	f2c2 0000 	movt	r0, #8192	; 0x2000
 8003b78:	f000 bec2 	b.w	8004900 <HAL_DMA_IRQHandler>

08003b7c <DMA2_Channel7_IRQHandler>:
 8003b7c:	f645 3068 	movw	r0, #23400	; 0x5b68
 8003b80:	f2c2 0000 	movt	r0, #8192	; 0x2000
 8003b84:	f000 bebc 	b.w	8004900 <HAL_DMA_IRQHandler>

08003b88 <_getpid>:
 8003b88:	2001      	movs	r0, #1
 8003b8a:	4770      	bx	lr

08003b8c <_kill>:
 8003b8c:	b508      	push	{r3, lr}
 8003b8e:	f006 f863 	bl	8009c58 <__errno>
 8003b92:	2316      	movs	r3, #22
 8003b94:	6003      	str	r3, [r0, #0]
 8003b96:	f04f 30ff 	mov.w	r0, #4294967295
 8003b9a:	bd08      	pop	{r3, pc}

08003b9c <_exit>:
 8003b9c:	b508      	push	{r3, lr}
 8003b9e:	f006 f85b 	bl	8009c58 <__errno>
 8003ba2:	2316      	movs	r3, #22
 8003ba4:	6003      	str	r3, [r0, #0]
 8003ba6:	e7fe      	b.n	8003ba6 <_exit+0xa>

08003ba8 <_read>:
 8003ba8:	b570      	push	{r4, r5, r6, lr}
 8003baa:	1e16      	subs	r6, r2, #0
 8003bac:	dd07      	ble.n	8003bbe <_read+0x16>
 8003bae:	460c      	mov	r4, r1
 8003bb0:	198d      	adds	r5, r1, r6
 8003bb2:	f3af 8000 	nop.w
 8003bb6:	f804 0b01 	strb.w	r0, [r4], #1
 8003bba:	42a5      	cmp	r5, r4
 8003bbc:	d1f9      	bne.n	8003bb2 <_read+0xa>
 8003bbe:	4630      	mov	r0, r6
 8003bc0:	bd70      	pop	{r4, r5, r6, pc}
 8003bc2:	bf00      	nop

08003bc4 <_write>:
 8003bc4:	b570      	push	{r4, r5, r6, lr}
 8003bc6:	1e16      	subs	r6, r2, #0
 8003bc8:	dd07      	ble.n	8003bda <_write+0x16>
 8003bca:	460c      	mov	r4, r1
 8003bcc:	198d      	adds	r5, r1, r6
 8003bce:	f814 0b01 	ldrb.w	r0, [r4], #1
 8003bd2:	f3af 8000 	nop.w
 8003bd6:	42ac      	cmp	r4, r5
 8003bd8:	d1f9      	bne.n	8003bce <_write+0xa>
 8003bda:	4630      	mov	r0, r6
 8003bdc:	bd70      	pop	{r4, r5, r6, pc}
 8003bde:	bf00      	nop

08003be0 <_close>:
 8003be0:	f04f 30ff 	mov.w	r0, #4294967295
 8003be4:	4770      	bx	lr
 8003be6:	bf00      	nop

08003be8 <_fstat>:
 8003be8:	f44f 5300 	mov.w	r3, #8192	; 0x2000
 8003bec:	604b      	str	r3, [r1, #4]
 8003bee:	2000      	movs	r0, #0
 8003bf0:	4770      	bx	lr
 8003bf2:	bf00      	nop

08003bf4 <_isatty>:
 8003bf4:	2001      	movs	r0, #1
 8003bf6:	4770      	bx	lr

08003bf8 <_lseek>:
 8003bf8:	2000      	movs	r0, #0
 8003bfa:	4770      	bx	lr

08003bfc <_sbrk>:
 8003bfc:	f240 2164 	movw	r1, #612	; 0x264
 8003c00:	f2c2 0100 	movt	r1, #8192	; 0x2000
 8003c04:	b510      	push	{r4, lr}
 8003c06:	f240 0200 	movw	r2, #0
 8003c0a:	f240 4400 	movw	r4, #1024	; 0x400
 8003c0e:	680b      	ldr	r3, [r1, #0]
 8003c10:	f2c2 0201 	movt	r2, #8193	; 0x2001
 8003c14:	f2c0 0400 	movt	r4, #0
 8003c18:	1b12      	subs	r2, r2, r4
 8003c1a:	b12b      	cbz	r3, 8003c28 <_sbrk+0x2c>
 8003c1c:	4418      	add	r0, r3
 8003c1e:	4290      	cmp	r0, r2
 8003c20:	d80a      	bhi.n	8003c38 <_sbrk+0x3c>
 8003c22:	6008      	str	r0, [r1, #0]
 8003c24:	4618      	mov	r0, r3
 8003c26:	bd10      	pop	{r4, pc}
 8003c28:	f246 3358 	movw	r3, #25432	; 0x6358
 8003c2c:	f2c2 0300 	movt	r3, #8192	; 0x2000
 8003c30:	4418      	add	r0, r3
 8003c32:	4290      	cmp	r0, r2
 8003c34:	600b      	str	r3, [r1, #0]
 8003c36:	d9f4      	bls.n	8003c22 <_sbrk+0x26>
 8003c38:	f006 f80e 	bl	8009c58 <__errno>
 8003c3c:	230c      	movs	r3, #12
 8003c3e:	6003      	str	r3, [r0, #0]
 8003c40:	f04f 33ff 	mov.w	r3, #4294967295
 8003c44:	4618      	mov	r0, r3
 8003c46:	bd10      	pop	{r4, pc}

08003c48 <SystemInit>:
 8003c48:	f44f 436d 	mov.w	r3, #60672	; 0xed00
 8003c4c:	f2ce 0300 	movt	r3, #57344	; 0xe000
 8003c50:	f8d3 2088 	ldr.w	r2, [r3, #136]	; 0x88
 8003c54:	f442 0270 	orr.w	r2, r2, #15728640	; 0xf00000
 8003c58:	f8c3 2088 	str.w	r2, [r3, #136]	; 0x88
 8003c5c:	4770      	bx	lr
 8003c5e:	bf00      	nop

08003c60 <Reset_Handler>:
 8003c60:	f8df d034 	ldr.w	sp, [pc, #52]	; 8003c98 <LoopForever+0x2>
 8003c64:	f7ff fff0 	bl	8003c48 <SystemInit>
 8003c68:	480c      	ldr	r0, [pc, #48]	; (8003c9c <LoopForever+0x6>)
 8003c6a:	490d      	ldr	r1, [pc, #52]	; (8003ca0 <LoopForever+0xa>)
 8003c6c:	4a0d      	ldr	r2, [pc, #52]	; (8003ca4 <LoopForever+0xe>)
 8003c6e:	2300      	movs	r3, #0
 8003c70:	e002      	b.n	8003c78 <LoopCopyDataInit>

08003c72 <CopyDataInit>:
 8003c72:	58d4      	ldr	r4, [r2, r3]
 8003c74:	50c4      	str	r4, [r0, r3]
 8003c76:	3304      	adds	r3, #4

08003c78 <LoopCopyDataInit>:
 8003c78:	18c4      	adds	r4, r0, r3
 8003c7a:	428c      	cmp	r4, r1
 8003c7c:	d3f9      	bcc.n	8003c72 <CopyDataInit>
 8003c7e:	4a0a      	ldr	r2, [pc, #40]	; (8003ca8 <LoopForever+0x12>)
 8003c80:	4c0a      	ldr	r4, [pc, #40]	; (8003cac <LoopForever+0x16>)
 8003c82:	2300      	movs	r3, #0
 8003c84:	e001      	b.n	8003c8a <LoopFillZerobss>

08003c86 <FillZerobss>:
 8003c86:	6013      	str	r3, [r2, #0]
 8003c88:	3204      	adds	r2, #4

08003c8a <LoopFillZerobss>:
 8003c8a:	42a2      	cmp	r2, r4
 8003c8c:	d3fb      	bcc.n	8003c86 <FillZerobss>
 8003c8e:	f006 f8df 	bl	8009e50 <__libc_init_array>
 8003c92:	f7fe f8f5 	bl	8001e80 <main>

08003c96 <LoopForever>:
 8003c96:	e7fe      	b.n	8003c96 <LoopForever>
 8003c98:	20010000 	.word	0x20010000
 8003c9c:	20000000 	.word	0x20000000
 8003ca0:	20000218 	.word	0x20000218
 8003ca4:	08010338 	.word	0x08010338
 8003ca8:	20000218 	.word	0x20000218
 8003cac:	20006358 	.word	0x20006358

08003cb0 <ADC1_IRQHandler>:
 8003cb0:	e7fe      	b.n	8003cb0 <ADC1_IRQHandler>
	...

08003cb4 <HAL_Init>:
 8003cb4:	b510      	push	{r4, lr}
 8003cb6:	2003      	movs	r0, #3
 8003cb8:	f000 fcb6 	bl	8004628 <HAL_NVIC_SetPriorityGrouping>
 8003cbc:	200f      	movs	r0, #15
 8003cbe:	f7ff feeb 	bl	8003a98 <HAL_InitTick>
 8003cc2:	b110      	cbz	r0, 8003cca <HAL_Init+0x16>
 8003cc4:	2401      	movs	r4, #1
 8003cc6:	4620      	mov	r0, r4
 8003cc8:	bd10      	pop	{r4, pc}
 8003cca:	4604      	mov	r4, r0
 8003ccc:	f7ff fd2c 	bl	8003728 <HAL_MspInit>
 8003cd0:	4620      	mov	r0, r4
 8003cd2:	bd10      	pop	{r4, pc}

08003cd4 <HAL_IncTick>:
 8003cd4:	f246 3304 	movw	r3, #25348	; 0x6304
 8003cd8:	f240 0114 	movw	r1, #20
 8003cdc:	f2c2 0300 	movt	r3, #8192	; 0x2000
 8003ce0:	f2c2 0100 	movt	r1, #8192	; 0x2000
 8003ce4:	6818      	ldr	r0, [r3, #0]
 8003ce6:	780a      	ldrb	r2, [r1, #0]
 8003ce8:	4402      	add	r2, r0
 8003cea:	601a      	str	r2, [r3, #0]
 8003cec:	4770      	bx	lr
 8003cee:	bf00      	nop

08003cf0 <HAL_GetTick>:
 8003cf0:	f246 3304 	movw	r3, #25348	; 0x6304
 8003cf4:	f2c2 0300 	movt	r3, #8192	; 0x2000
 8003cf8:	6818      	ldr	r0, [r3, #0]
 8003cfa:	4770      	bx	lr

08003cfc <HAL_ADC_Init>:
 8003cfc:	b570      	push	{r4, r5, r6, lr}
 8003cfe:	b082      	sub	sp, #8
 8003d00:	2300      	movs	r3, #0
 8003d02:	9301      	str	r3, [sp, #4]
 8003d04:	2800      	cmp	r0, #0
 8003d06:	f000 80c1 	beq.w	8003e8c <HAL_ADC_Init+0x190>
 8003d0a:	6d45      	ldr	r5, [r0, #84]	; 0x54
 8003d0c:	4604      	mov	r4, r0
 8003d0e:	2d00      	cmp	r5, #0
 8003d10:	f000 8098 	beq.w	8003e44 <HAL_ADC_Init+0x148>
 8003d14:	6822      	ldr	r2, [r4, #0]
 8003d16:	6893      	ldr	r3, [r2, #8]
 8003d18:	009d      	lsls	r5, r3, #2
 8003d1a:	d505      	bpl.n	8003d28 <HAL_ADC_Init+0x2c>
 8003d1c:	6893      	ldr	r3, [r2, #8]
 8003d1e:	f023 4320 	bic.w	r3, r3, #2684354560	; 0xa0000000
 8003d22:	f023 033f 	bic.w	r3, r3, #63	; 0x3f
 8003d26:	6093      	str	r3, [r2, #8]
 8003d28:	6893      	ldr	r3, [r2, #8]
 8003d2a:	00d8      	lsls	r0, r3, #3
 8003d2c:	d41f      	bmi.n	8003d6e <HAL_ADC_Init+0x72>
 8003d2e:	f240 0110 	movw	r1, #16
 8003d32:	f2c2 0100 	movt	r1, #8192	; 0x2000
 8003d36:	f642 5063 	movw	r0, #11619	; 0x2d63
 8003d3a:	680b      	ldr	r3, [r1, #0]
 8003d3c:	6891      	ldr	r1, [r2, #8]
 8003d3e:	099b      	lsrs	r3, r3, #6
 8003d40:	f2c0 503e 	movt	r0, #1342	; 0x53e
 8003d44:	fba0 0303 	umull	r0, r3, r0, r3
 8003d48:	099b      	lsrs	r3, r3, #6
 8003d4a:	f021 4110 	bic.w	r1, r1, #2415919104	; 0x90000000
 8003d4e:	3301      	adds	r3, #1
 8003d50:	f021 013f 	bic.w	r1, r1, #63	; 0x3f
 8003d54:	005b      	lsls	r3, r3, #1
 8003d56:	f041 5180 	orr.w	r1, r1, #268435456	; 0x10000000
 8003d5a:	6091      	str	r1, [r2, #8]
 8003d5c:	9301      	str	r3, [sp, #4]
 8003d5e:	9b01      	ldr	r3, [sp, #4]
 8003d60:	b12b      	cbz	r3, 8003d6e <HAL_ADC_Init+0x72>
 8003d62:	9b01      	ldr	r3, [sp, #4]
 8003d64:	3b01      	subs	r3, #1
 8003d66:	9301      	str	r3, [sp, #4]
 8003d68:	9b01      	ldr	r3, [sp, #4]
 8003d6a:	2b00      	cmp	r3, #0
 8003d6c:	d1f9      	bne.n	8003d62 <HAL_ADC_Init+0x66>
 8003d6e:	6893      	ldr	r3, [r2, #8]
 8003d70:	00d9      	lsls	r1, r3, #3
 8003d72:	d459      	bmi.n	8003e28 <HAL_ADC_Init+0x12c>
 8003d74:	6d63      	ldr	r3, [r4, #84]	; 0x54
 8003d76:	f043 0310 	orr.w	r3, r3, #16
 8003d7a:	6563      	str	r3, [r4, #84]	; 0x54
 8003d7c:	6da3      	ldr	r3, [r4, #88]	; 0x58
 8003d7e:	f043 0301 	orr.w	r3, r3, #1
 8003d82:	65a3      	str	r3, [r4, #88]	; 0x58
 8003d84:	6893      	ldr	r3, [r2, #8]
 8003d86:	f013 0f04 	tst.w	r3, #4
 8003d8a:	f04f 0001 	mov.w	r0, #1
 8003d8e:	6d63      	ldr	r3, [r4, #84]	; 0x54
 8003d90:	d151      	bne.n	8003e36 <HAL_ADC_Init+0x13a>
 8003d92:	06db      	lsls	r3, r3, #27
 8003d94:	d44f      	bmi.n	8003e36 <HAL_ADC_Init+0x13a>
 8003d96:	6d63      	ldr	r3, [r4, #84]	; 0x54
 8003d98:	f423 7381 	bic.w	r3, r3, #258	; 0x102
 8003d9c:	f043 0302 	orr.w	r3, r3, #2
 8003da0:	6563      	str	r3, [r4, #84]	; 0x54
 8003da2:	6893      	ldr	r3, [r2, #8]
 8003da4:	07de      	lsls	r6, r3, #31
 8003da6:	d40f      	bmi.n	8003dc8 <HAL_ADC_Init+0xcc>
 8003da8:	2300      	movs	r3, #0
 8003daa:	f2c5 0304 	movt	r3, #20484	; 0x5004
 8003dae:	689b      	ldr	r3, [r3, #8]
 8003db0:	07dd      	lsls	r5, r3, #31
 8003db2:	d409      	bmi.n	8003dc8 <HAL_ADC_Init+0xcc>
 8003db4:	f44f 7140 	mov.w	r1, #768	; 0x300
 8003db8:	f2c5 0104 	movt	r1, #20484	; 0x5004
 8003dbc:	6865      	ldr	r5, [r4, #4]
 8003dbe:	688b      	ldr	r3, [r1, #8]
 8003dc0:	f423 137c 	bic.w	r3, r3, #4128768	; 0x3f0000
 8003dc4:	432b      	orrs	r3, r5
 8003dc6:	608b      	str	r3, [r1, #8]
 8003dc8:	e9d4 1502 	ldrd	r1, r5, [r4, #8]
 8003dcc:	6b63      	ldr	r3, [r4, #52]	; 0x34
 8003dce:	432b      	orrs	r3, r5
 8003dd0:	430b      	orrs	r3, r1
 8003dd2:	7e65      	ldrb	r5, [r4, #25]
 8003dd4:	f894 1020 	ldrb.w	r1, [r4, #32]
 8003dd8:	ea43 3345 	orr.w	r3, r3, r5, lsl #13
 8003ddc:	2901      	cmp	r1, #1
 8003dde:	ea43 4301 	orr.w	r3, r3, r1, lsl #16
 8003de2:	d04e      	beq.n	8003e82 <HAL_ADC_Init+0x186>
 8003de4:	6aa1      	ldr	r1, [r4, #40]	; 0x28
 8003de6:	b121      	cbz	r1, 8003df2 <HAL_ADC_Init+0xf6>
 8003de8:	6ae5      	ldr	r5, [r4, #44]	; 0x2c
 8003dea:	f401 7170 	and.w	r1, r1, #960	; 0x3c0
 8003dee:	4329      	orrs	r1, r5
 8003df0:	430b      	orrs	r3, r1
 8003df2:	68d5      	ldr	r5, [r2, #12]
 8003df4:	f24c 0107 	movw	r1, #49159	; 0xc007
 8003df8:	f6cf 71f0 	movt	r1, #65520	; 0xfff0
 8003dfc:	4029      	ands	r1, r5
 8003dfe:	430b      	orrs	r3, r1
 8003e00:	60d3      	str	r3, [r2, #12]
 8003e02:	6893      	ldr	r3, [r2, #8]
 8003e04:	0759      	lsls	r1, r3, #29
 8003e06:	d523      	bpl.n	8003e50 <HAL_ADC_Init+0x154>
 8003e08:	6893      	ldr	r3, [r2, #8]
 8003e0a:	6923      	ldr	r3, [r4, #16]
 8003e0c:	2b01      	cmp	r3, #1
 8003e0e:	d040      	beq.n	8003e92 <HAL_ADC_Init+0x196>
 8003e10:	6b13      	ldr	r3, [r2, #48]	; 0x30
 8003e12:	f023 030f 	bic.w	r3, r3, #15
 8003e16:	6313      	str	r3, [r2, #48]	; 0x30
 8003e18:	6d63      	ldr	r3, [r4, #84]	; 0x54
 8003e1a:	f023 0303 	bic.w	r3, r3, #3
 8003e1e:	f043 0301 	orr.w	r3, r3, #1
 8003e22:	6563      	str	r3, [r4, #84]	; 0x54
 8003e24:	b002      	add	sp, #8
 8003e26:	bd70      	pop	{r4, r5, r6, pc}
 8003e28:	6893      	ldr	r3, [r2, #8]
 8003e2a:	f013 0f04 	tst.w	r3, #4
 8003e2e:	f04f 0000 	mov.w	r0, #0
 8003e32:	6d63      	ldr	r3, [r4, #84]	; 0x54
 8003e34:	d0ad      	beq.n	8003d92 <HAL_ADC_Init+0x96>
 8003e36:	6d63      	ldr	r3, [r4, #84]	; 0x54
 8003e38:	2001      	movs	r0, #1
 8003e3a:	f043 0310 	orr.w	r3, r3, #16
 8003e3e:	6563      	str	r3, [r4, #84]	; 0x54
 8003e40:	b002      	add	sp, #8
 8003e42:	bd70      	pop	{r4, r5, r6, pc}
 8003e44:	f7ff fc8e 	bl	8003764 <HAL_ADC_MspInit>
 8003e48:	65a5      	str	r5, [r4, #88]	; 0x58
 8003e4a:	f884 5050 	strb.w	r5, [r4, #80]	; 0x50
 8003e4e:	e761      	b.n	8003d14 <HAL_ADC_Init+0x18>
 8003e50:	6893      	ldr	r3, [r2, #8]
 8003e52:	071b      	lsls	r3, r3, #28
 8003e54:	d4d9      	bmi.n	8003e0a <HAL_ADC_Init+0x10e>
 8003e56:	68d1      	ldr	r1, [r2, #12]
 8003e58:	f894 3030 	ldrb.w	r3, [r4, #48]	; 0x30
 8003e5c:	7e25      	ldrb	r5, [r4, #24]
 8003e5e:	f421 4180 	bic.w	r1, r1, #16384	; 0x4000
 8003e62:	005b      	lsls	r3, r3, #1
 8003e64:	f021 0102 	bic.w	r1, r1, #2
 8003e68:	ea43 3385 	orr.w	r3, r3, r5, lsl #14
 8003e6c:	430b      	orrs	r3, r1
 8003e6e:	60d3      	str	r3, [r2, #12]
 8003e70:	f894 3038 	ldrb.w	r3, [r4, #56]	; 0x38
 8003e74:	2b01      	cmp	r3, #1
 8003e76:	d014      	beq.n	8003ea2 <HAL_ADC_Init+0x1a6>
 8003e78:	6913      	ldr	r3, [r2, #16]
 8003e7a:	f023 0301 	bic.w	r3, r3, #1
 8003e7e:	6113      	str	r3, [r2, #16]
 8003e80:	e7c3      	b.n	8003e0a <HAL_ADC_Init+0x10e>
 8003e82:	6a61      	ldr	r1, [r4, #36]	; 0x24
 8003e84:	3901      	subs	r1, #1
 8003e86:	ea43 4341 	orr.w	r3, r3, r1, lsl #17
 8003e8a:	e7ab      	b.n	8003de4 <HAL_ADC_Init+0xe8>
 8003e8c:	2001      	movs	r0, #1
 8003e8e:	b002      	add	sp, #8
 8003e90:	bd70      	pop	{r4, r5, r6, pc}
 8003e92:	6b11      	ldr	r1, [r2, #48]	; 0x30
 8003e94:	69e3      	ldr	r3, [r4, #28]
 8003e96:	f021 010f 	bic.w	r1, r1, #15
 8003e9a:	3b01      	subs	r3, #1
 8003e9c:	430b      	orrs	r3, r1
 8003e9e:	6313      	str	r3, [r2, #48]	; 0x30
 8003ea0:	e7ba      	b.n	8003e18 <HAL_ADC_Init+0x11c>
 8003ea2:	e9d4 360f 	ldrd	r3, r6, [r4, #60]	; 0x3c
 8003ea6:	6911      	ldr	r1, [r2, #16]
 8003ea8:	6c65      	ldr	r5, [r4, #68]	; 0x44
 8003eaa:	f421 61ff 	bic.w	r1, r1, #2040	; 0x7f8
 8003eae:	f021 0104 	bic.w	r1, r1, #4
 8003eb2:	4333      	orrs	r3, r6
 8003eb4:	430b      	orrs	r3, r1
 8003eb6:	6ca1      	ldr	r1, [r4, #72]	; 0x48
 8003eb8:	432b      	orrs	r3, r5
 8003eba:	430b      	orrs	r3, r1
 8003ebc:	f043 0301 	orr.w	r3, r3, #1
 8003ec0:	6113      	str	r3, [r2, #16]
 8003ec2:	e7a2      	b.n	8003e0a <HAL_ADC_Init+0x10e>

08003ec4 <HAL_ADC_ConvCpltCallback>:
 8003ec4:	4770      	bx	lr
 8003ec6:	bf00      	nop

08003ec8 <HAL_ADC_ConvHalfCpltCallback>:
 8003ec8:	4770      	bx	lr
 8003eca:	bf00      	nop

08003ecc <ADC_DMAHalfConvCplt>:
 8003ecc:	b508      	push	{r3, lr}
 8003ece:	6a80      	ldr	r0, [r0, #40]	; 0x28
 8003ed0:	f7ff fffa 	bl	8003ec8 <HAL_ADC_ConvHalfCpltCallback>
 8003ed4:	bd08      	pop	{r3, pc}
 8003ed6:	bf00      	nop

08003ed8 <HAL_ADC_ErrorCallback>:
 8003ed8:	4770      	bx	lr
 8003eda:	bf00      	nop

08003edc <ADC_DMAConvCplt>:
 8003edc:	6a83      	ldr	r3, [r0, #40]	; 0x28
 8003ede:	6d5a      	ldr	r2, [r3, #84]	; 0x54
 8003ee0:	f012 0f50 	tst.w	r2, #80	; 0x50
 8003ee4:	b510      	push	{r4, lr}
 8003ee6:	6d5a      	ldr	r2, [r3, #84]	; 0x54
 8003ee8:	d11d      	bne.n	8003f26 <ADC_DMAConvCplt+0x4a>
 8003eea:	6819      	ldr	r1, [r3, #0]
 8003eec:	f442 7200 	orr.w	r2, r2, #512	; 0x200
 8003ef0:	655a      	str	r2, [r3, #84]	; 0x54
 8003ef2:	680a      	ldr	r2, [r1, #0]
 8003ef4:	f012 0f08 	tst.w	r2, #8
 8003ef8:	68ca      	ldr	r2, [r1, #12]
 8003efa:	d01b      	beq.n	8003f34 <ADC_DMAConvCplt+0x58>
 8003efc:	f412 6f40 	tst.w	r2, #3072	; 0xc00
 8003f00:	d10d      	bne.n	8003f1e <ADC_DMAConvCplt+0x42>
 8003f02:	68ca      	ldr	r2, [r1, #12]
 8003f04:	0494      	lsls	r4, r2, #18
 8003f06:	d40a      	bmi.n	8003f1e <ADC_DMAConvCplt+0x42>
 8003f08:	6d5a      	ldr	r2, [r3, #84]	; 0x54
 8003f0a:	f422 7280 	bic.w	r2, r2, #256	; 0x100
 8003f0e:	655a      	str	r2, [r3, #84]	; 0x54
 8003f10:	6d5a      	ldr	r2, [r3, #84]	; 0x54
 8003f12:	04d1      	lsls	r1, r2, #19
 8003f14:	d403      	bmi.n	8003f1e <ADC_DMAConvCplt+0x42>
 8003f16:	6d5a      	ldr	r2, [r3, #84]	; 0x54
 8003f18:	f042 0201 	orr.w	r2, r2, #1
 8003f1c:	655a      	str	r2, [r3, #84]	; 0x54
 8003f1e:	4618      	mov	r0, r3
 8003f20:	f7ff ffd0 	bl	8003ec4 <HAL_ADC_ConvCpltCallback>
 8003f24:	bd10      	pop	{r4, pc}
 8003f26:	06d2      	lsls	r2, r2, #27
 8003f28:	d40a      	bmi.n	8003f40 <ADC_DMAConvCplt+0x64>
 8003f2a:	6cdb      	ldr	r3, [r3, #76]	; 0x4c
 8003f2c:	e8bd 4010 	ldmia.w	sp!, {r4, lr}
 8003f30:	6b5b      	ldr	r3, [r3, #52]	; 0x34
 8003f32:	4718      	bx	r3
 8003f34:	0790      	lsls	r0, r2, #30
 8003f36:	d5e7      	bpl.n	8003f08 <ADC_DMAConvCplt+0x2c>
 8003f38:	4618      	mov	r0, r3
 8003f3a:	f7ff ffc3 	bl	8003ec4 <HAL_ADC_ConvCpltCallback>
 8003f3e:	e7f1      	b.n	8003f24 <ADC_DMAConvCplt+0x48>
 8003f40:	4618      	mov	r0, r3
 8003f42:	f7ff ffc9 	bl	8003ed8 <HAL_ADC_ErrorCallback>
 8003f46:	bd10      	pop	{r4, pc}

08003f48 <ADC_DMAError>:
 8003f48:	6a80      	ldr	r0, [r0, #40]	; 0x28
 8003f4a:	b508      	push	{r3, lr}
 8003f4c:	6d43      	ldr	r3, [r0, #84]	; 0x54
 8003f4e:	f043 0340 	orr.w	r3, r3, #64	; 0x40
 8003f52:	6543      	str	r3, [r0, #84]	; 0x54
 8003f54:	6d83      	ldr	r3, [r0, #88]	; 0x58
 8003f56:	f043 0304 	orr.w	r3, r3, #4
 8003f5a:	6583      	str	r3, [r0, #88]	; 0x58
 8003f5c:	f7ff ffbc 	bl	8003ed8 <HAL_ADC_ErrorCallback>
 8003f60:	bd08      	pop	{r3, pc}
 8003f62:	bf00      	nop

08003f64 <HAL_ADC_ConfigChannel>:
 8003f64:	b4f0      	push	{r4, r5, r6, r7}
 8003f66:	f890 2050 	ldrb.w	r2, [r0, #80]	; 0x50
 8003f6a:	b082      	sub	sp, #8
 8003f6c:	4603      	mov	r3, r0
 8003f6e:	2a01      	cmp	r2, #1
 8003f70:	f04f 0000 	mov.w	r0, #0
 8003f74:	9001      	str	r0, [sp, #4]
 8003f76:	f000 813e 	beq.w	80041f6 <HAL_ADC_ConfigChannel+0x292>
 8003f7a:	681c      	ldr	r4, [r3, #0]
 8003f7c:	2001      	movs	r0, #1
 8003f7e:	f883 0050 	strb.w	r0, [r3, #80]	; 0x50
 8003f82:	68a5      	ldr	r5, [r4, #8]
 8003f84:	f015 0504 	ands.w	r5, r5, #4
 8003f88:	d14c      	bne.n	8004024 <HAL_ADC_ConfigChannel+0xc0>
 8003f8a:	684a      	ldr	r2, [r1, #4]
 8003f8c:	2a05      	cmp	r2, #5
 8003f8e:	d953      	bls.n	8004038 <HAL_ADC_ConfigChannel+0xd4>
 8003f90:	f002 0c1f 	and.w	ip, r2, #31
 8003f94:	261f      	movs	r6, #31
 8003f96:	0992      	lsrs	r2, r2, #6
 8003f98:	fa06 f60c 	lsl.w	r6, r6, ip
 8003f9c:	f002 050c 	and.w	r5, r2, #12
 8003fa0:	43f7      	mvns	r7, r6
 8003fa2:	f104 0230 	add.w	r2, r4, #48	; 0x30
 8003fa6:	6808      	ldr	r0, [r1, #0]
 8003fa8:	5956      	ldr	r6, [r2, r5]
 8003faa:	f3c0 6084 	ubfx	r0, r0, #26, #5
 8003fae:	403e      	ands	r6, r7
 8003fb0:	fa00 f00c 	lsl.w	r0, r0, ip
 8003fb4:	4330      	orrs	r0, r6
 8003fb6:	5150      	str	r0, [r2, r5]
 8003fb8:	68a2      	ldr	r2, [r4, #8]
 8003fba:	0755      	lsls	r5, r2, #29
 8003fbc:	f140 80b4 	bpl.w	8004128 <HAL_ADC_ConfigChannel+0x1c4>
 8003fc0:	68a2      	ldr	r2, [r4, #8]
 8003fc2:	680a      	ldr	r2, [r1, #0]
 8003fc4:	68a0      	ldr	r0, [r4, #8]
 8003fc6:	07c0      	lsls	r0, r0, #31
 8003fc8:	d545      	bpl.n	8004056 <HAL_ADC_ConfigChannel+0xf2>
 8003fca:	4615      	mov	r5, r2
 8003fcc:	2200      	movs	r2, #0
 8003fce:	f2c8 0208 	movt	r2, #32776	; 0x8008
 8003fd2:	4215      	tst	r5, r2
 8003fd4:	d03d      	beq.n	8004052 <HAL_ADC_ConfigChannel+0xee>
 8003fd6:	f44f 7240 	mov.w	r2, #768	; 0x300
 8003fda:	f2c5 0204 	movt	r2, #20484	; 0x5004
 8003fde:	2100      	movs	r1, #0
 8003fe0:	6890      	ldr	r0, [r2, #8]
 8003fe2:	f2cc 7152 	movt	r1, #51026	; 0xc752
 8003fe6:	428d      	cmp	r5, r1
 8003fe8:	f000 76e0 	and.w	r6, r0, #29360128	; 0x1c00000
 8003fec:	d02e      	beq.n	800404c <HAL_ADC_ConfigChannel+0xe8>
 8003fee:	2100      	movs	r1, #0
 8003ff0:	f6cc 3184 	movt	r1, #52100	; 0xcb84
 8003ff4:	428d      	cmp	r5, r1
 8003ff6:	f000 8102 	beq.w	80041fe <HAL_ADC_ConfigChannel+0x29a>
 8003ffa:	2101      	movs	r1, #1
 8003ffc:	f2c8 0100 	movt	r1, #32768	; 0x8000
 8004000:	428d      	cmp	r5, r1
 8004002:	d126      	bne.n	8004052 <HAL_ADC_ConfigChannel+0xee>
 8004004:	f410 0080 	ands.w	r0, r0, #4194304	; 0x400000
 8004008:	d123      	bne.n	8004052 <HAL_ADC_ConfigChannel+0xee>
 800400a:	2100      	movs	r1, #0
 800400c:	f2c5 0104 	movt	r1, #20484	; 0x5004
 8004010:	428c      	cmp	r4, r1
 8004012:	d11e      	bne.n	8004052 <HAL_ADC_ConfigChannel+0xee>
 8004014:	6891      	ldr	r1, [r2, #8]
 8004016:	f021 71e0 	bic.w	r1, r1, #29360128	; 0x1c00000
 800401a:	4331      	orrs	r1, r6
 800401c:	f441 0180 	orr.w	r1, r1, #4194304	; 0x400000
 8004020:	6091      	str	r1, [r2, #8]
 8004022:	e003      	b.n	800402c <HAL_ADC_ConfigChannel+0xc8>
 8004024:	6d5a      	ldr	r2, [r3, #84]	; 0x54
 8004026:	f042 0220 	orr.w	r2, r2, #32
 800402a:	655a      	str	r2, [r3, #84]	; 0x54
 800402c:	2200      	movs	r2, #0
 800402e:	f883 2050 	strb.w	r2, [r3, #80]	; 0x50
 8004032:	b002      	add	sp, #8
 8004034:	bcf0      	pop	{r4, r5, r6, r7}
 8004036:	4770      	bx	lr
 8004038:	3a02      	subs	r2, #2
 800403a:	2a03      	cmp	r2, #3
 800403c:	f200 81f0 	bhi.w	8004420 <HAL_ADC_ConfigChannel+0x4bc>
 8004040:	e8df f012 	tbh	[pc, r2, lsl #1]
 8004044:	00fe00f8 	.word	0x00fe00f8
 8004048:	00ef0104 	.word	0x00ef0104
 800404c:	0201      	lsls	r1, r0, #8
 800404e:	f140 8113 	bpl.w	8004278 <HAL_ADC_ConfigChannel+0x314>
 8004052:	2000      	movs	r0, #0
 8004054:	e7ea      	b.n	800402c <HAL_ADC_ConfigChannel+0xc8>
 8004056:	68cf      	ldr	r7, [r1, #12]
 8004058:	f8d4 50b0 	ldr.w	r5, [r4, #176]	; 0xb0
 800405c:	f64f 70ff 	movw	r0, #65535	; 0xffff
 8004060:	f007 0618 	and.w	r6, r7, #24
 8004064:	f2c0 0007 	movt	r0, #7
 8004068:	40f0      	lsrs	r0, r6
 800406a:	f3c2 0c12 	ubfx	ip, r2, #0, #19
 800406e:	2600      	movs	r6, #0
 8004070:	ea25 050c 	bic.w	r5, r5, ip
 8004074:	4010      	ands	r0, r2
 8004076:	f2c4 067f 	movt	r6, #16511	; 0x407f
 800407a:	4328      	orrs	r0, r5
 800407c:	42b7      	cmp	r7, r6
 800407e:	f8c4 00b0 	str.w	r0, [r4, #176]	; 0xb0
 8004082:	4615      	mov	r5, r2
 8004084:	d1a2      	bne.n	8003fcc <HAL_ADC_ConfigChannel+0x68>
 8004086:	f1bc 0f00 	cmp.w	ip, #0
 800408a:	f000 80e5 	beq.w	8004258 <HAL_ADC_ConfigChannel+0x2f4>
 800408e:	fa92 f0a2 	rbit	r0, r2
 8004092:	2800      	cmp	r0, #0
 8004094:	f000 8158 	beq.w	8004348 <HAL_ADC_ConfigChannel+0x3e4>
 8004098:	fab0 f080 	clz	r0, r0
 800409c:	3001      	adds	r0, #1
 800409e:	f000 001f 	and.w	r0, r0, #31
 80040a2:	2809      	cmp	r0, #9
 80040a4:	f240 8150 	bls.w	8004348 <HAL_ADC_ConfigChannel+0x3e4>
 80040a8:	fa92 f5a2 	rbit	r5, r2
 80040ac:	2d00      	cmp	r5, #0
 80040ae:	f000 81a6 	beq.w	80043fe <HAL_ADC_ConfigChannel+0x49a>
 80040b2:	fab5 f585 	clz	r5, r5
 80040b6:	3501      	adds	r5, #1
 80040b8:	06ad      	lsls	r5, r5, #26
 80040ba:	f005 45f8 	and.w	r5, r5, #2080374784	; 0x7c000000
 80040be:	fa92 f0a2 	rbit	r0, r2
 80040c2:	2800      	cmp	r0, #0
 80040c4:	f000 81a2 	beq.w	800440c <HAL_ADC_ConfigChannel+0x4a8>
 80040c8:	fab0 f080 	clz	r0, r0
 80040cc:	3001      	adds	r0, #1
 80040ce:	f000 001f 	and.w	r0, r0, #31
 80040d2:	2601      	movs	r6, #1
 80040d4:	fa06 f000 	lsl.w	r0, r6, r0
 80040d8:	4305      	orrs	r5, r0
 80040da:	fa92 f2a2 	rbit	r2, r2
 80040de:	2a00      	cmp	r2, #0
 80040e0:	f000 8190 	beq.w	8004404 <HAL_ADC_ConfigChannel+0x4a0>
 80040e4:	fab2 f082 	clz	r0, r2
 80040e8:	3001      	adds	r0, #1
 80040ea:	f000 001f 	and.w	r0, r0, #31
 80040ee:	eb00 0040 	add.w	r0, r0, r0, lsl #1
 80040f2:	f1a0 021e 	sub.w	r2, r0, #30
 80040f6:	0512      	lsls	r2, r2, #20
 80040f8:	f042 7200 	orr.w	r2, r2, #33554432	; 0x2000000
 80040fc:	432a      	orrs	r2, r5
 80040fe:	0dd7      	lsrs	r7, r2, #23
 8004100:	f104 0514 	add.w	r5, r4, #20
 8004104:	f007 0704 	and.w	r7, r7, #4
 8004108:	688e      	ldr	r6, [r1, #8]
 800410a:	5978      	ldr	r0, [r7, r5]
 800410c:	f3c2 5204 	ubfx	r2, r2, #20, #5
 8004110:	f04f 0c07 	mov.w	ip, #7
 8004114:	fa0c fc02 	lsl.w	ip, ip, r2
 8004118:	ea20 000c 	bic.w	r0, r0, ip
 800411c:	fa06 f202 	lsl.w	r2, r6, r2
 8004120:	4302      	orrs	r2, r0
 8004122:	517a      	str	r2, [r7, r5]
 8004124:	680d      	ldr	r5, [r1, #0]
 8004126:	e751      	b.n	8003fcc <HAL_ADC_ConfigChannel+0x68>
 8004128:	68a2      	ldr	r2, [r4, #8]
 800412a:	0712      	lsls	r2, r2, #28
 800412c:	d461      	bmi.n	80041f2 <HAL_ADC_ConfigChannel+0x28e>
 800412e:	6808      	ldr	r0, [r1, #0]
 8004130:	688d      	ldr	r5, [r1, #8]
 8004132:	0dc7      	lsrs	r7, r0, #23
 8004134:	f104 0614 	add.w	r6, r4, #20
 8004138:	f007 0704 	and.w	r7, r7, #4
 800413c:	f3c0 5004 	ubfx	r0, r0, #20, #5
 8004140:	59ba      	ldr	r2, [r7, r6]
 8004142:	f04f 0c07 	mov.w	ip, #7
 8004146:	fa0c fc00 	lsl.w	ip, ip, r0
 800414a:	ea22 020c 	bic.w	r2, r2, ip
 800414e:	fa05 f000 	lsl.w	r0, r5, r0
 8004152:	4302      	orrs	r2, r0
 8004154:	51ba      	str	r2, [r7, r6]
 8004156:	690e      	ldr	r6, [r1, #16]
 8004158:	68e0      	ldr	r0, [r4, #12]
 800415a:	2e04      	cmp	r6, #4
 800415c:	d01a      	beq.n	8004194 <HAL_ADC_ConfigChannel+0x230>
 800415e:	f104 0760 	add.w	r7, r4, #96	; 0x60
 8004162:	f44f 4c70 	mov.w	ip, #61440	; 0xf000
 8004166:	f857 2026 	ldr.w	r2, [r7, r6, lsl #2]
 800416a:	680d      	ldr	r5, [r1, #0]
 800416c:	f2c0 3cff 	movt	ip, #1023	; 0x3ff
 8004170:	ea02 0c0c 	and.w	ip, r2, ip
 8004174:	f3c0 00c1 	ubfx	r0, r0, #3, #2
 8004178:	694a      	ldr	r2, [r1, #20]
 800417a:	0040      	lsls	r0, r0, #1
 800417c:	f005 45f8 	and.w	r5, r5, #2080374784	; 0x7c000000
 8004180:	4082      	lsls	r2, r0
 8004182:	ea45 050c 	orr.w	r5, r5, ip
 8004186:	432a      	orrs	r2, r5
 8004188:	f042 4200 	orr.w	r2, r2, #2147483648	; 0x80000000
 800418c:	f847 2026 	str.w	r2, [r7, r6, lsl #2]
 8004190:	680a      	ldr	r2, [r1, #0]
 8004192:	e717      	b.n	8003fc4 <HAL_ADC_ConfigChannel+0x60>
 8004194:	680a      	ldr	r2, [r1, #0]
 8004196:	6e20      	ldr	r0, [r4, #96]	; 0x60
 8004198:	6e20      	ldr	r0, [r4, #96]	; 0x60
 800419a:	f3c2 0512 	ubfx	r5, r2, #0, #19
 800419e:	f3c0 6084 	ubfx	r0, r0, #26, #5
 80041a2:	2d00      	cmp	r5, #0
 80041a4:	f040 80a0 	bne.w	80042e8 <HAL_ADC_ConfigChannel+0x384>
 80041a8:	f3c2 6584 	ubfx	r5, r2, #26, #5
 80041ac:	42a8      	cmp	r0, r5
 80041ae:	f000 80ef 	beq.w	8004390 <HAL_ADC_ConfigChannel+0x42c>
 80041b2:	6e60      	ldr	r0, [r4, #100]	; 0x64
 80041b4:	6e66      	ldr	r6, [r4, #100]	; 0x64
 80041b6:	f104 0060 	add.w	r0, r4, #96	; 0x60
 80041ba:	f3c6 6684 	ubfx	r6, r6, #26, #5
 80041be:	f104 0764 	add.w	r7, r4, #100	; 0x64
 80041c2:	42ae      	cmp	r6, r5
 80041c4:	f000 8109 	beq.w	80043da <HAL_ADC_ConfigChannel+0x476>
 80041c8:	6886      	ldr	r6, [r0, #8]
 80041ca:	6886      	ldr	r6, [r0, #8]
 80041cc:	f100 0708 	add.w	r7, r0, #8
 80041d0:	f3c6 6684 	ubfx	r6, r6, #26, #5
 80041d4:	42ae      	cmp	r6, r5
 80041d6:	f000 80ef 	beq.w	80043b8 <HAL_ADC_ConfigChannel+0x454>
 80041da:	68c6      	ldr	r6, [r0, #12]
 80041dc:	68c6      	ldr	r6, [r0, #12]
 80041de:	300c      	adds	r0, #12
 80041e0:	f3c6 6684 	ubfx	r6, r6, #26, #5
 80041e4:	42b5      	cmp	r5, r6
 80041e6:	f47f aeed 	bne.w	8003fc4 <HAL_ADC_ConfigChannel+0x60>
 80041ea:	6802      	ldr	r2, [r0, #0]
 80041ec:	f022 4200 	bic.w	r2, r2, #2147483648	; 0x80000000
 80041f0:	6002      	str	r2, [r0, #0]
 80041f2:	680a      	ldr	r2, [r1, #0]
 80041f4:	e6e6      	b.n	8003fc4 <HAL_ADC_ConfigChannel+0x60>
 80041f6:	2002      	movs	r0, #2
 80041f8:	b002      	add	sp, #8
 80041fa:	bcf0      	pop	{r4, r5, r6, r7}
 80041fc:	4770      	bx	lr
 80041fe:	f010 7080 	ands.w	r0, r0, #16777216	; 0x1000000
 8004202:	f47f af26 	bne.w	8004052 <HAL_ADC_ConfigChannel+0xee>
 8004206:	2100      	movs	r1, #0
 8004208:	f2c5 0104 	movt	r1, #20484	; 0x5004
 800420c:	428c      	cmp	r4, r1
 800420e:	f47f af20 	bne.w	8004052 <HAL_ADC_ConfigChannel+0xee>
 8004212:	6891      	ldr	r1, [r2, #8]
 8004214:	f021 71e0 	bic.w	r1, r1, #29360128	; 0x1c00000
 8004218:	4331      	orrs	r1, r6
 800421a:	f041 7180 	orr.w	r1, r1, #16777216	; 0x1000000
 800421e:	6091      	str	r1, [r2, #8]
 8004220:	e704      	b.n	800402c <HAL_ADC_ConfigChannel+0xc8>
 8004222:	f44f 7280 	mov.w	r2, #256	; 0x100
 8004226:	604a      	str	r2, [r1, #4]
 8004228:	f04f 0c00 	mov.w	ip, #0
 800422c:	f06f 071f 	mvn.w	r7, #31
 8004230:	2504      	movs	r5, #4
 8004232:	e6b6      	b.n	8003fa2 <HAL_ADC_ConfigChannel+0x3e>
 8004234:	200c      	movs	r0, #12
 8004236:	6048      	str	r0, [r1, #4]
 8004238:	4684      	mov	ip, r0
 800423a:	f46f 37f8 	mvn.w	r7, #126976	; 0x1f000
 800423e:	e6b0      	b.n	8003fa2 <HAL_ADC_ConfigChannel+0x3e>
 8004240:	2012      	movs	r0, #18
 8004242:	6048      	str	r0, [r1, #4]
 8004244:	4684      	mov	ip, r0
 8004246:	f46f 07f8 	mvn.w	r7, #8126464	; 0x7c0000
 800424a:	e6aa      	b.n	8003fa2 <HAL_ADC_ConfigChannel+0x3e>
 800424c:	2018      	movs	r0, #24
 800424e:	6048      	str	r0, [r1, #4]
 8004250:	4684      	mov	ip, r0
 8004252:	f06f 57f8 	mvn.w	r7, #520093696	; 0x1f000000
 8004256:	e6a4      	b.n	8003fa2 <HAL_ADC_ConfigChannel+0x3e>
 8004258:	0e92      	lsrs	r2, r2, #26
 800425a:	1c50      	adds	r0, r2, #1
 800425c:	f000 061f 	and.w	r6, r0, #31
 8004260:	2e09      	cmp	r6, #9
 8004262:	d833      	bhi.n	80042cc <HAL_ADC_ConfigChannel+0x368>
 8004264:	0685      	lsls	r5, r0, #26
 8004266:	2001      	movs	r0, #1
 8004268:	f005 45f8 	and.w	r5, r5, #2080374784	; 0x7c000000
 800426c:	40b0      	lsls	r0, r6
 800426e:	eb06 0246 	add.w	r2, r6, r6, lsl #1
 8004272:	4305      	orrs	r5, r0
 8004274:	0512      	lsls	r2, r2, #20
 8004276:	e741      	b.n	80040fc <HAL_ADC_ConfigChannel+0x198>
 8004278:	2100      	movs	r1, #0
 800427a:	f2c5 0104 	movt	r1, #20484	; 0x5004
 800427e:	428c      	cmp	r4, r1
 8004280:	f47f aee7 	bne.w	8004052 <HAL_ADC_ConfigChannel+0xee>
 8004284:	6891      	ldr	r1, [r2, #8]
 8004286:	f021 71e0 	bic.w	r1, r1, #29360128	; 0x1c00000
 800428a:	4331      	orrs	r1, r6
 800428c:	f240 0010 	movw	r0, #16
 8004290:	f441 0100 	orr.w	r1, r1, #8388608	; 0x800000
 8004294:	f2c2 0000 	movt	r0, #8192	; 0x2000
 8004298:	6091      	str	r1, [r2, #8]
 800429a:	6802      	ldr	r2, [r0, #0]
 800429c:	f642 5163 	movw	r1, #11619	; 0x2d63
 80042a0:	0992      	lsrs	r2, r2, #6
 80042a2:	f2c0 513e 	movt	r1, #1342	; 0x53e
 80042a6:	fba1 1202 	umull	r1, r2, r1, r2
 80042aa:	0992      	lsrs	r2, r2, #6
 80042ac:	3201      	adds	r2, #1
 80042ae:	eb02 0242 	add.w	r2, r2, r2, lsl #1
 80042b2:	0092      	lsls	r2, r2, #2
 80042b4:	9201      	str	r2, [sp, #4]
 80042b6:	9a01      	ldr	r2, [sp, #4]
 80042b8:	2a00      	cmp	r2, #0
 80042ba:	f43f aeca 	beq.w	8004052 <HAL_ADC_ConfigChannel+0xee>
 80042be:	9a01      	ldr	r2, [sp, #4]
 80042c0:	3a01      	subs	r2, #1
 80042c2:	9201      	str	r2, [sp, #4]
 80042c4:	9a01      	ldr	r2, [sp, #4]
 80042c6:	2a00      	cmp	r2, #0
 80042c8:	d1f9      	bne.n	80042be <HAL_ADC_ConfigChannel+0x35a>
 80042ca:	e6c2      	b.n	8004052 <HAL_ADC_ConfigChannel+0xee>
 80042cc:	eb06 0246 	add.w	r2, r6, r6, lsl #1
 80042d0:	0685      	lsls	r5, r0, #26
 80042d2:	3a1e      	subs	r2, #30
 80042d4:	2001      	movs	r0, #1
 80042d6:	f005 45f8 	and.w	r5, r5, #2080374784	; 0x7c000000
 80042da:	fa00 f606 	lsl.w	r6, r0, r6
 80042de:	0512      	lsls	r2, r2, #20
 80042e0:	4335      	orrs	r5, r6
 80042e2:	f042 7200 	orr.w	r2, r2, #33554432	; 0x2000000
 80042e6:	e709      	b.n	80040fc <HAL_ADC_ConfigChannel+0x198>
 80042e8:	fa92 f5a2 	rbit	r5, r2
 80042ec:	b11d      	cbz	r5, 80042f6 <HAL_ADC_ConfigChannel+0x392>
 80042ee:	fab5 f585 	clz	r5, r5
 80042f2:	42a8      	cmp	r0, r5
 80042f4:	d04c      	beq.n	8004390 <HAL_ADC_ConfigChannel+0x42c>
 80042f6:	6e60      	ldr	r0, [r4, #100]	; 0x64
 80042f8:	6e66      	ldr	r6, [r4, #100]	; 0x64
 80042fa:	f104 0060 	add.w	r0, r4, #96	; 0x60
 80042fe:	f3c6 6684 	ubfx	r6, r6, #26, #5
 8004302:	f104 0764 	add.w	r7, r4, #100	; 0x64
 8004306:	fa92 f5a2 	rbit	r5, r2
 800430a:	b11d      	cbz	r5, 8004314 <HAL_ADC_ConfigChannel+0x3b0>
 800430c:	fab5 f585 	clz	r5, r5
 8004310:	42ae      	cmp	r6, r5
 8004312:	d062      	beq.n	80043da <HAL_ADC_ConfigChannel+0x476>
 8004314:	6885      	ldr	r5, [r0, #8]
 8004316:	6886      	ldr	r6, [r0, #8]
 8004318:	f100 0708 	add.w	r7, r0, #8
 800431c:	f3c6 6684 	ubfx	r6, r6, #26, #5
 8004320:	fa92 f5a2 	rbit	r5, r2
 8004324:	b11d      	cbz	r5, 800432e <HAL_ADC_ConfigChannel+0x3ca>
 8004326:	fab5 f585 	clz	r5, r5
 800432a:	42ae      	cmp	r6, r5
 800432c:	d044      	beq.n	80043b8 <HAL_ADC_ConfigChannel+0x454>
 800432e:	68c5      	ldr	r5, [r0, #12]
 8004330:	68c6      	ldr	r6, [r0, #12]
 8004332:	300c      	adds	r0, #12
 8004334:	f3c6 6684 	ubfx	r6, r6, #26, #5
 8004338:	fa92 f5a2 	rbit	r5, r2
 800433c:	2d00      	cmp	r5, #0
 800433e:	f43f ae41 	beq.w	8003fc4 <HAL_ADC_ConfigChannel+0x60>
 8004342:	fab5 f585 	clz	r5, r5
 8004346:	e74d      	b.n	80041e4 <HAL_ADC_ConfigChannel+0x280>
 8004348:	fa92 f5a2 	rbit	r5, r2
 800434c:	2d00      	cmp	r5, #0
 800434e:	d064      	beq.n	800441a <HAL_ADC_ConfigChannel+0x4b6>
 8004350:	fab5 f585 	clz	r5, r5
 8004354:	3501      	adds	r5, #1
 8004356:	06ad      	lsls	r5, r5, #26
 8004358:	f005 45f8 	and.w	r5, r5, #2080374784	; 0x7c000000
 800435c:	fa92 f0a2 	rbit	r0, r2
 8004360:	2800      	cmp	r0, #0
 8004362:	d058      	beq.n	8004416 <HAL_ADC_ConfigChannel+0x4b2>
 8004364:	fab0 f080 	clz	r0, r0
 8004368:	3001      	adds	r0, #1
 800436a:	f000 001f 	and.w	r0, r0, #31
 800436e:	2601      	movs	r6, #1
 8004370:	fa06 f000 	lsl.w	r0, r6, r0
 8004374:	4305      	orrs	r5, r0
 8004376:	fa92 f2a2 	rbit	r2, r2
 800437a:	2a00      	cmp	r2, #0
 800437c:	d048      	beq.n	8004410 <HAL_ADC_ConfigChannel+0x4ac>
 800437e:	fab2 f082 	clz	r0, r2
 8004382:	3001      	adds	r0, #1
 8004384:	f000 001f 	and.w	r0, r0, #31
 8004388:	eb00 0040 	add.w	r0, r0, r0, lsl #1
 800438c:	0502      	lsls	r2, r0, #20
 800438e:	e6b5      	b.n	80040fc <HAL_ADC_ConfigChannel+0x198>
 8004390:	6e22      	ldr	r2, [r4, #96]	; 0x60
 8004392:	4620      	mov	r0, r4
 8004394:	f022 4200 	bic.w	r2, r2, #2147483648	; 0x80000000
 8004398:	f840 2f60 	str.w	r2, [r0, #96]!
 800439c:	680a      	ldr	r2, [r1, #0]
 800439e:	6e65      	ldr	r5, [r4, #100]	; 0x64
 80043a0:	6e66      	ldr	r6, [r4, #100]	; 0x64
 80043a2:	f3c2 0512 	ubfx	r5, r2, #0, #19
 80043a6:	f3c6 6684 	ubfx	r6, r6, #26, #5
 80043aa:	f104 0764 	add.w	r7, r4, #100	; 0x64
 80043ae:	2d00      	cmp	r5, #0
 80043b0:	d1a9      	bne.n	8004306 <HAL_ADC_ConfigChannel+0x3a2>
 80043b2:	f3c2 6584 	ubfx	r5, r2, #26, #5
 80043b6:	e704      	b.n	80041c2 <HAL_ADC_ConfigChannel+0x25e>
 80043b8:	683a      	ldr	r2, [r7, #0]
 80043ba:	f022 4200 	bic.w	r2, r2, #2147483648	; 0x80000000
 80043be:	603a      	str	r2, [r7, #0]
 80043c0:	680a      	ldr	r2, [r1, #0]
 80043c2:	68c5      	ldr	r5, [r0, #12]
 80043c4:	68c6      	ldr	r6, [r0, #12]
 80043c6:	f3c2 0512 	ubfx	r5, r2, #0, #19
 80043ca:	f3c6 6684 	ubfx	r6, r6, #26, #5
 80043ce:	300c      	adds	r0, #12
 80043d0:	2d00      	cmp	r5, #0
 80043d2:	d1b1      	bne.n	8004338 <HAL_ADC_ConfigChannel+0x3d4>
 80043d4:	f3c2 6584 	ubfx	r5, r2, #26, #5
 80043d8:	e704      	b.n	80041e4 <HAL_ADC_ConfigChannel+0x280>
 80043da:	683a      	ldr	r2, [r7, #0]
 80043dc:	f022 4200 	bic.w	r2, r2, #2147483648	; 0x80000000
 80043e0:	603a      	str	r2, [r7, #0]
 80043e2:	680a      	ldr	r2, [r1, #0]
 80043e4:	6885      	ldr	r5, [r0, #8]
 80043e6:	6886      	ldr	r6, [r0, #8]
 80043e8:	f3c2 0512 	ubfx	r5, r2, #0, #19
 80043ec:	f3c6 6684 	ubfx	r6, r6, #26, #5
 80043f0:	f100 0708 	add.w	r7, r0, #8
 80043f4:	2d00      	cmp	r5, #0
 80043f6:	d193      	bne.n	8004320 <HAL_ADC_ConfigChannel+0x3bc>
 80043f8:	f3c2 6584 	ubfx	r5, r2, #26, #5
 80043fc:	e6ea      	b.n	80041d4 <HAL_ADC_ConfigChannel+0x270>
 80043fe:	f04f 6580 	mov.w	r5, #67108864	; 0x4000000
 8004402:	e65c      	b.n	80040be <HAL_ADC_ConfigChannel+0x15a>
 8004404:	2200      	movs	r2, #0
 8004406:	f6cf 6250 	movt	r2, #65104	; 0xfe50
 800440a:	e677      	b.n	80040fc <HAL_ADC_ConfigChannel+0x198>
 800440c:	2002      	movs	r0, #2
 800440e:	e663      	b.n	80040d8 <HAL_ADC_ConfigChannel+0x174>
 8004410:	f44f 1240 	mov.w	r2, #3145728	; 0x300000
 8004414:	e672      	b.n	80040fc <HAL_ADC_ConfigChannel+0x198>
 8004416:	2002      	movs	r0, #2
 8004418:	e7ac      	b.n	8004374 <HAL_ADC_ConfigChannel+0x410>
 800441a:	f04f 6580 	mov.w	r5, #67108864	; 0x4000000
 800441e:	e79d      	b.n	800435c <HAL_ADC_ConfigChannel+0x3f8>
 8004420:	2006      	movs	r0, #6
 8004422:	6048      	str	r0, [r1, #4]
 8004424:	4684      	mov	ip, r0
 8004426:	f46f 67f8 	mvn.w	r7, #1984	; 0x7c0
 800442a:	e5ba      	b.n	8003fa2 <HAL_ADC_ConfigChannel+0x3e>

0800442c <ADC_Enable>:
 800442c:	b570      	push	{r4, r5, r6, lr}
 800442e:	b082      	sub	sp, #8
 8004430:	2200      	movs	r2, #0
 8004432:	6803      	ldr	r3, [r0, #0]
 8004434:	9201      	str	r2, [sp, #4]
 8004436:	689a      	ldr	r2, [r3, #8]
 8004438:	07d2      	lsls	r2, r2, #31
 800443a:	d434      	bmi.n	80044a6 <ADC_Enable+0x7a>
 800443c:	6899      	ldr	r1, [r3, #8]
 800443e:	223f      	movs	r2, #63	; 0x3f
 8004440:	f2c8 0200 	movt	r2, #32768	; 0x8000
 8004444:	4211      	tst	r1, r2
 8004446:	4604      	mov	r4, r0
 8004448:	d130      	bne.n	80044ac <ADC_Enable+0x80>
 800444a:	689a      	ldr	r2, [r3, #8]
 800444c:	f022 4200 	bic.w	r2, r2, #2147483648	; 0x80000000
 8004450:	f022 023f 	bic.w	r2, r2, #63	; 0x3f
 8004454:	f44f 7140 	mov.w	r1, #768	; 0x300
 8004458:	f042 0201 	orr.w	r2, r2, #1
 800445c:	f2c5 0104 	movt	r1, #20484	; 0x5004
 8004460:	609a      	str	r2, [r3, #8]
 8004462:	688b      	ldr	r3, [r1, #8]
 8004464:	021b      	lsls	r3, r3, #8
 8004466:	d42c      	bmi.n	80044c2 <ADC_Enable+0x96>
 8004468:	f7ff fc42 	bl	8003cf0 <HAL_GetTick>
 800446c:	6823      	ldr	r3, [r4, #0]
 800446e:	681a      	ldr	r2, [r3, #0]
 8004470:	07d6      	lsls	r6, r2, #31
 8004472:	4605      	mov	r5, r0
 8004474:	d417      	bmi.n	80044a6 <ADC_Enable+0x7a>
 8004476:	f64f 76c0 	movw	r6, #65472	; 0xffc0
 800447a:	f6c7 76ff 	movt	r6, #32767	; 0x7fff
 800447e:	689a      	ldr	r2, [r3, #8]
 8004480:	07d0      	lsls	r0, r2, #31
 8004482:	d404      	bmi.n	800448e <ADC_Enable+0x62>
 8004484:	689a      	ldr	r2, [r3, #8]
 8004486:	4032      	ands	r2, r6
 8004488:	f042 0201 	orr.w	r2, r2, #1
 800448c:	609a      	str	r2, [r3, #8]
 800448e:	f7ff fc2f 	bl	8003cf0 <HAL_GetTick>
 8004492:	1b43      	subs	r3, r0, r5
 8004494:	2b02      	cmp	r3, #2
 8004496:	6823      	ldr	r3, [r4, #0]
 8004498:	d902      	bls.n	80044a0 <ADC_Enable+0x74>
 800449a:	681a      	ldr	r2, [r3, #0]
 800449c:	07d1      	lsls	r1, r2, #31
 800449e:	d505      	bpl.n	80044ac <ADC_Enable+0x80>
 80044a0:	681a      	ldr	r2, [r3, #0]
 80044a2:	07d2      	lsls	r2, r2, #31
 80044a4:	d5eb      	bpl.n	800447e <ADC_Enable+0x52>
 80044a6:	2000      	movs	r0, #0
 80044a8:	b002      	add	sp, #8
 80044aa:	bd70      	pop	{r4, r5, r6, pc}
 80044ac:	6d63      	ldr	r3, [r4, #84]	; 0x54
 80044ae:	f043 0310 	orr.w	r3, r3, #16
 80044b2:	6563      	str	r3, [r4, #84]	; 0x54
 80044b4:	6da3      	ldr	r3, [r4, #88]	; 0x58
 80044b6:	2001      	movs	r0, #1
 80044b8:	f043 0301 	orr.w	r3, r3, #1
 80044bc:	65a3      	str	r3, [r4, #88]	; 0x58
 80044be:	b002      	add	sp, #8
 80044c0:	bd70      	pop	{r4, r5, r6, pc}
 80044c2:	f240 0210 	movw	r2, #16
 80044c6:	f2c2 0200 	movt	r2, #8192	; 0x2000
 80044ca:	f642 5163 	movw	r1, #11619	; 0x2d63
 80044ce:	6813      	ldr	r3, [r2, #0]
 80044d0:	f2c0 513e 	movt	r1, #1342	; 0x53e
 80044d4:	099b      	lsrs	r3, r3, #6
 80044d6:	fba1 2303 	umull	r2, r3, r1, r3
 80044da:	099b      	lsrs	r3, r3, #6
 80044dc:	3301      	adds	r3, #1
 80044de:	eb03 0343 	add.w	r3, r3, r3, lsl #1
 80044e2:	009b      	lsls	r3, r3, #2
 80044e4:	9301      	str	r3, [sp, #4]
 80044e6:	9b01      	ldr	r3, [sp, #4]
 80044e8:	2b00      	cmp	r3, #0
 80044ea:	d0bd      	beq.n	8004468 <ADC_Enable+0x3c>
 80044ec:	9b01      	ldr	r3, [sp, #4]
 80044ee:	3b01      	subs	r3, #1
 80044f0:	9301      	str	r3, [sp, #4]
 80044f2:	9b01      	ldr	r3, [sp, #4]
 80044f4:	2b00      	cmp	r3, #0
 80044f6:	d1f9      	bne.n	80044ec <ADC_Enable+0xc0>
 80044f8:	e7b6      	b.n	8004468 <ADC_Enable+0x3c>
 80044fa:	bf00      	nop

080044fc <HAL_ADC_Start>:
 80044fc:	b538      	push	{r3, r4, r5, lr}
 80044fe:	6803      	ldr	r3, [r0, #0]
 8004500:	689d      	ldr	r5, [r3, #8]
 8004502:	f015 0504 	ands.w	r5, r5, #4
 8004506:	d133      	bne.n	8004570 <HAL_ADC_Start+0x74>
 8004508:	f890 3050 	ldrb.w	r3, [r0, #80]	; 0x50
 800450c:	2b01      	cmp	r3, #1
 800450e:	4604      	mov	r4, r0
 8004510:	d02e      	beq.n	8004570 <HAL_ADC_Start+0x74>
 8004512:	2301      	movs	r3, #1
 8004514:	f880 3050 	strb.w	r3, [r0, #80]	; 0x50
 8004518:	f7ff ff88 	bl	800442c <ADC_Enable>
 800451c:	bb50      	cbnz	r0, 8004574 <HAL_ADC_Start+0x78>
 800451e:	6d63      	ldr	r3, [r4, #84]	; 0x54
 8004520:	f423 6370 	bic.w	r3, r3, #3840	; 0xf00
 8004524:	f023 0301 	bic.w	r3, r3, #1
 8004528:	f443 7380 	orr.w	r3, r3, #256	; 0x100
 800452c:	6563      	str	r3, [r4, #84]	; 0x54
 800452e:	6d63      	ldr	r3, [r4, #84]	; 0x54
 8004530:	04da      	lsls	r2, r3, #19
 8004532:	bf48      	it	mi
 8004534:	6da3      	ldrmi	r3, [r4, #88]	; 0x58
 8004536:	6822      	ldr	r2, [r4, #0]
 8004538:	bf52      	itee	pl
 800453a:	65a0      	strpl	r0, [r4, #88]	; 0x58
 800453c:	f023 0306 	bicmi.w	r3, r3, #6
 8004540:	65a3      	strmi	r3, [r4, #88]	; 0x58
 8004542:	211c      	movs	r1, #28
 8004544:	2300      	movs	r3, #0
 8004546:	6011      	str	r1, [r2, #0]
 8004548:	f884 3050 	strb.w	r3, [r4, #80]	; 0x50
 800454c:	68d3      	ldr	r3, [r2, #12]
 800454e:	019b      	lsls	r3, r3, #6
 8004550:	d505      	bpl.n	800455e <HAL_ADC_Start+0x62>
 8004552:	6d63      	ldr	r3, [r4, #84]	; 0x54
 8004554:	f423 5340 	bic.w	r3, r3, #12288	; 0x3000
 8004558:	f443 5380 	orr.w	r3, r3, #4096	; 0x1000
 800455c:	6563      	str	r3, [r4, #84]	; 0x54
 800455e:	6893      	ldr	r3, [r2, #8]
 8004560:	f023 4300 	bic.w	r3, r3, #2147483648	; 0x80000000
 8004564:	f023 033f 	bic.w	r3, r3, #63	; 0x3f
 8004568:	f043 0304 	orr.w	r3, r3, #4
 800456c:	6093      	str	r3, [r2, #8]
 800456e:	bd38      	pop	{r3, r4, r5, pc}
 8004570:	2002      	movs	r0, #2
 8004572:	bd38      	pop	{r3, r4, r5, pc}
 8004574:	f884 5050 	strb.w	r5, [r4, #80]	; 0x50
 8004578:	bd38      	pop	{r3, r4, r5, pc}
 800457a:	bf00      	nop

0800457c <HAL_ADC_Start_DMA>:
 800457c:	b5f8      	push	{r3, r4, r5, r6, r7, lr}
 800457e:	6803      	ldr	r3, [r0, #0]
 8004580:	689d      	ldr	r5, [r3, #8]
 8004582:	f015 0504 	ands.w	r5, r5, #4
 8004586:	d14a      	bne.n	800461e <HAL_ADC_Start_DMA+0xa2>
 8004588:	f890 3050 	ldrb.w	r3, [r0, #80]	; 0x50
 800458c:	2b01      	cmp	r3, #1
 800458e:	4604      	mov	r4, r0
 8004590:	d045      	beq.n	800461e <HAL_ADC_Start_DMA+0xa2>
 8004592:	2301      	movs	r3, #1
 8004594:	f880 3050 	strb.w	r3, [r0, #80]	; 0x50
 8004598:	460f      	mov	r7, r1
 800459a:	4616      	mov	r6, r2
 800459c:	f7ff ff46 	bl	800442c <ADC_Enable>
 80045a0:	2800      	cmp	r0, #0
 80045a2:	d13e      	bne.n	8004622 <HAL_ADC_Start_DMA+0xa6>
 80045a4:	6d63      	ldr	r3, [r4, #84]	; 0x54
 80045a6:	6ce0      	ldr	r0, [r4, #76]	; 0x4c
 80045a8:	6821      	ldr	r1, [r4, #0]
 80045aa:	f423 6370 	bic.w	r3, r3, #3840	; 0xf00
 80045ae:	f023 0301 	bic.w	r3, r3, #1
 80045b2:	f443 7380 	orr.w	r3, r3, #256	; 0x100
 80045b6:	6563      	str	r3, [r4, #84]	; 0x54
 80045b8:	6d63      	ldr	r3, [r4, #84]	; 0x54
 80045ba:	f413 5380 	ands.w	r3, r3, #4096	; 0x1000
 80045be:	bf1c      	itt	ne
 80045c0:	6da3      	ldrne	r3, [r4, #88]	; 0x58
 80045c2:	f023 0306 	bicne.w	r3, r3, #6
 80045c6:	65a3      	str	r3, [r4, #88]	; 0x58
 80045c8:	f643 63dd 	movw	r3, #16093	; 0x3edd
 80045cc:	f6c0 0300 	movt	r3, #2048	; 0x800
 80045d0:	62c3      	str	r3, [r0, #44]	; 0x2c
 80045d2:	f643 62cd 	movw	r2, #16077	; 0x3ecd
 80045d6:	f643 7349 	movw	r3, #16201	; 0x3f49
 80045da:	f6c0 0200 	movt	r2, #2048	; 0x800
 80045de:	f6c0 0300 	movt	r3, #2048	; 0x800
 80045e2:	6302      	str	r2, [r0, #48]	; 0x30
 80045e4:	6343      	str	r3, [r0, #52]	; 0x34
 80045e6:	221c      	movs	r2, #28
 80045e8:	2300      	movs	r3, #0
 80045ea:	600a      	str	r2, [r1, #0]
 80045ec:	f884 3050 	strb.w	r3, [r4, #80]	; 0x50
 80045f0:	684b      	ldr	r3, [r1, #4]
 80045f2:	f043 0310 	orr.w	r3, r3, #16
 80045f6:	604b      	str	r3, [r1, #4]
 80045f8:	68cd      	ldr	r5, [r1, #12]
 80045fa:	f045 0501 	orr.w	r5, r5, #1
 80045fe:	4633      	mov	r3, r6
 8004600:	463a      	mov	r2, r7
 8004602:	60cd      	str	r5, [r1, #12]
 8004604:	3140      	adds	r1, #64	; 0x40
 8004606:	f000 f8e9 	bl	80047dc <HAL_DMA_Start_IT>
 800460a:	6822      	ldr	r2, [r4, #0]
 800460c:	6893      	ldr	r3, [r2, #8]
 800460e:	f023 4300 	bic.w	r3, r3, #2147483648	; 0x80000000
 8004612:	f023 033f 	bic.w	r3, r3, #63	; 0x3f
 8004616:	f043 0304 	orr.w	r3, r3, #4
 800461a:	6093      	str	r3, [r2, #8]
 800461c:	bdf8      	pop	{r3, r4, r5, r6, r7, pc}
 800461e:	2002      	movs	r0, #2
 8004620:	bdf8      	pop	{r3, r4, r5, r6, r7, pc}
 8004622:	f884 5050 	strb.w	r5, [r4, #80]	; 0x50
 8004626:	bdf8      	pop	{r3, r4, r5, r6, r7, pc}

08004628 <HAL_NVIC_SetPriorityGrouping>:
 8004628:	f44f 426d 	mov.w	r2, #60672	; 0xed00
 800462c:	f2ce 0200 	movt	r2, #57344	; 0xe000
 8004630:	b410      	push	{r4}
 8004632:	68d1      	ldr	r1, [r2, #12]
 8004634:	f64f 04ff 	movw	r4, #63743	; 0xf8ff
 8004638:	0200      	lsls	r0, r0, #8
 800463a:	4021      	ands	r1, r4
 800463c:	f400 63e0 	and.w	r3, r0, #1792	; 0x700
 8004640:	430b      	orrs	r3, r1
 8004642:	f043 63bf 	orr.w	r3, r3, #100139008	; 0x5f80000
 8004646:	f443 3300 	orr.w	r3, r3, #131072	; 0x20000
 800464a:	f85d 4b04 	ldr.w	r4, [sp], #4
 800464e:	60d3      	str	r3, [r2, #12]
 8004650:	4770      	bx	lr
 8004652:	bf00      	nop

08004654 <HAL_NVIC_SetPriority>:
 8004654:	f44f 436d 	mov.w	r3, #60672	; 0xed00
 8004658:	f2ce 0300 	movt	r3, #57344	; 0xe000
 800465c:	b430      	push	{r4, r5}
 800465e:	68db      	ldr	r3, [r3, #12]
 8004660:	f3c3 2302 	ubfx	r3, r3, #8, #3
 8004664:	f1c3 0507 	rsb	r5, r3, #7
 8004668:	2d04      	cmp	r5, #4
 800466a:	f103 0404 	add.w	r4, r3, #4
 800466e:	bf28      	it	cs
 8004670:	2504      	movcs	r5, #4
 8004672:	2c06      	cmp	r4, #6
 8004674:	d919      	bls.n	80046aa <HAL_NVIC_SetPriority+0x56>
 8004676:	3b03      	subs	r3, #3
 8004678:	f04f 34ff 	mov.w	r4, #4294967295
 800467c:	409c      	lsls	r4, r3
 800467e:	ea22 0204 	bic.w	r2, r2, r4
 8004682:	f04f 34ff 	mov.w	r4, #4294967295
 8004686:	40ac      	lsls	r4, r5
 8004688:	ea21 0104 	bic.w	r1, r1, r4
 800468c:	4099      	lsls	r1, r3
 800468e:	2800      	cmp	r0, #0
 8004690:	ea41 0102 	orr.w	r1, r1, r2
 8004694:	db0c      	blt.n	80046b0 <HAL_NVIC_SetPriority+0x5c>
 8004696:	f100 4060 	add.w	r0, r0, #3758096384	; 0xe0000000
 800469a:	f500 4061 	add.w	r0, r0, #57600	; 0xe100
 800469e:	0109      	lsls	r1, r1, #4
 80046a0:	b2c9      	uxtb	r1, r1
 80046a2:	f880 1300 	strb.w	r1, [r0, #768]	; 0x300
 80046a6:	bc30      	pop	{r4, r5}
 80046a8:	4770      	bx	lr
 80046aa:	2200      	movs	r2, #0
 80046ac:	4613      	mov	r3, r2
 80046ae:	e7e8      	b.n	8004682 <HAL_NVIC_SetPriority+0x2e>
 80046b0:	f64e 43fc 	movw	r3, #60668	; 0xecfc
 80046b4:	f000 000f 	and.w	r0, r0, #15
 80046b8:	f2ce 0300 	movt	r3, #57344	; 0xe000
 80046bc:	0109      	lsls	r1, r1, #4
 80046be:	4403      	add	r3, r0
 80046c0:	b2c9      	uxtb	r1, r1
 80046c2:	7619      	strb	r1, [r3, #24]
 80046c4:	bc30      	pop	{r4, r5}
 80046c6:	4770      	bx	lr

080046c8 <HAL_NVIC_EnableIRQ>:
 80046c8:	2800      	cmp	r0, #0
 80046ca:	db0a      	blt.n	80046e2 <HAL_NVIC_EnableIRQ+0x1a>
 80046cc:	f44f 4261 	mov.w	r2, #57600	; 0xe100
 80046d0:	f000 011f 	and.w	r1, r0, #31
 80046d4:	f2ce 0200 	movt	r2, #57344	; 0xe000
 80046d8:	0940      	lsrs	r0, r0, #5
 80046da:	2301      	movs	r3, #1
 80046dc:	408b      	lsls	r3, r1
 80046de:	f842 3020 	str.w	r3, [r2, r0, lsl #2]
 80046e2:	4770      	bx	lr

080046e4 <HAL_DMA_Init>:
 80046e4:	2800      	cmp	r0, #0
 80046e6:	d066      	beq.n	80047b6 <HAL_DMA_Init+0xd2>
 80046e8:	4603      	mov	r3, r0
 80046ea:	f240 4207 	movw	r2, #1031	; 0x407
 80046ee:	6800      	ldr	r0, [r0, #0]
 80046f0:	f2c4 0202 	movt	r2, #16386	; 0x4002
 80046f4:	4290      	cmp	r0, r2
 80046f6:	b4f0      	push	{r4, r5, r6, r7}
 80046f8:	d94c      	bls.n	8004794 <HAL_DMA_Init+0xb0>
 80046fa:	f64f 31f8 	movw	r1, #64504	; 0xfbf8
 80046fe:	f6cb 71fd 	movt	r1, #49149	; 0xbffd
 8004702:	f64c 42cd 	movw	r2, #52429	; 0xcccd
 8004706:	4401      	add	r1, r0
 8004708:	f6cc 42cc 	movt	r2, #52428	; 0xcccc
 800470c:	fba2 2101 	umull	r2, r1, r2, r1
 8004710:	0909      	lsrs	r1, r1, #4
 8004712:	f44f 6480 	mov.w	r4, #1024	; 0x400
 8004716:	0089      	lsls	r1, r1, #2
 8004718:	f2c4 0402 	movt	r4, #16386	; 0x4002
 800471c:	e9d3 5202 	ldrd	r5, r2, [r3, #8]
 8004720:	e9d3 7604 	ldrd	r7, r6, [r3, #16]
 8004724:	432a      	orrs	r2, r5
 8004726:	433a      	orrs	r2, r7
 8004728:	2702      	movs	r7, #2
 800472a:	f883 7025 	strb.w	r7, [r3, #37]	; 0x25
 800472e:	699f      	ldr	r7, [r3, #24]
 8004730:	641c      	str	r4, [r3, #64]	; 0x40
 8004732:	4332      	orrs	r2, r6
 8004734:	433a      	orrs	r2, r7
 8004736:	69df      	ldr	r7, [r3, #28]
 8004738:	6806      	ldr	r6, [r0, #0]
 800473a:	6459      	str	r1, [r3, #68]	; 0x44
 800473c:	433a      	orrs	r2, r7
 800473e:	6a1f      	ldr	r7, [r3, #32]
 8004740:	f426 46ff 	bic.w	r6, r6, #32640	; 0x7f80
 8004744:	433a      	orrs	r2, r7
 8004746:	f026 0670 	bic.w	r6, r6, #112	; 0x70
 800474a:	4332      	orrs	r2, r6
 800474c:	f5b5 4f80 	cmp.w	r5, #16384	; 0x4000
 8004750:	6002      	str	r2, [r0, #0]
 8004752:	d016      	beq.n	8004782 <HAL_DMA_Init+0x9e>
 8004754:	2200      	movs	r2, #0
 8004756:	f2c4 0202 	movt	r2, #16386	; 0x4002
 800475a:	4294      	cmp	r4, r2
 800475c:	d02d      	beq.n	80047ba <HAL_DMA_Init+0xd6>
 800475e:	f44f 6295 	mov.w	r2, #1192	; 0x4a8
 8004762:	f2c4 0202 	movt	r2, #16386	; 0x4002
 8004766:	f001 011c 	and.w	r1, r1, #28
 800476a:	6810      	ldr	r0, [r2, #0]
 800476c:	240f      	movs	r4, #15
 800476e:	408c      	lsls	r4, r1
 8004770:	ea20 0004 	bic.w	r0, r0, r4
 8004774:	6010      	str	r0, [r2, #0]
 8004776:	6858      	ldr	r0, [r3, #4]
 8004778:	6814      	ldr	r4, [r2, #0]
 800477a:	fa00 f101 	lsl.w	r1, r0, r1
 800477e:	4321      	orrs	r1, r4
 8004780:	6011      	str	r1, [r2, #0]
 8004782:	2000      	movs	r0, #0
 8004784:	2201      	movs	r2, #1
 8004786:	63d8      	str	r0, [r3, #60]	; 0x3c
 8004788:	f883 0024 	strb.w	r0, [r3, #36]	; 0x24
 800478c:	f883 2025 	strb.w	r2, [r3, #37]	; 0x25
 8004790:	bcf0      	pop	{r4, r5, r6, r7}
 8004792:	4770      	bx	lr
 8004794:	f64f 71f8 	movw	r1, #65528	; 0xfff8
 8004798:	f6cb 71fd 	movt	r1, #49149	; 0xbffd
 800479c:	f64c 42cd 	movw	r2, #52429	; 0xcccd
 80047a0:	4401      	add	r1, r0
 80047a2:	f6cc 42cc 	movt	r2, #52428	; 0xcccc
 80047a6:	fba2 2101 	umull	r2, r1, r2, r1
 80047aa:	0909      	lsrs	r1, r1, #4
 80047ac:	2400      	movs	r4, #0
 80047ae:	0089      	lsls	r1, r1, #2
 80047b0:	f2c4 0402 	movt	r4, #16386	; 0x4002
 80047b4:	e7b2      	b.n	800471c <HAL_DMA_Init+0x38>
 80047b6:	2001      	movs	r0, #1
 80047b8:	4770      	bx	lr
 80047ba:	22a8      	movs	r2, #168	; 0xa8
 80047bc:	f2c4 0202 	movt	r2, #16386	; 0x4002
 80047c0:	f001 011c 	and.w	r1, r1, #28
 80047c4:	6814      	ldr	r4, [r2, #0]
 80047c6:	250f      	movs	r5, #15
 80047c8:	408d      	lsls	r5, r1
 80047ca:	ea24 0405 	bic.w	r4, r4, r5
 80047ce:	6014      	str	r4, [r2, #0]
 80047d0:	6858      	ldr	r0, [r3, #4]
 80047d2:	6814      	ldr	r4, [r2, #0]
 80047d4:	4088      	lsls	r0, r1
 80047d6:	4320      	orrs	r0, r4
 80047d8:	6010      	str	r0, [r2, #0]
 80047da:	e7d2      	b.n	8004782 <HAL_DMA_Init+0x9e>

080047dc <HAL_DMA_Start_IT>:
 80047dc:	b4f0      	push	{r4, r5, r6, r7}
 80047de:	f890 4024 	ldrb.w	r4, [r0, #36]	; 0x24
 80047e2:	2c01      	cmp	r4, #1
 80047e4:	d03d      	beq.n	8004862 <HAL_DMA_Start_IT+0x86>
 80047e6:	f890 4025 	ldrb.w	r4, [r0, #37]	; 0x25
 80047ea:	2601      	movs	r6, #1
 80047ec:	42b4      	cmp	r4, r6
 80047ee:	b2e5      	uxtb	r5, r4
 80047f0:	f880 6024 	strb.w	r6, [r0, #36]	; 0x24
 80047f4:	d005      	beq.n	8004802 <HAL_DMA_Start_IT+0x26>
 80047f6:	2300      	movs	r3, #0
 80047f8:	f880 3024 	strb.w	r3, [r0, #36]	; 0x24
 80047fc:	bcf0      	pop	{r4, r5, r6, r7}
 80047fe:	2002      	movs	r0, #2
 8004800:	4770      	bx	lr
 8004802:	6804      	ldr	r4, [r0, #0]
 8004804:	f8d0 c040 	ldr.w	ip, [r0, #64]	; 0x40
 8004808:	2702      	movs	r7, #2
 800480a:	2600      	movs	r6, #0
 800480c:	f880 7025 	strb.w	r7, [r0, #37]	; 0x25
 8004810:	63c6      	str	r6, [r0, #60]	; 0x3c
 8004812:	6c47      	ldr	r7, [r0, #68]	; 0x44
 8004814:	6826      	ldr	r6, [r4, #0]
 8004816:	f007 071c 	and.w	r7, r7, #28
 800481a:	f026 0601 	bic.w	r6, r6, #1
 800481e:	6026      	str	r6, [r4, #0]
 8004820:	40bd      	lsls	r5, r7
 8004822:	6886      	ldr	r6, [r0, #8]
 8004824:	f8cc 5004 	str.w	r5, [ip, #4]
 8004828:	6063      	str	r3, [r4, #4]
 800482a:	6b03      	ldr	r3, [r0, #48]	; 0x30
 800482c:	2e10      	cmp	r6, #16
 800482e:	bf0b      	itete	eq
 8004830:	60a2      	streq	r2, [r4, #8]
 8004832:	60a1      	strne	r1, [r4, #8]
 8004834:	60e1      	streq	r1, [r4, #12]
 8004836:	60e2      	strne	r2, [r4, #12]
 8004838:	b153      	cbz	r3, 8004850 <HAL_DMA_Start_IT+0x74>
 800483a:	6823      	ldr	r3, [r4, #0]
 800483c:	f043 030e 	orr.w	r3, r3, #14
 8004840:	6023      	str	r3, [r4, #0]
 8004842:	6823      	ldr	r3, [r4, #0]
 8004844:	f043 0301 	orr.w	r3, r3, #1
 8004848:	6023      	str	r3, [r4, #0]
 800484a:	2000      	movs	r0, #0
 800484c:	bcf0      	pop	{r4, r5, r6, r7}
 800484e:	4770      	bx	lr
 8004850:	6823      	ldr	r3, [r4, #0]
 8004852:	f023 0304 	bic.w	r3, r3, #4
 8004856:	6023      	str	r3, [r4, #0]
 8004858:	6823      	ldr	r3, [r4, #0]
 800485a:	f043 030a 	orr.w	r3, r3, #10
 800485e:	6023      	str	r3, [r4, #0]
 8004860:	e7ef      	b.n	8004842 <HAL_DMA_Start_IT+0x66>
 8004862:	2002      	movs	r0, #2
 8004864:	bcf0      	pop	{r4, r5, r6, r7}
 8004866:	4770      	bx	lr

08004868 <HAL_DMA_Abort>:
 8004868:	f890 2025 	ldrb.w	r2, [r0, #37]	; 0x25
 800486c:	2a02      	cmp	r2, #2
 800486e:	4603      	mov	r3, r0
 8004870:	d006      	beq.n	8004880 <HAL_DMA_Abort+0x18>
 8004872:	2104      	movs	r1, #4
 8004874:	2200      	movs	r2, #0
 8004876:	63c1      	str	r1, [r0, #60]	; 0x3c
 8004878:	f880 2024 	strb.w	r2, [r0, #36]	; 0x24
 800487c:	2001      	movs	r0, #1
 800487e:	4770      	bx	lr
 8004880:	6801      	ldr	r1, [r0, #0]
 8004882:	6c42      	ldr	r2, [r0, #68]	; 0x44
 8004884:	6808      	ldr	r0, [r1, #0]
 8004886:	f020 000e 	bic.w	r0, r0, #14
 800488a:	b430      	push	{r4, r5}
 800488c:	6c1d      	ldr	r5, [r3, #64]	; 0x40
 800488e:	6008      	str	r0, [r1, #0]
 8004890:	6808      	ldr	r0, [r1, #0]
 8004892:	2401      	movs	r4, #1
 8004894:	f020 0001 	bic.w	r0, r0, #1
 8004898:	f002 021c 	and.w	r2, r2, #28
 800489c:	6008      	str	r0, [r1, #0]
 800489e:	fa04 f202 	lsl.w	r2, r4, r2
 80048a2:	2100      	movs	r1, #0
 80048a4:	606a      	str	r2, [r5, #4]
 80048a6:	f883 4025 	strb.w	r4, [r3, #37]	; 0x25
 80048aa:	f883 1024 	strb.w	r1, [r3, #36]	; 0x24
 80048ae:	4608      	mov	r0, r1
 80048b0:	bc30      	pop	{r4, r5}
 80048b2:	4770      	bx	lr

080048b4 <HAL_DMA_Abort_IT>:
 80048b4:	f890 2025 	ldrb.w	r2, [r0, #37]	; 0x25
 80048b8:	2a02      	cmp	r2, #2
 80048ba:	d003      	beq.n	80048c4 <HAL_DMA_Abort_IT+0x10>
 80048bc:	2204      	movs	r2, #4
 80048be:	63c2      	str	r2, [r0, #60]	; 0x3c
 80048c0:	2001      	movs	r0, #1
 80048c2:	4770      	bx	lr
 80048c4:	6801      	ldr	r1, [r0, #0]
 80048c6:	6c42      	ldr	r2, [r0, #68]	; 0x44
 80048c8:	b570      	push	{r4, r5, r6, lr}
 80048ca:	680c      	ldr	r4, [r1, #0]
 80048cc:	6c06      	ldr	r6, [r0, #64]	; 0x40
 80048ce:	6b85      	ldr	r5, [r0, #56]	; 0x38
 80048d0:	f024 040e 	bic.w	r4, r4, #14
 80048d4:	600c      	str	r4, [r1, #0]
 80048d6:	680c      	ldr	r4, [r1, #0]
 80048d8:	f024 0401 	bic.w	r4, r4, #1
 80048dc:	600c      	str	r4, [r1, #0]
 80048de:	f002 021c 	and.w	r2, r2, #28
 80048e2:	2101      	movs	r1, #1
 80048e4:	fa01 f202 	lsl.w	r2, r1, r2
 80048e8:	2400      	movs	r4, #0
 80048ea:	6072      	str	r2, [r6, #4]
 80048ec:	f880 1025 	strb.w	r1, [r0, #37]	; 0x25
 80048f0:	f880 4024 	strb.w	r4, [r0, #36]	; 0x24
 80048f4:	b115      	cbz	r5, 80048fc <HAL_DMA_Abort_IT+0x48>
 80048f6:	47a8      	blx	r5
 80048f8:	4620      	mov	r0, r4
 80048fa:	bd70      	pop	{r4, r5, r6, pc}
 80048fc:	4628      	mov	r0, r5
 80048fe:	bd70      	pop	{r4, r5, r6, pc}

08004900 <HAL_DMA_IRQHandler>:
 8004900:	b470      	push	{r4, r5, r6}
 8004902:	e9d0 6310 	ldrd	r6, r3, [r0, #64]	; 0x40
 8004906:	2204      	movs	r2, #4
 8004908:	6831      	ldr	r1, [r6, #0]
 800490a:	6805      	ldr	r5, [r0, #0]
 800490c:	f003 031c 	and.w	r3, r3, #28
 8004910:	409a      	lsls	r2, r3
 8004912:	420a      	tst	r2, r1
 8004914:	682c      	ldr	r4, [r5, #0]
 8004916:	d00e      	beq.n	8004936 <HAL_DMA_IRQHandler+0x36>
 8004918:	f014 0f04 	tst.w	r4, #4
 800491c:	d00b      	beq.n	8004936 <HAL_DMA_IRQHandler+0x36>
 800491e:	682b      	ldr	r3, [r5, #0]
 8004920:	069b      	lsls	r3, r3, #26
 8004922:	d403      	bmi.n	800492c <HAL_DMA_IRQHandler+0x2c>
 8004924:	682b      	ldr	r3, [r5, #0]
 8004926:	f023 0304 	bic.w	r3, r3, #4
 800492a:	602b      	str	r3, [r5, #0]
 800492c:	6b03      	ldr	r3, [r0, #48]	; 0x30
 800492e:	6072      	str	r2, [r6, #4]
 8004930:	b1cb      	cbz	r3, 8004966 <HAL_DMA_IRQHandler+0x66>
 8004932:	bc70      	pop	{r4, r5, r6}
 8004934:	4718      	bx	r3
 8004936:	2202      	movs	r2, #2
 8004938:	409a      	lsls	r2, r3
 800493a:	420a      	tst	r2, r1
 800493c:	d015      	beq.n	800496a <HAL_DMA_IRQHandler+0x6a>
 800493e:	f014 0f02 	tst.w	r4, #2
 8004942:	d012      	beq.n	800496a <HAL_DMA_IRQHandler+0x6a>
 8004944:	682b      	ldr	r3, [r5, #0]
 8004946:	0699      	lsls	r1, r3, #26
 8004948:	d406      	bmi.n	8004958 <HAL_DMA_IRQHandler+0x58>
 800494a:	682b      	ldr	r3, [r5, #0]
 800494c:	2101      	movs	r1, #1
 800494e:	f023 030a 	bic.w	r3, r3, #10
 8004952:	602b      	str	r3, [r5, #0]
 8004954:	f880 1025 	strb.w	r1, [r0, #37]	; 0x25
 8004958:	6ac3      	ldr	r3, [r0, #44]	; 0x2c
 800495a:	6072      	str	r2, [r6, #4]
 800495c:	2200      	movs	r2, #0
 800495e:	f880 2024 	strb.w	r2, [r0, #36]	; 0x24
 8004962:	2b00      	cmp	r3, #0
 8004964:	d1e5      	bne.n	8004932 <HAL_DMA_IRQHandler+0x32>
 8004966:	bc70      	pop	{r4, r5, r6}
 8004968:	4770      	bx	lr
 800496a:	2208      	movs	r2, #8
 800496c:	409a      	lsls	r2, r3
 800496e:	420a      	tst	r2, r1
 8004970:	d0f9      	beq.n	8004966 <HAL_DMA_IRQHandler+0x66>
 8004972:	0722      	lsls	r2, r4, #28
 8004974:	d5f7      	bpl.n	8004966 <HAL_DMA_IRQHandler+0x66>
 8004976:	682a      	ldr	r2, [r5, #0]
 8004978:	6b41      	ldr	r1, [r0, #52]	; 0x34
 800497a:	f022 020e 	bic.w	r2, r2, #14
 800497e:	602a      	str	r2, [r5, #0]
 8004980:	2201      	movs	r2, #1
 8004982:	fa02 f303 	lsl.w	r3, r2, r3
 8004986:	2400      	movs	r4, #0
 8004988:	6073      	str	r3, [r6, #4]
 800498a:	63c2      	str	r2, [r0, #60]	; 0x3c
 800498c:	f880 4024 	strb.w	r4, [r0, #36]	; 0x24
 8004990:	f880 2025 	strb.w	r2, [r0, #37]	; 0x25
 8004994:	2900      	cmp	r1, #0
 8004996:	d0e6      	beq.n	8004966 <HAL_DMA_IRQHandler+0x66>
 8004998:	bc70      	pop	{r4, r5, r6}
 800499a:	4708      	bx	r1

0800499c <HAL_FLASH_Program>:
 800499c:	e92d 4ff8 	stmdb	sp!, {r3, r4, r5, r6, r7, r8, r9, sl, fp, lr}
 80049a0:	f240 081c 	movw	r8, #28
 80049a4:	f2c2 0800 	movt	r8, #8192	; 0x2000
 80049a8:	f898 6000 	ldrb.w	r6, [r8]
 80049ac:	2e01      	cmp	r6, #1
 80049ae:	d07c      	beq.n	8004aaa <HAL_FLASH_Program+0x10e>
 80049b0:	469b      	mov	fp, r3
 80049b2:	2301      	movs	r3, #1
 80049b4:	4682      	mov	sl, r0
 80049b6:	460d      	mov	r5, r1
 80049b8:	4614      	mov	r4, r2
 80049ba:	f888 3000 	strb.w	r3, [r8]
 80049be:	f7ff f997 	bl	8003cf0 <HAL_GetTick>
 80049c2:	f44f 5600 	mov.w	r6, #8192	; 0x2000
 80049c6:	4607      	mov	r7, r0
 80049c8:	f2c4 0602 	movt	r6, #16386	; 0x4002
 80049cc:	f24c 394f 	movw	r9, #49999	; 0xc34f
 80049d0:	e004      	b.n	80049dc <HAL_FLASH_Program+0x40>
 80049d2:	f7ff f98d 	bl	8003cf0 <HAL_GetTick>
 80049d6:	1bc0      	subs	r0, r0, r7
 80049d8:	4548      	cmp	r0, r9
 80049da:	d85f      	bhi.n	8004a9c <HAL_FLASH_Program+0x100>
 80049dc:	6933      	ldr	r3, [r6, #16]
 80049de:	03d9      	lsls	r1, r3, #15
 80049e0:	d4f7      	bmi.n	80049d2 <HAL_FLASH_Program+0x36>
 80049e2:	6937      	ldr	r7, [r6, #16]
 80049e4:	f24c 33fa 	movw	r3, #50170	; 0xc3fa
 80049e8:	f2c0 0302 	movt	r3, #2
 80049ec:	401f      	ands	r7, r3
 80049ee:	f040 8087 	bne.w	8004b00 <HAL_FLASH_Program+0x164>
 80049f2:	6933      	ldr	r3, [r6, #16]
 80049f4:	07da      	lsls	r2, r3, #31
 80049f6:	bf48      	it	mi
 80049f8:	2301      	movmi	r3, #1
 80049fa:	f44f 5200 	mov.w	r2, #8192	; 0x2000
 80049fe:	bf48      	it	mi
 8004a00:	6133      	strmi	r3, [r6, #16]
 8004a02:	f2c4 0202 	movt	r2, #16386	; 0x4002
 8004a06:	2300      	movs	r3, #0
 8004a08:	f8c8 3004 	str.w	r3, [r8, #4]
 8004a0c:	6813      	ldr	r3, [r2, #0]
 8004a0e:	f413 6380 	ands.w	r3, r3, #1024	; 0x400
 8004a12:	d04e      	beq.n	8004ab2 <HAL_FLASH_Program+0x116>
 8004a14:	6813      	ldr	r3, [r2, #0]
 8004a16:	2102      	movs	r1, #2
 8004a18:	f423 6380 	bic.w	r3, r3, #1024	; 0x400
 8004a1c:	6013      	str	r3, [r2, #0]
 8004a1e:	f888 101c 	strb.w	r1, [r8, #28]
 8004a22:	f1ba 0f00 	cmp.w	sl, #0
 8004a26:	d149      	bne.n	8004abc <HAL_FLASH_Program+0x120>
 8004a28:	f44f 5300 	mov.w	r3, #8192	; 0x2000
 8004a2c:	f2c4 0302 	movt	r3, #16386	; 0x4002
 8004a30:	695a      	ldr	r2, [r3, #20]
 8004a32:	f042 0201 	orr.w	r2, r2, #1
 8004a36:	615a      	str	r2, [r3, #20]
 8004a38:	602c      	str	r4, [r5, #0]
 8004a3a:	f3bf 8f6f 	isb	sy
 8004a3e:	2701      	movs	r7, #1
 8004a40:	f8c5 b004 	str.w	fp, [r5, #4]
 8004a44:	f7ff f954 	bl	8003cf0 <HAL_GetTick>
 8004a48:	f44f 5400 	mov.w	r4, #8192	; 0x2000
 8004a4c:	4605      	mov	r5, r0
 8004a4e:	f2c4 0402 	movt	r4, #16386	; 0x4002
 8004a52:	f24c 364f 	movw	r6, #49999	; 0xc34f
 8004a56:	e004      	b.n	8004a62 <HAL_FLASH_Program+0xc6>
 8004a58:	f7ff f94a 	bl	8003cf0 <HAL_GetTick>
 8004a5c:	1b40      	subs	r0, r0, r5
 8004a5e:	42b0      	cmp	r0, r6
 8004a60:	d84c      	bhi.n	8004afc <HAL_FLASH_Program+0x160>
 8004a62:	6923      	ldr	r3, [r4, #16]
 8004a64:	03db      	lsls	r3, r3, #15
 8004a66:	d4f7      	bmi.n	8004a58 <HAL_FLASH_Program+0xbc>
 8004a68:	6923      	ldr	r3, [r4, #16]
 8004a6a:	f24c 32fa 	movw	r2, #50170	; 0xc3fa
 8004a6e:	f2c0 0202 	movt	r2, #2
 8004a72:	4013      	ands	r3, r2
 8004a74:	d14c      	bne.n	8004b10 <HAL_FLASH_Program+0x174>
 8004a76:	6925      	ldr	r5, [r4, #16]
 8004a78:	f015 0501 	ands.w	r5, r5, #1
 8004a7c:	d002      	beq.n	8004a84 <HAL_FLASH_Program+0xe8>
 8004a7e:	2201      	movs	r2, #1
 8004a80:	461d      	mov	r5, r3
 8004a82:	6122      	str	r2, [r4, #16]
 8004a84:	b13f      	cbz	r7, 8004a96 <HAL_FLASH_Program+0xfa>
 8004a86:	f44f 5300 	mov.w	r3, #8192	; 0x2000
 8004a8a:	f2c4 0302 	movt	r3, #16386	; 0x4002
 8004a8e:	695a      	ldr	r2, [r3, #20]
 8004a90:	ea22 0707 	bic.w	r7, r2, r7
 8004a94:	615f      	str	r7, [r3, #20]
 8004a96:	f000 f96f 	bl	8004d78 <FLASH_FlushCaches>
 8004a9a:	e000      	b.n	8004a9e <HAL_FLASH_Program+0x102>
 8004a9c:	2503      	movs	r5, #3
 8004a9e:	2300      	movs	r3, #0
 8004aa0:	f888 3000 	strb.w	r3, [r8]
 8004aa4:	4628      	mov	r0, r5
 8004aa6:	e8bd 8ff8 	ldmia.w	sp!, {r3, r4, r5, r6, r7, r8, r9, sl, fp, pc}
 8004aaa:	2502      	movs	r5, #2
 8004aac:	4628      	mov	r0, r5
 8004aae:	e8bd 8ff8 	ldmia.w	sp!, {r3, r4, r5, r6, r7, r8, r9, sl, fp, pc}
 8004ab2:	f888 301c 	strb.w	r3, [r8, #28]
 8004ab6:	f1ba 0f00 	cmp.w	sl, #0
 8004aba:	d0b5      	beq.n	8004a28 <HAL_FLASH_Program+0x8c>
 8004abc:	f10a 33ff 	add.w	r3, sl, #4294967295
 8004ac0:	2b01      	cmp	r3, #1
 8004ac2:	d8bf      	bhi.n	8004a44 <HAL_FLASH_Program+0xa8>
 8004ac4:	f44f 5300 	mov.w	r3, #8192	; 0x2000
 8004ac8:	f2c4 0302 	movt	r3, #16386	; 0x4002
 8004acc:	4622      	mov	r2, r4
 8004ace:	6959      	ldr	r1, [r3, #20]
 8004ad0:	f441 2180 	orr.w	r1, r1, #262144	; 0x40000
 8004ad4:	6159      	str	r1, [r3, #20]
 8004ad6:	f3ef 8010 	mrs	r0, PRIMASK
 8004ada:	b672      	cpsid	i
 8004adc:	1b2d      	subs	r5, r5, r4
 8004ade:	f504 7180 	add.w	r1, r4, #256	; 0x100
 8004ae2:	6813      	ldr	r3, [r2, #0]
 8004ae4:	5153      	str	r3, [r2, r5]
 8004ae6:	3204      	adds	r2, #4
 8004ae8:	428a      	cmp	r2, r1
 8004aea:	d1fa      	bne.n	8004ae2 <HAL_FLASH_Program+0x146>
 8004aec:	f380 8810 	msr	PRIMASK, r0
 8004af0:	f1ba 0f02 	cmp.w	sl, #2
 8004af4:	bf08      	it	eq
 8004af6:	f44f 2780 	moveq.w	r7, #262144	; 0x40000
 8004afa:	e7a3      	b.n	8004a44 <HAL_FLASH_Program+0xa8>
 8004afc:	2503      	movs	r5, #3
 8004afe:	e7c1      	b.n	8004a84 <HAL_FLASH_Program+0xe8>
 8004b00:	f8d8 3004 	ldr.w	r3, [r8, #4]
 8004b04:	433b      	orrs	r3, r7
 8004b06:	f8c8 3004 	str.w	r3, [r8, #4]
 8004b0a:	2501      	movs	r5, #1
 8004b0c:	6137      	str	r7, [r6, #16]
 8004b0e:	e7c6      	b.n	8004a9e <HAL_FLASH_Program+0x102>
 8004b10:	f8d8 2004 	ldr.w	r2, [r8, #4]
 8004b14:	431a      	orrs	r2, r3
 8004b16:	f8c8 2004 	str.w	r2, [r8, #4]
 8004b1a:	2501      	movs	r5, #1
 8004b1c:	6123      	str	r3, [r4, #16]
 8004b1e:	e7b1      	b.n	8004a84 <HAL_FLASH_Program+0xe8>

08004b20 <HAL_FLASH_Unlock>:
 8004b20:	f44f 5300 	mov.w	r3, #8192	; 0x2000
 8004b24:	f2c4 0302 	movt	r3, #16386	; 0x4002
 8004b28:	695a      	ldr	r2, [r3, #20]
 8004b2a:	2a00      	cmp	r2, #0
 8004b2c:	db01      	blt.n	8004b32 <HAL_FLASH_Unlock+0x12>
 8004b2e:	2000      	movs	r0, #0
 8004b30:	4770      	bx	lr
 8004b32:	f240 1123 	movw	r1, #291	; 0x123
 8004b36:	f648 12ab 	movw	r2, #35243	; 0x89ab
 8004b3a:	f2c4 5167 	movt	r1, #17767	; 0x4567
 8004b3e:	f6cc 52ef 	movt	r2, #52719	; 0xcdef
 8004b42:	6099      	str	r1, [r3, #8]
 8004b44:	609a      	str	r2, [r3, #8]
 8004b46:	6958      	ldr	r0, [r3, #20]
 8004b48:	0fc0      	lsrs	r0, r0, #31
 8004b4a:	4770      	bx	lr

08004b4c <HAL_FLASH_Lock>:
 8004b4c:	f44f 5300 	mov.w	r3, #8192	; 0x2000
 8004b50:	f2c4 0302 	movt	r3, #16386	; 0x4002
 8004b54:	2000      	movs	r0, #0
 8004b56:	695a      	ldr	r2, [r3, #20]
 8004b58:	f042 4200 	orr.w	r2, r2, #2147483648	; 0x80000000
 8004b5c:	615a      	str	r2, [r3, #20]
 8004b5e:	4770      	bx	lr

08004b60 <HAL_FLASH_GetError>:
 8004b60:	f240 031c 	movw	r3, #28
 8004b64:	f2c2 0300 	movt	r3, #8192	; 0x2000
 8004b68:	6858      	ldr	r0, [r3, #4]
 8004b6a:	4770      	bx	lr

08004b6c <FLASH_WaitForLastOperation>:
 8004b6c:	b570      	push	{r4, r5, r6, lr}
 8004b6e:	4604      	mov	r4, r0
 8004b70:	f7ff f8be 	bl	8003cf0 <HAL_GetTick>
 8004b74:	f44f 5600 	mov.w	r6, #8192	; 0x2000
 8004b78:	4605      	mov	r5, r0
 8004b7a:	f2c4 0602 	movt	r6, #16386	; 0x4002
 8004b7e:	1c60      	adds	r0, r4, #1
 8004b80:	d119      	bne.n	8004bb6 <FLASH_WaitForLastOperation+0x4a>
 8004b82:	f44f 5200 	mov.w	r2, #8192	; 0x2000
 8004b86:	f2c4 0202 	movt	r2, #16386	; 0x4002
 8004b8a:	6913      	ldr	r3, [r2, #16]
 8004b8c:	03d9      	lsls	r1, r3, #15
 8004b8e:	d4fc      	bmi.n	8004b8a <FLASH_WaitForLastOperation+0x1e>
 8004b90:	f44f 5200 	mov.w	r2, #8192	; 0x2000
 8004b94:	f2c4 0202 	movt	r2, #16386	; 0x4002
 8004b98:	f24c 31fa 	movw	r1, #50170	; 0xc3fa
 8004b9c:	6913      	ldr	r3, [r2, #16]
 8004b9e:	f2c0 0102 	movt	r1, #2
 8004ba2:	400b      	ands	r3, r1
 8004ba4:	d111      	bne.n	8004bca <FLASH_WaitForLastOperation+0x5e>
 8004ba6:	6910      	ldr	r0, [r2, #16]
 8004ba8:	f010 0001 	ands.w	r0, r0, #1
 8004bac:	d002      	beq.n	8004bb4 <FLASH_WaitForLastOperation+0x48>
 8004bae:	2101      	movs	r1, #1
 8004bb0:	4618      	mov	r0, r3
 8004bb2:	6111      	str	r1, [r2, #16]
 8004bb4:	bd70      	pop	{r4, r5, r6, pc}
 8004bb6:	6933      	ldr	r3, [r6, #16]
 8004bb8:	03db      	lsls	r3, r3, #15
 8004bba:	d5e9      	bpl.n	8004b90 <FLASH_WaitForLastOperation+0x24>
 8004bbc:	f7ff f898 	bl	8003cf0 <HAL_GetTick>
 8004bc0:	1b40      	subs	r0, r0, r5
 8004bc2:	42a0      	cmp	r0, r4
 8004bc4:	d3db      	bcc.n	8004b7e <FLASH_WaitForLastOperation+0x12>
 8004bc6:	2003      	movs	r0, #3
 8004bc8:	bd70      	pop	{r4, r5, r6, pc}
 8004bca:	f240 011c 	movw	r1, #28
 8004bce:	f2c2 0100 	movt	r1, #8192	; 0x2000
 8004bd2:	2001      	movs	r0, #1
 8004bd4:	684c      	ldr	r4, [r1, #4]
 8004bd6:	431c      	orrs	r4, r3
 8004bd8:	604c      	str	r4, [r1, #4]
 8004bda:	6113      	str	r3, [r2, #16]
 8004bdc:	bd70      	pop	{r4, r5, r6, pc}
 8004bde:	bf00      	nop

08004be0 <HAL_FLASHEx_Erase>:
 8004be0:	e92d 47f0 	stmdb	sp!, {r4, r5, r6, r7, r8, r9, sl, lr}
 8004be4:	f240 091c 	movw	r9, #28
 8004be8:	f2c2 0900 	movt	r9, #8192	; 0x2000
 8004bec:	f899 3000 	ldrb.w	r3, [r9]
 8004bf0:	2b01      	cmp	r3, #1
 8004bf2:	f000 808f 	beq.w	8004d14 <HAL_FLASHEx_Erase+0x134>
 8004bf6:	4682      	mov	sl, r0
 8004bf8:	2401      	movs	r4, #1
 8004bfa:	f24c 3050 	movw	r0, #50000	; 0xc350
 8004bfe:	460f      	mov	r7, r1
 8004c00:	f889 4000 	strb.w	r4, [r9]
 8004c04:	f7ff ffb2 	bl	8004b6c <FLASH_WaitForLastOperation>
 8004c08:	4606      	mov	r6, r0
 8004c0a:	b128      	cbz	r0, 8004c18 <HAL_FLASHEx_Erase+0x38>
 8004c0c:	2300      	movs	r3, #0
 8004c0e:	f889 3000 	strb.w	r3, [r9]
 8004c12:	4630      	mov	r0, r6
 8004c14:	e8bd 87f0 	ldmia.w	sp!, {r4, r5, r6, r7, r8, r9, sl, pc}
 8004c18:	f44f 5300 	mov.w	r3, #8192	; 0x2000
 8004c1c:	f2c4 0302 	movt	r3, #16386	; 0x4002
 8004c20:	f8c9 0004 	str.w	r0, [r9, #4]
 8004c24:	681a      	ldr	r2, [r3, #0]
 8004c26:	f412 7f00 	tst.w	r2, #512	; 0x200
 8004c2a:	681a      	ldr	r2, [r3, #0]
 8004c2c:	d176      	bne.n	8004d1c <HAL_FLASHEx_Erase+0x13c>
 8004c2e:	0552      	lsls	r2, r2, #21
 8004c30:	f140 809f 	bpl.w	8004d72 <HAL_FLASHEx_Erase+0x192>
 8004c34:	681a      	ldr	r2, [r3, #0]
 8004c36:	2102      	movs	r1, #2
 8004c38:	f422 6280 	bic.w	r2, r2, #1024	; 0x400
 8004c3c:	601a      	str	r2, [r3, #0]
 8004c3e:	f889 101c 	strb.w	r1, [r9, #28]
 8004c42:	f8da 3000 	ldr.w	r3, [sl]
 8004c46:	2b01      	cmp	r3, #1
 8004c48:	d072      	beq.n	8004d30 <HAL_FLASHEx_Erase+0x150>
 8004c4a:	f04f 33ff 	mov.w	r3, #4294967295
 8004c4e:	603b      	str	r3, [r7, #0]
 8004c50:	e9da 5302 	ldrd	r5, r3, [sl, #8]
 8004c54:	442b      	add	r3, r5
 8004c56:	429d      	cmp	r5, r3
 8004c58:	d22a      	bcs.n	8004cb0 <HAL_FLASHEx_Erase+0xd0>
 8004c5a:	f44f 5400 	mov.w	r4, #8192	; 0x2000
 8004c5e:	f64f 4805 	movw	r8, #64517	; 0xfc05
 8004c62:	f2c4 0402 	movt	r4, #16386	; 0x4002
 8004c66:	f6cf 78ff 	movt	r8, #65535	; 0xffff
 8004c6a:	e005      	b.n	8004c78 <HAL_FLASHEx_Erase+0x98>
 8004c6c:	e9da 3202 	ldrd	r3, r2, [sl, #8]
 8004c70:	3501      	adds	r5, #1
 8004c72:	4413      	add	r3, r2
 8004c74:	42ab      	cmp	r3, r5
 8004c76:	d91b      	bls.n	8004cb0 <HAL_FLASHEx_Erase+0xd0>
 8004c78:	6962      	ldr	r2, [r4, #20]
 8004c7a:	00eb      	lsls	r3, r5, #3
 8004c7c:	f422 727e 	bic.w	r2, r2, #1016	; 0x3f8
 8004c80:	f403 63ff 	and.w	r3, r3, #2040	; 0x7f8
 8004c84:	4313      	orrs	r3, r2
 8004c86:	6163      	str	r3, [r4, #20]
 8004c88:	6963      	ldr	r3, [r4, #20]
 8004c8a:	f043 0302 	orr.w	r3, r3, #2
 8004c8e:	6163      	str	r3, [r4, #20]
 8004c90:	6963      	ldr	r3, [r4, #20]
 8004c92:	f443 3380 	orr.w	r3, r3, #65536	; 0x10000
 8004c96:	6163      	str	r3, [r4, #20]
 8004c98:	f24c 3050 	movw	r0, #50000	; 0xc350
 8004c9c:	f7ff ff66 	bl	8004b6c <FLASH_WaitForLastOperation>
 8004ca0:	6963      	ldr	r3, [r4, #20]
 8004ca2:	ea03 0308 	and.w	r3, r3, r8
 8004ca6:	6163      	str	r3, [r4, #20]
 8004ca8:	2800      	cmp	r0, #0
 8004caa:	d0df      	beq.n	8004c6c <HAL_FLASHEx_Erase+0x8c>
 8004cac:	603d      	str	r5, [r7, #0]
 8004cae:	4606      	mov	r6, r0
 8004cb0:	f899 301c 	ldrb.w	r3, [r9, #28]
 8004cb4:	f003 02fd 	and.w	r2, r3, #253	; 0xfd
 8004cb8:	2a01      	cmp	r2, #1
 8004cba:	b2db      	uxtb	r3, r3
 8004cbc:	d113      	bne.n	8004ce6 <HAL_FLASHEx_Erase+0x106>
 8004cbe:	f44f 5200 	mov.w	r2, #8192	; 0x2000
 8004cc2:	f2c4 0202 	movt	r2, #16386	; 0x4002
 8004cc6:	6811      	ldr	r1, [r2, #0]
 8004cc8:	f421 7100 	bic.w	r1, r1, #512	; 0x200
 8004ccc:	6011      	str	r1, [r2, #0]
 8004cce:	6811      	ldr	r1, [r2, #0]
 8004cd0:	f441 6100 	orr.w	r1, r1, #2048	; 0x800
 8004cd4:	6011      	str	r1, [r2, #0]
 8004cd6:	6811      	ldr	r1, [r2, #0]
 8004cd8:	f421 6100 	bic.w	r1, r1, #2048	; 0x800
 8004cdc:	6011      	str	r1, [r2, #0]
 8004cde:	6811      	ldr	r1, [r2, #0]
 8004ce0:	f441 7100 	orr.w	r1, r1, #512	; 0x200
 8004ce4:	6011      	str	r1, [r2, #0]
 8004ce6:	3b02      	subs	r3, #2
 8004ce8:	2b01      	cmp	r3, #1
 8004cea:	d80f      	bhi.n	8004d0c <HAL_FLASHEx_Erase+0x12c>
 8004cec:	f44f 5300 	mov.w	r3, #8192	; 0x2000
 8004cf0:	f2c4 0302 	movt	r3, #16386	; 0x4002
 8004cf4:	681a      	ldr	r2, [r3, #0]
 8004cf6:	f442 5280 	orr.w	r2, r2, #4096	; 0x1000
 8004cfa:	601a      	str	r2, [r3, #0]
 8004cfc:	681a      	ldr	r2, [r3, #0]
 8004cfe:	f422 5280 	bic.w	r2, r2, #4096	; 0x1000
 8004d02:	601a      	str	r2, [r3, #0]
 8004d04:	681a      	ldr	r2, [r3, #0]
 8004d06:	f442 6280 	orr.w	r2, r2, #1024	; 0x400
 8004d0a:	601a      	str	r2, [r3, #0]
 8004d0c:	2300      	movs	r3, #0
 8004d0e:	f889 301c 	strb.w	r3, [r9, #28]
 8004d12:	e77b      	b.n	8004c0c <HAL_FLASHEx_Erase+0x2c>
 8004d14:	2602      	movs	r6, #2
 8004d16:	4630      	mov	r0, r6
 8004d18:	e8bd 87f0 	ldmia.w	sp!, {r4, r5, r6, r7, r8, r9, sl, pc}
 8004d1c:	0551      	lsls	r1, r2, #21
 8004d1e:	d525      	bpl.n	8004d6c <HAL_FLASHEx_Erase+0x18c>
 8004d20:	681a      	ldr	r2, [r3, #0]
 8004d22:	2103      	movs	r1, #3
 8004d24:	f422 6280 	bic.w	r2, r2, #1024	; 0x400
 8004d28:	601a      	str	r2, [r3, #0]
 8004d2a:	f889 101c 	strb.w	r1, [r9, #28]
 8004d2e:	e788      	b.n	8004c42 <HAL_FLASHEx_Erase+0x62>
 8004d30:	f8da 3004 	ldr.w	r3, [sl, #4]
 8004d34:	07db      	lsls	r3, r3, #31
 8004d36:	d507      	bpl.n	8004d48 <HAL_FLASHEx_Erase+0x168>
 8004d38:	f44f 5300 	mov.w	r3, #8192	; 0x2000
 8004d3c:	f2c4 0302 	movt	r3, #16386	; 0x4002
 8004d40:	695a      	ldr	r2, [r3, #20]
 8004d42:	f042 0204 	orr.w	r2, r2, #4
 8004d46:	615a      	str	r2, [r3, #20]
 8004d48:	f44f 5400 	mov.w	r4, #8192	; 0x2000
 8004d4c:	f2c4 0402 	movt	r4, #16386	; 0x4002
 8004d50:	f24c 3050 	movw	r0, #50000	; 0xc350
 8004d54:	6963      	ldr	r3, [r4, #20]
 8004d56:	f443 3380 	orr.w	r3, r3, #65536	; 0x10000
 8004d5a:	6163      	str	r3, [r4, #20]
 8004d5c:	f7ff ff06 	bl	8004b6c <FLASH_WaitForLastOperation>
 8004d60:	6963      	ldr	r3, [r4, #20]
 8004d62:	f023 0304 	bic.w	r3, r3, #4
 8004d66:	4606      	mov	r6, r0
 8004d68:	6163      	str	r3, [r4, #20]
 8004d6a:	e7a1      	b.n	8004cb0 <HAL_FLASHEx_Erase+0xd0>
 8004d6c:	f889 401c 	strb.w	r4, [r9, #28]
 8004d70:	e767      	b.n	8004c42 <HAL_FLASHEx_Erase+0x62>
 8004d72:	f889 001c 	strb.w	r0, [r9, #28]
 8004d76:	e764      	b.n	8004c42 <HAL_FLASHEx_Erase+0x62>

08004d78 <FLASH_FlushCaches>:
 8004d78:	f240 011c 	movw	r1, #28
 8004d7c:	f2c2 0100 	movt	r1, #8192	; 0x2000
 8004d80:	7f0b      	ldrb	r3, [r1, #28]
 8004d82:	f003 02fd 	and.w	r2, r3, #253	; 0xfd
 8004d86:	2a01      	cmp	r2, #1
 8004d88:	b2db      	uxtb	r3, r3
 8004d8a:	d113      	bne.n	8004db4 <FLASH_FlushCaches+0x3c>
 8004d8c:	f44f 5200 	mov.w	r2, #8192	; 0x2000
 8004d90:	f2c4 0202 	movt	r2, #16386	; 0x4002
 8004d94:	6810      	ldr	r0, [r2, #0]
 8004d96:	f420 7000 	bic.w	r0, r0, #512	; 0x200
 8004d9a:	6010      	str	r0, [r2, #0]
 8004d9c:	6810      	ldr	r0, [r2, #0]
 8004d9e:	f440 6000 	orr.w	r0, r0, #2048	; 0x800
 8004da2:	6010      	str	r0, [r2, #0]
 8004da4:	6810      	ldr	r0, [r2, #0]
 8004da6:	f420 6000 	bic.w	r0, r0, #2048	; 0x800
 8004daa:	6010      	str	r0, [r2, #0]
 8004dac:	6810      	ldr	r0, [r2, #0]
 8004dae:	f440 7000 	orr.w	r0, r0, #512	; 0x200
 8004db2:	6010      	str	r0, [r2, #0]
 8004db4:	3b02      	subs	r3, #2
 8004db6:	2b01      	cmp	r3, #1
 8004db8:	d80f      	bhi.n	8004dda <FLASH_FlushCaches+0x62>
 8004dba:	f44f 5300 	mov.w	r3, #8192	; 0x2000
 8004dbe:	f2c4 0302 	movt	r3, #16386	; 0x4002
 8004dc2:	681a      	ldr	r2, [r3, #0]
 8004dc4:	f442 5280 	orr.w	r2, r2, #4096	; 0x1000
 8004dc8:	601a      	str	r2, [r3, #0]
 8004dca:	681a      	ldr	r2, [r3, #0]
 8004dcc:	f422 5280 	bic.w	r2, r2, #4096	; 0x1000
 8004dd0:	601a      	str	r2, [r3, #0]
 8004dd2:	681a      	ldr	r2, [r3, #0]
 8004dd4:	f442 6280 	orr.w	r2, r2, #1024	; 0x400
 8004dd8:	601a      	str	r2, [r3, #0]
 8004dda:	2300      	movs	r3, #0
 8004ddc:	770b      	strb	r3, [r1, #28]
 8004dde:	4770      	bx	lr

08004de0 <HAL_GPIO_Init>:
 8004de0:	e92d 4ff0 	stmdb	sp!, {r4, r5, r6, r7, r8, r9, sl, fp, lr}
 8004de4:	680c      	ldr	r4, [r1, #0]
 8004de6:	b08b      	sub	sp, #44	; 0x2c
 8004de8:	2c00      	cmp	r4, #0
 8004dea:	f000 809a 	beq.w	8004f22 <HAL_GPIO_Init+0x142>
 8004dee:	f44f 5a80 	mov.w	sl, #4096	; 0x1000
 8004df2:	f44f 6780 	mov.w	r7, #1024	; 0x400
 8004df6:	4656      	mov	r6, sl
 8004df8:	f2c4 0a02 	movt	sl, #16386	; 0x4002
 8004dfc:	463b      	mov	r3, r7
 8004dfe:	f44f 6200 	mov.w	r2, #2048	; 0x800
 8004e02:	f44f 6540 	mov.w	r5, #3072	; 0xc00
 8004e06:	e9cd 1a01 	strd	r1, sl, [sp, #4]
 8004e0a:	f6c4 0300 	movt	r3, #18432	; 0x4800
 8004e0e:	f6c4 0200 	movt	r2, #18432	; 0x4800
 8004e12:	f6c4 0500 	movt	r5, #18432	; 0x4800
 8004e16:	f6c4 0600 	movt	r6, #18432	; 0x4800
 8004e1a:	9304      	str	r3, [sp, #16]
 8004e1c:	f2c4 0701 	movt	r7, #16385	; 0x4001
 8004e20:	9205      	str	r2, [sp, #20]
 8004e22:	9506      	str	r5, [sp, #24]
 8004e24:	9607      	str	r6, [sp, #28]
 8004e26:	2300      	movs	r3, #0
 8004e28:	f04f 0b01 	mov.w	fp, #1
 8004e2c:	fa0b fe03 	lsl.w	lr, fp, r3
 8004e30:	ea1e 0a04 	ands.w	sl, lr, r4
 8004e34:	d071      	beq.n	8004f1a <HAL_GPIO_Init+0x13a>
 8004e36:	9901      	ldr	r1, [sp, #4]
 8004e38:	684e      	ldr	r6, [r1, #4]
 8004e3a:	f006 0203 	and.w	r2, r6, #3
 8004e3e:	1e55      	subs	r5, r2, #1
 8004e40:	2d01      	cmp	r5, #1
 8004e42:	ea4f 0c43 	mov.w	ip, r3, lsl #1
 8004e46:	d96f      	bls.n	8004f28 <HAL_GPIO_Init+0x148>
 8004e48:	2a03      	cmp	r2, #3
 8004e4a:	f040 80b5 	bne.w	8004fb8 <HAL_GPIO_Init+0x1d8>
 8004e4e:	fa02 f20c 	lsl.w	r2, r2, ip
 8004e52:	43d5      	mvns	r5, r2
 8004e54:	f8d0 c000 	ldr.w	ip, [r0]
 8004e58:	ea0c 0505 	and.w	r5, ip, r5
 8004e5c:	432a      	orrs	r2, r5
 8004e5e:	f416 3f40 	tst.w	r6, #196608	; 0x30000
 8004e62:	6002      	str	r2, [r0, #0]
 8004e64:	d059      	beq.n	8004f1a <HAL_GPIO_Init+0x13a>
 8004e66:	9d02      	ldr	r5, [sp, #8]
 8004e68:	6e2a      	ldr	r2, [r5, #96]	; 0x60
 8004e6a:	f042 0201 	orr.w	r2, r2, #1
 8004e6e:	662a      	str	r2, [r5, #96]	; 0x60
 8004e70:	6e2a      	ldr	r2, [r5, #96]	; 0x60
 8004e72:	f023 0503 	bic.w	r5, r3, #3
 8004e76:	f105 4580 	add.w	r5, r5, #1073741824	; 0x40000000
 8004e7a:	f002 0201 	and.w	r2, r2, #1
 8004e7e:	f505 3580 	add.w	r5, r5, #65536	; 0x10000
 8004e82:	9209      	str	r2, [sp, #36]	; 0x24
 8004e84:	f003 0203 	and.w	r2, r3, #3
 8004e88:	f8dd c024 	ldr.w	ip, [sp, #36]	; 0x24
 8004e8c:	f8d5 c008 	ldr.w	ip, [r5, #8]
 8004e90:	0092      	lsls	r2, r2, #2
 8004e92:	210f      	movs	r1, #15
 8004e94:	fa01 fe02 	lsl.w	lr, r1, r2
 8004e98:	f1b0 4f90 	cmp.w	r0, #1207959552	; 0x48000000
 8004e9c:	ea2c 0c0e 	bic.w	ip, ip, lr
 8004ea0:	d017      	beq.n	8004ed2 <HAL_GPIO_Init+0xf2>
 8004ea2:	9904      	ldr	r1, [sp, #16]
 8004ea4:	4288      	cmp	r0, r1
 8004ea6:	f000 8093 	beq.w	8004fd0 <HAL_GPIO_Init+0x1f0>
 8004eaa:	9905      	ldr	r1, [sp, #20]
 8004eac:	4288      	cmp	r0, r1
 8004eae:	f000 8094 	beq.w	8004fda <HAL_GPIO_Init+0x1fa>
 8004eb2:	9906      	ldr	r1, [sp, #24]
 8004eb4:	4288      	cmp	r0, r1
 8004eb6:	f000 8084 	beq.w	8004fc2 <HAL_GPIO_Init+0x1e2>
 8004eba:	9907      	ldr	r1, [sp, #28]
 8004ebc:	4288      	cmp	r0, r1
 8004ebe:	bf0b      	itete	eq
 8004ec0:	f04f 0e04 	moveq.w	lr, #4
 8004ec4:	2107      	movne	r1, #7
 8004ec6:	fa0e f202 	lsleq.w	r2, lr, r2
 8004eca:	fa01 f202 	lslne.w	r2, r1, r2
 8004ece:	ea4c 0c02 	orr.w	ip, ip, r2
 8004ed2:	f8c5 c008 	str.w	ip, [r5, #8]
 8004ed6:	68ba      	ldr	r2, [r7, #8]
 8004ed8:	ea6f 0c0a 	mvn.w	ip, sl
 8004edc:	02f5      	lsls	r5, r6, #11
 8004ede:	bf54      	ite	pl
 8004ee0:	ea0c 0202 	andpl.w	r2, ip, r2
 8004ee4:	ea4a 0202 	orrmi.w	r2, sl, r2
 8004ee8:	60ba      	str	r2, [r7, #8]
 8004eea:	68fa      	ldr	r2, [r7, #12]
 8004eec:	02b1      	lsls	r1, r6, #10
 8004eee:	bf54      	ite	pl
 8004ef0:	ea0c 0202 	andpl.w	r2, ip, r2
 8004ef4:	ea4a 0202 	orrmi.w	r2, sl, r2
 8004ef8:	60fa      	str	r2, [r7, #12]
 8004efa:	687d      	ldr	r5, [r7, #4]
 8004efc:	03b2      	lsls	r2, r6, #14
 8004efe:	bf54      	ite	pl
 8004f00:	ea0c 0505 	andpl.w	r5, ip, r5
 8004f04:	ea4a 0505 	orrmi.w	r5, sl, r5
 8004f08:	607d      	str	r5, [r7, #4]
 8004f0a:	683a      	ldr	r2, [r7, #0]
 8004f0c:	03f1      	lsls	r1, r6, #15
 8004f0e:	bf54      	ite	pl
 8004f10:	ea0c 0202 	andpl.w	r2, ip, r2
 8004f14:	ea4a 0202 	orrmi.w	r2, sl, r2
 8004f18:	603a      	str	r2, [r7, #0]
 8004f1a:	3301      	adds	r3, #1
 8004f1c:	fa34 f203 	lsrs.w	r2, r4, r3
 8004f20:	d184      	bne.n	8004e2c <HAL_GPIO_Init+0x4c>
 8004f22:	b00b      	add	sp, #44	; 0x2c
 8004f24:	e8bd 8ff0 	ldmia.w	sp!, {r4, r5, r6, r7, r8, r9, sl, fp, pc}
 8004f28:	f8d0 8008 	ldr.w	r8, [r0, #8]
 8004f2c:	68c9      	ldr	r1, [r1, #12]
 8004f2e:	2503      	movs	r5, #3
 8004f30:	fa05 f50c 	lsl.w	r5, r5, ip
 8004f34:	ea28 0805 	bic.w	r8, r8, r5
 8004f38:	fa01 f90c 	lsl.w	r9, r1, ip
 8004f3c:	ea49 0808 	orr.w	r8, r9, r8
 8004f40:	f8c0 8008 	str.w	r8, [r0, #8]
 8004f44:	f8d0 9004 	ldr.w	r9, [r0, #4]
 8004f48:	f3c6 1800 	ubfx	r8, r6, #4, #1
 8004f4c:	ea29 0e0e 	bic.w	lr, r9, lr
 8004f50:	fa08 f803 	lsl.w	r8, r8, r3
 8004f54:	ea48 0e0e 	orr.w	lr, r8, lr
 8004f58:	43ed      	mvns	r5, r5
 8004f5a:	f8c0 e004 	str.w	lr, [r0, #4]
 8004f5e:	9901      	ldr	r1, [sp, #4]
 8004f60:	f8d0 e00c 	ldr.w	lr, [r0, #12]
 8004f64:	6889      	ldr	r1, [r1, #8]
 8004f66:	ea0e 0e05 	and.w	lr, lr, r5
 8004f6a:	fa01 f80c 	lsl.w	r8, r1, ip
 8004f6e:	ea48 0e0e 	orr.w	lr, r8, lr
 8004f72:	2a02      	cmp	r2, #2
 8004f74:	f8c0 e00c 	str.w	lr, [r0, #12]
 8004f78:	d002      	beq.n	8004f80 <HAL_GPIO_Init+0x1a0>
 8004f7a:	fa02 f20c 	lsl.w	r2, r2, ip
 8004f7e:	e769      	b.n	8004e54 <HAL_GPIO_Init+0x74>
 8004f80:	ea4f 08d3 	mov.w	r8, r3, lsr #3
 8004f84:	eb00 0888 	add.w	r8, r0, r8, lsl #2
 8004f88:	f003 0e07 	and.w	lr, r3, #7
 8004f8c:	f8d8 1020 	ldr.w	r1, [r8, #32]
 8004f90:	9103      	str	r1, [sp, #12]
 8004f92:	9901      	ldr	r1, [sp, #4]
 8004f94:	6909      	ldr	r1, [r1, #16]
 8004f96:	ea4f 0e8e 	mov.w	lr, lr, lsl #2
 8004f9a:	fa01 f90e 	lsl.w	r9, r1, lr
 8004f9e:	210f      	movs	r1, #15
 8004fa0:	fa01 fe0e 	lsl.w	lr, r1, lr
 8004fa4:	9903      	ldr	r1, [sp, #12]
 8004fa6:	ea21 0e0e 	bic.w	lr, r1, lr
 8004faa:	ea49 0e0e 	orr.w	lr, r9, lr
 8004fae:	fa02 f20c 	lsl.w	r2, r2, ip
 8004fb2:	f8c8 e020 	str.w	lr, [r8, #32]
 8004fb6:	e74d      	b.n	8004e54 <HAL_GPIO_Init+0x74>
 8004fb8:	2503      	movs	r5, #3
 8004fba:	fa05 f50c 	lsl.w	r5, r5, ip
 8004fbe:	43ed      	mvns	r5, r5
 8004fc0:	e7cd      	b.n	8004f5e <HAL_GPIO_Init+0x17e>
 8004fc2:	f04f 0e03 	mov.w	lr, #3
 8004fc6:	fa0e f202 	lsl.w	r2, lr, r2
 8004fca:	ea4c 0c02 	orr.w	ip, ip, r2
 8004fce:	e780      	b.n	8004ed2 <HAL_GPIO_Init+0xf2>
 8004fd0:	fa0b f202 	lsl.w	r2, fp, r2
 8004fd4:	ea4c 0c02 	orr.w	ip, ip, r2
 8004fd8:	e77b      	b.n	8004ed2 <HAL_GPIO_Init+0xf2>
 8004fda:	f04f 0e02 	mov.w	lr, #2
 8004fde:	fa0e f202 	lsl.w	r2, lr, r2
 8004fe2:	ea4c 0c02 	orr.w	ip, ip, r2
 8004fe6:	e774      	b.n	8004ed2 <HAL_GPIO_Init+0xf2>

08004fe8 <HAL_GPIO_ReadPin>:
 8004fe8:	6903      	ldr	r3, [r0, #16]
 8004fea:	4219      	tst	r1, r3
 8004fec:	bf14      	ite	ne
 8004fee:	2001      	movne	r0, #1
 8004ff0:	2000      	moveq	r0, #0
 8004ff2:	4770      	bx	lr

08004ff4 <HAL_GPIO_WritePin>:
 8004ff4:	b10a      	cbz	r2, 8004ffa <HAL_GPIO_WritePin+0x6>
 8004ff6:	6181      	str	r1, [r0, #24]
 8004ff8:	4770      	bx	lr
 8004ffa:	6281      	str	r1, [r0, #40]	; 0x28
 8004ffc:	4770      	bx	lr
 8004ffe:	bf00      	nop

08005000 <HAL_GPIO_TogglePin>:
 8005000:	6943      	ldr	r3, [r0, #20]
 8005002:	ea01 0203 	and.w	r2, r1, r3
 8005006:	ea21 0103 	bic.w	r1, r1, r3
 800500a:	ea41 4102 	orr.w	r1, r1, r2, lsl #16
 800500e:	6181      	str	r1, [r0, #24]
 8005010:	4770      	bx	lr
 8005012:	bf00      	nop

08005014 <HAL_PWREx_GetVoltageRange>:
 8005014:	f44f 43e0 	mov.w	r3, #28672	; 0x7000
 8005018:	f2c4 0300 	movt	r3, #16384	; 0x4000
 800501c:	6818      	ldr	r0, [r3, #0]
 800501e:	f400 60c0 	and.w	r0, r0, #1536	; 0x600
 8005022:	4770      	bx	lr

08005024 <HAL_PWREx_ControlVoltageScaling>:
 8005024:	f5b0 7f00 	cmp.w	r0, #512	; 0x200
 8005028:	d011      	beq.n	800504e <HAL_PWREx_ControlVoltageScaling+0x2a>
 800502a:	f44f 43e0 	mov.w	r3, #28672	; 0x7000
 800502e:	f2c4 0300 	movt	r3, #16384	; 0x4000
 8005032:	681a      	ldr	r2, [r3, #0]
 8005034:	f402 62c0 	and.w	r2, r2, #1536	; 0x600
 8005038:	f5b2 6f80 	cmp.w	r2, #1024	; 0x400
 800503c:	d03e      	beq.n	80050bc <HAL_PWREx_ControlVoltageScaling+0x98>
 800503e:	681a      	ldr	r2, [r3, #0]
 8005040:	f422 62c0 	bic.w	r2, r2, #1536	; 0x600
 8005044:	f442 6280 	orr.w	r2, r2, #1024	; 0x400
 8005048:	601a      	str	r2, [r3, #0]
 800504a:	2000      	movs	r0, #0
 800504c:	4770      	bx	lr
 800504e:	f44f 42e0 	mov.w	r2, #28672	; 0x7000
 8005052:	f2c4 0200 	movt	r2, #16384	; 0x4000
 8005056:	6813      	ldr	r3, [r2, #0]
 8005058:	f403 63c0 	and.w	r3, r3, #1536	; 0x600
 800505c:	f5b3 7f00 	cmp.w	r3, #512	; 0x200
 8005060:	d02c      	beq.n	80050bc <HAL_PWREx_ControlVoltageScaling+0x98>
 8005062:	6813      	ldr	r3, [r2, #0]
 8005064:	f240 0110 	movw	r1, #16
 8005068:	f423 63c0 	bic.w	r3, r3, #1536	; 0x600
 800506c:	f443 7300 	orr.w	r3, r3, #512	; 0x200
 8005070:	f2c2 0100 	movt	r1, #8192	; 0x2000
 8005074:	b410      	push	{r4}
 8005076:	6013      	str	r3, [r2, #0]
 8005078:	680c      	ldr	r4, [r1, #0]
 800507a:	6950      	ldr	r0, [r2, #20]
 800507c:	2332      	movs	r3, #50	; 0x32
 800507e:	f64d 6183 	movw	r1, #56963	; 0xde83
 8005082:	fb03 f304 	mul.w	r3, r3, r4
 8005086:	f2c4 311b 	movt	r1, #17179	; 0x431b
 800508a:	fba1 1303 	umull	r1, r3, r1, r3
 800508e:	0c9b      	lsrs	r3, r3, #18
 8005090:	0540      	lsls	r0, r0, #21
 8005092:	f103 0301 	add.w	r3, r3, #1
 8005096:	d506      	bpl.n	80050a6 <HAL_PWREx_ControlVoltageScaling+0x82>
 8005098:	e000      	b.n	800509c <HAL_PWREx_ControlVoltageScaling+0x78>
 800509a:	b123      	cbz	r3, 80050a6 <HAL_PWREx_ControlVoltageScaling+0x82>
 800509c:	6951      	ldr	r1, [r2, #20]
 800509e:	0549      	lsls	r1, r1, #21
 80050a0:	f103 33ff 	add.w	r3, r3, #4294967295
 80050a4:	d4f9      	bmi.n	800509a <HAL_PWREx_ControlVoltageScaling+0x76>
 80050a6:	f44f 43e0 	mov.w	r3, #28672	; 0x7000
 80050aa:	f2c4 0300 	movt	r3, #16384	; 0x4000
 80050ae:	695b      	ldr	r3, [r3, #20]
 80050b0:	055b      	lsls	r3, r3, #21
 80050b2:	d405      	bmi.n	80050c0 <HAL_PWREx_ControlVoltageScaling+0x9c>
 80050b4:	2000      	movs	r0, #0
 80050b6:	f85d 4b04 	ldr.w	r4, [sp], #4
 80050ba:	4770      	bx	lr
 80050bc:	2000      	movs	r0, #0
 80050be:	4770      	bx	lr
 80050c0:	2003      	movs	r0, #3
 80050c2:	e7f8      	b.n	80050b6 <HAL_PWREx_ControlVoltageScaling+0x92>

080050c4 <RCC_SetFlashLatencyFromMSIRange>:
 80050c4:	b530      	push	{r4, r5, lr}
 80050c6:	f44f 5480 	mov.w	r4, #4096	; 0x1000
 80050ca:	f2c4 0402 	movt	r4, #16386	; 0x4002
 80050ce:	b083      	sub	sp, #12
 80050d0:	6da3      	ldr	r3, [r4, #88]	; 0x58
 80050d2:	00db      	lsls	r3, r3, #3
 80050d4:	4605      	mov	r5, r0
 80050d6:	d51f      	bpl.n	8005118 <RCC_SetFlashLatencyFromMSIRange+0x54>
 80050d8:	f7ff ff9c 	bl	8005014 <HAL_PWREx_GetVoltageRange>
 80050dc:	f5b0 7f00 	cmp.w	r0, #512	; 0x200
 80050e0:	d02c      	beq.n	800513c <RCC_SetFlashLatencyFromMSIRange+0x78>
 80050e2:	2d80      	cmp	r5, #128	; 0x80
 80050e4:	d816      	bhi.n	8005114 <RCC_SetFlashLatencyFromMSIRange+0x50>
 80050e6:	d032      	beq.n	800514e <RCC_SetFlashLatencyFromMSIRange+0x8a>
 80050e8:	f1a5 0570 	sub.w	r5, r5, #112	; 0x70
 80050ec:	fab5 f585 	clz	r5, r5
 80050f0:	096d      	lsrs	r5, r5, #5
 80050f2:	f44f 5100 	mov.w	r1, #8192	; 0x2000
 80050f6:	f2c4 0102 	movt	r1, #16386	; 0x4002
 80050fa:	680b      	ldr	r3, [r1, #0]
 80050fc:	f023 0307 	bic.w	r3, r3, #7
 8005100:	432b      	orrs	r3, r5
 8005102:	600b      	str	r3, [r1, #0]
 8005104:	6808      	ldr	r0, [r1, #0]
 8005106:	f000 0007 	and.w	r0, r0, #7
 800510a:	1b40      	subs	r0, r0, r5
 800510c:	bf18      	it	ne
 800510e:	2001      	movne	r0, #1
 8005110:	b003      	add	sp, #12
 8005112:	bd30      	pop	{r4, r5, pc}
 8005114:	2503      	movs	r5, #3
 8005116:	e7ec      	b.n	80050f2 <RCC_SetFlashLatencyFromMSIRange+0x2e>
 8005118:	6da3      	ldr	r3, [r4, #88]	; 0x58
 800511a:	f043 5380 	orr.w	r3, r3, #268435456	; 0x10000000
 800511e:	65a3      	str	r3, [r4, #88]	; 0x58
 8005120:	6da3      	ldr	r3, [r4, #88]	; 0x58
 8005122:	f003 5380 	and.w	r3, r3, #268435456	; 0x10000000
 8005126:	9301      	str	r3, [sp, #4]
 8005128:	9b01      	ldr	r3, [sp, #4]
 800512a:	f7ff ff73 	bl	8005014 <HAL_PWREx_GetVoltageRange>
 800512e:	6da3      	ldr	r3, [r4, #88]	; 0x58
 8005130:	f5b0 7f00 	cmp.w	r0, #512	; 0x200
 8005134:	f023 5380 	bic.w	r3, r3, #268435456	; 0x10000000
 8005138:	65a3      	str	r3, [r4, #88]	; 0x58
 800513a:	d1d2      	bne.n	80050e2 <RCC_SetFlashLatencyFromMSIRange+0x1e>
 800513c:	2d80      	cmp	r5, #128	; 0x80
 800513e:	d904      	bls.n	800514a <RCC_SetFlashLatencyFromMSIRange+0x86>
 8005140:	2da0      	cmp	r5, #160	; 0xa0
 8005142:	bf8c      	ite	hi
 8005144:	2502      	movhi	r5, #2
 8005146:	2501      	movls	r5, #1
 8005148:	e7d3      	b.n	80050f2 <RCC_SetFlashLatencyFromMSIRange+0x2e>
 800514a:	2500      	movs	r5, #0
 800514c:	e7d1      	b.n	80050f2 <RCC_SetFlashLatencyFromMSIRange+0x2e>
 800514e:	2502      	movs	r5, #2
 8005150:	e7cf      	b.n	80050f2 <RCC_SetFlashLatencyFromMSIRange+0x2e>
 8005152:	bf00      	nop

08005154 <HAL_RCC_GetSysClockFreq>:
 8005154:	f44f 5280 	mov.w	r2, #4096	; 0x1000
 8005158:	f2c4 0202 	movt	r2, #16386	; 0x4002
 800515c:	6893      	ldr	r3, [r2, #8]
 800515e:	68d2      	ldr	r2, [r2, #12]
 8005160:	f013 030c 	ands.w	r3, r3, #12
 8005164:	d00b      	beq.n	800517e <HAL_RCC_GetSysClockFreq+0x2a>
 8005166:	2b0c      	cmp	r3, #12
 8005168:	d04d      	beq.n	8005206 <HAL_RCC_GetSysClockFreq+0xb2>
 800516a:	2b04      	cmp	r3, #4
 800516c:	d046      	beq.n	80051fc <HAL_RCC_GetSysClockFreq+0xa8>
 800516e:	2b08      	cmp	r3, #8
 8005170:	f44f 5090 	mov.w	r0, #4608	; 0x1200
 8005174:	f2c0 007a 	movt	r0, #122	; 0x7a
 8005178:	bf18      	it	ne
 800517a:	2000      	movne	r0, #0
 800517c:	4770      	bx	lr
 800517e:	f44f 5280 	mov.w	r2, #4096	; 0x1000
 8005182:	f2c4 0202 	movt	r2, #16386	; 0x4002
 8005186:	6811      	ldr	r1, [r2, #0]
 8005188:	0709      	lsls	r1, r1, #28
 800518a:	bf54      	ite	pl
 800518c:	f8d2 1094 	ldrpl.w	r1, [r2, #148]	; 0x94
 8005190:	6811      	ldrmi	r1, [r2, #0]
 8005192:	f64f 52d4 	movw	r2, #64980	; 0xfdd4
 8005196:	bf54      	ite	pl
 8005198:	f3c1 2103 	ubfxpl	r1, r1, #8, #4
 800519c:	f3c1 1103 	ubfxmi	r1, r1, #4, #4
 80051a0:	f6c0 0200 	movt	r2, #2048	; 0x800
 80051a4:	f852 0021 	ldr.w	r0, [r2, r1, lsl #2]
 80051a8:	b363      	cbz	r3, 8005204 <HAL_RCC_GetSysClockFreq+0xb0>
 80051aa:	2b0c      	cmp	r3, #12
 80051ac:	d136      	bne.n	800521c <HAL_RCC_GetSysClockFreq+0xc8>
 80051ae:	f44f 5380 	mov.w	r3, #4096	; 0x1000
 80051b2:	f2c4 0302 	movt	r3, #16386	; 0x4002
 80051b6:	68db      	ldr	r3, [r3, #12]
 80051b8:	f003 0303 	and.w	r3, r3, #3
 80051bc:	2b02      	cmp	r3, #2
 80051be:	d028      	beq.n	8005212 <HAL_RCC_GetSysClockFreq+0xbe>
 80051c0:	f44f 5290 	mov.w	r2, #4608	; 0x1200
 80051c4:	f2c0 027a 	movt	r2, #122	; 0x7a
 80051c8:	2b03      	cmp	r3, #3
 80051ca:	bf08      	it	eq
 80051cc:	4610      	moveq	r0, r2
 80051ce:	f44f 5380 	mov.w	r3, #4096	; 0x1000
 80051d2:	f2c4 0302 	movt	r3, #16386	; 0x4002
 80051d6:	68d9      	ldr	r1, [r3, #12]
 80051d8:	68da      	ldr	r2, [r3, #12]
 80051da:	68db      	ldr	r3, [r3, #12]
 80051dc:	f3c3 6341 	ubfx	r3, r3, #25, #2
 80051e0:	f3c2 2206 	ubfx	r2, r2, #8, #7
 80051e4:	f3c1 1102 	ubfx	r1, r1, #4, #3
 80051e8:	3301      	adds	r3, #1
 80051ea:	3101      	adds	r1, #1
 80051ec:	fb00 f002 	mul.w	r0, r0, r2
 80051f0:	005b      	lsls	r3, r3, #1
 80051f2:	fbb0 f0f1 	udiv	r0, r0, r1
 80051f6:	fbb0 f0f3 	udiv	r0, r0, r3
 80051fa:	4770      	bx	lr
 80051fc:	f44f 5010 	mov.w	r0, #9216	; 0x2400
 8005200:	f2c0 00f4 	movt	r0, #244	; 0xf4
 8005204:	4770      	bx	lr
 8005206:	f002 0203 	and.w	r2, r2, #3
 800520a:	2a01      	cmp	r2, #1
 800520c:	d0b7      	beq.n	800517e <HAL_RCC_GetSysClockFreq+0x2a>
 800520e:	2000      	movs	r0, #0
 8005210:	e7cd      	b.n	80051ae <HAL_RCC_GetSysClockFreq+0x5a>
 8005212:	f44f 5010 	mov.w	r0, #9216	; 0x2400
 8005216:	f2c0 00f4 	movt	r0, #244	; 0xf4
 800521a:	e7d8      	b.n	80051ce <HAL_RCC_GetSysClockFreq+0x7a>
 800521c:	2000      	movs	r0, #0
 800521e:	4770      	bx	lr

08005220 <HAL_RCC_OscConfig>:
 8005220:	2800      	cmp	r0, #0
 8005222:	f000 82d6 	beq.w	80057d2 <HAL_RCC_OscConfig+0x5b2>
 8005226:	e92d 43f0 	stmdb	sp!, {r4, r5, r6, r7, r8, r9, lr}
 800522a:	f44f 5280 	mov.w	r2, #4096	; 0x1000
 800522e:	f2c4 0202 	movt	r2, #16386	; 0x4002
 8005232:	6803      	ldr	r3, [r0, #0]
 8005234:	6895      	ldr	r5, [r2, #8]
 8005236:	68d6      	ldr	r6, [r2, #12]
 8005238:	4604      	mov	r4, r0
 800523a:	06d8      	lsls	r0, r3, #27
 800523c:	b083      	sub	sp, #12
 800523e:	f005 050c 	and.w	r5, r5, #12
 8005242:	f006 0603 	and.w	r6, r6, #3
 8005246:	d532      	bpl.n	80052ae <HAL_RCC_OscConfig+0x8e>
 8005248:	2d00      	cmp	r5, #0
 800524a:	f000 8142 	beq.w	80054d2 <HAL_RCC_OscConfig+0x2b2>
 800524e:	2d0c      	cmp	r5, #12
 8005250:	f000 813c 	beq.w	80054cc <HAL_RCC_OscConfig+0x2ac>
 8005254:	69a3      	ldr	r3, [r4, #24]
 8005256:	2b00      	cmp	r3, #0
 8005258:	f000 81d7 	beq.w	800560a <HAL_RCC_OscConfig+0x3ea>
 800525c:	f44f 5380 	mov.w	r3, #4096	; 0x1000
 8005260:	f2c4 0302 	movt	r3, #16386	; 0x4002
 8005264:	461f      	mov	r7, r3
 8005266:	681a      	ldr	r2, [r3, #0]
 8005268:	f042 0201 	orr.w	r2, r2, #1
 800526c:	601a      	str	r2, [r3, #0]
 800526e:	f7fe fd3f 	bl	8003cf0 <HAL_GetTick>
 8005272:	4680      	mov	r8, r0
 8005274:	e006      	b.n	8005284 <HAL_RCC_OscConfig+0x64>
 8005276:	f7fe fd3b 	bl	8003cf0 <HAL_GetTick>
 800527a:	eba0 0008 	sub.w	r0, r0, r8
 800527e:	2802      	cmp	r0, #2
 8005280:	f200 81d8 	bhi.w	8005634 <HAL_RCC_OscConfig+0x414>
 8005284:	683b      	ldr	r3, [r7, #0]
 8005286:	079b      	lsls	r3, r3, #30
 8005288:	d5f5      	bpl.n	8005276 <HAL_RCC_OscConfig+0x56>
 800528a:	683b      	ldr	r3, [r7, #0]
 800528c:	f043 0308 	orr.w	r3, r3, #8
 8005290:	603b      	str	r3, [r7, #0]
 8005292:	683b      	ldr	r3, [r7, #0]
 8005294:	6a22      	ldr	r2, [r4, #32]
 8005296:	f023 03f0 	bic.w	r3, r3, #240	; 0xf0
 800529a:	4313      	orrs	r3, r2
 800529c:	603b      	str	r3, [r7, #0]
 800529e:	687b      	ldr	r3, [r7, #4]
 80052a0:	69e2      	ldr	r2, [r4, #28]
 80052a2:	f423 437f 	bic.w	r3, r3, #65280	; 0xff00
 80052a6:	ea43 2302 	orr.w	r3, r3, r2, lsl #8
 80052aa:	607b      	str	r3, [r7, #4]
 80052ac:	6823      	ldr	r3, [r4, #0]
 80052ae:	07d9      	lsls	r1, r3, #31
 80052b0:	f100 80de 	bmi.w	8005470 <HAL_RCC_OscConfig+0x250>
 80052b4:	0799      	lsls	r1, r3, #30
 80052b6:	d527      	bpl.n	8005308 <HAL_RCC_OscConfig+0xe8>
 80052b8:	2d04      	cmp	r5, #4
 80052ba:	f000 8190 	beq.w	80055de <HAL_RCC_OscConfig+0x3be>
 80052be:	2d0c      	cmp	r5, #12
 80052c0:	f000 818a 	beq.w	80055d8 <HAL_RCC_OscConfig+0x3b8>
 80052c4:	68e3      	ldr	r3, [r4, #12]
 80052c6:	2b00      	cmp	r3, #0
 80052c8:	f000 8215 	beq.w	80056f6 <HAL_RCC_OscConfig+0x4d6>
 80052cc:	f44f 5380 	mov.w	r3, #4096	; 0x1000
 80052d0:	f2c4 0302 	movt	r3, #16386	; 0x4002
 80052d4:	461f      	mov	r7, r3
 80052d6:	681a      	ldr	r2, [r3, #0]
 80052d8:	f442 7280 	orr.w	r2, r2, #256	; 0x100
 80052dc:	601a      	str	r2, [r3, #0]
 80052de:	f7fe fd07 	bl	8003cf0 <HAL_GetTick>
 80052e2:	4606      	mov	r6, r0
 80052e4:	e005      	b.n	80052f2 <HAL_RCC_OscConfig+0xd2>
 80052e6:	f7fe fd03 	bl	8003cf0 <HAL_GetTick>
 80052ea:	1b80      	subs	r0, r0, r6
 80052ec:	2802      	cmp	r0, #2
 80052ee:	f200 81a1 	bhi.w	8005634 <HAL_RCC_OscConfig+0x414>
 80052f2:	683b      	ldr	r3, [r7, #0]
 80052f4:	055b      	lsls	r3, r3, #21
 80052f6:	d5f6      	bpl.n	80052e6 <HAL_RCC_OscConfig+0xc6>
 80052f8:	687b      	ldr	r3, [r7, #4]
 80052fa:	6922      	ldr	r2, [r4, #16]
 80052fc:	f023 53f8 	bic.w	r3, r3, #520093696	; 0x1f000000
 8005300:	ea43 6302 	orr.w	r3, r3, r2, lsl #24
 8005304:	607b      	str	r3, [r7, #4]
 8005306:	6823      	ldr	r3, [r4, #0]
 8005308:	0719      	lsls	r1, r3, #28
 800530a:	d51d      	bpl.n	8005348 <HAL_RCC_OscConfig+0x128>
 800530c:	6963      	ldr	r3, [r4, #20]
 800530e:	2b00      	cmp	r3, #0
 8005310:	f000 8149 	beq.w	80055a6 <HAL_RCC_OscConfig+0x386>
 8005314:	f44f 5380 	mov.w	r3, #4096	; 0x1000
 8005318:	f2c4 0302 	movt	r3, #16386	; 0x4002
 800531c:	461f      	mov	r7, r3
 800531e:	f8d3 2094 	ldr.w	r2, [r3, #148]	; 0x94
 8005322:	f042 0201 	orr.w	r2, r2, #1
 8005326:	f8c3 2094 	str.w	r2, [r3, #148]	; 0x94
 800532a:	f7fe fce1 	bl	8003cf0 <HAL_GetTick>
 800532e:	4606      	mov	r6, r0
 8005330:	e005      	b.n	800533e <HAL_RCC_OscConfig+0x11e>
 8005332:	f7fe fcdd 	bl	8003cf0 <HAL_GetTick>
 8005336:	1b80      	subs	r0, r0, r6
 8005338:	2802      	cmp	r0, #2
 800533a:	f200 817b 	bhi.w	8005634 <HAL_RCC_OscConfig+0x414>
 800533e:	f8d7 3094 	ldr.w	r3, [r7, #148]	; 0x94
 8005342:	079a      	lsls	r2, r3, #30
 8005344:	d5f5      	bpl.n	8005332 <HAL_RCC_OscConfig+0x112>
 8005346:	6823      	ldr	r3, [r4, #0]
 8005348:	075e      	lsls	r6, r3, #29
 800534a:	d548      	bpl.n	80053de <HAL_RCC_OscConfig+0x1be>
 800534c:	f44f 5380 	mov.w	r3, #4096	; 0x1000
 8005350:	f2c4 0302 	movt	r3, #16386	; 0x4002
 8005354:	6d9a      	ldr	r2, [r3, #88]	; 0x58
 8005356:	00d0      	lsls	r0, r2, #3
 8005358:	f100 81cb 	bmi.w	80056f2 <HAL_RCC_OscConfig+0x4d2>
 800535c:	6d9a      	ldr	r2, [r3, #88]	; 0x58
 800535e:	f042 5280 	orr.w	r2, r2, #268435456	; 0x10000000
 8005362:	659a      	str	r2, [r3, #88]	; 0x58
 8005364:	6d9b      	ldr	r3, [r3, #88]	; 0x58
 8005366:	f003 5380 	and.w	r3, r3, #268435456	; 0x10000000
 800536a:	9301      	str	r3, [sp, #4]
 800536c:	9b01      	ldr	r3, [sp, #4]
 800536e:	2601      	movs	r6, #1
 8005370:	f44f 47e0 	mov.w	r7, #28672	; 0x7000
 8005374:	f2c4 0700 	movt	r7, #16384	; 0x4000
 8005378:	683b      	ldr	r3, [r7, #0]
 800537a:	05d9      	lsls	r1, r3, #23
 800537c:	f140 822b 	bpl.w	80057d6 <HAL_RCC_OscConfig+0x5b6>
 8005380:	68a3      	ldr	r3, [r4, #8]
 8005382:	2b01      	cmp	r3, #1
 8005384:	f000 81ce 	beq.w	8005724 <HAL_RCC_OscConfig+0x504>
 8005388:	2b05      	cmp	r3, #5
 800538a:	f000 8252 	beq.w	8005832 <HAL_RCC_OscConfig+0x612>
 800538e:	f44f 5780 	mov.w	r7, #4096	; 0x1000
 8005392:	f2c4 0702 	movt	r7, #16386	; 0x4002
 8005396:	f8d7 2090 	ldr.w	r2, [r7, #144]	; 0x90
 800539a:	f022 0201 	bic.w	r2, r2, #1
 800539e:	f8c7 2090 	str.w	r2, [r7, #144]	; 0x90
 80053a2:	f8d7 2090 	ldr.w	r2, [r7, #144]	; 0x90
 80053a6:	f022 0204 	bic.w	r2, r2, #4
 80053aa:	f8c7 2090 	str.w	r2, [r7, #144]	; 0x90
 80053ae:	2b00      	cmp	r3, #0
 80053b0:	f040 81c2 	bne.w	8005738 <HAL_RCC_OscConfig+0x518>
 80053b4:	f7fe fc9c 	bl	8003cf0 <HAL_GetTick>
 80053b8:	f241 3988 	movw	r9, #5000	; 0x1388
 80053bc:	4680      	mov	r8, r0
 80053be:	e006      	b.n	80053ce <HAL_RCC_OscConfig+0x1ae>
 80053c0:	f7fe fc96 	bl	8003cf0 <HAL_GetTick>
 80053c4:	eba0 0008 	sub.w	r0, r0, r8
 80053c8:	4548      	cmp	r0, r9
 80053ca:	f200 8133 	bhi.w	8005634 <HAL_RCC_OscConfig+0x414>
 80053ce:	f8d7 3090 	ldr.w	r3, [r7, #144]	; 0x90
 80053d2:	0798      	lsls	r0, r3, #30
 80053d4:	d4f4      	bmi.n	80053c0 <HAL_RCC_OscConfig+0x1a0>
 80053d6:	2e00      	cmp	r6, #0
 80053d8:	f040 820f 	bne.w	80057fa <HAL_RCC_OscConfig+0x5da>
 80053dc:	6823      	ldr	r3, [r4, #0]
 80053de:	0699      	lsls	r1, r3, #26
 80053e0:	d51c      	bpl.n	800541c <HAL_RCC_OscConfig+0x1fc>
 80053e2:	6a63      	ldr	r3, [r4, #36]	; 0x24
 80053e4:	2b00      	cmp	r3, #0
 80053e6:	f000 81da 	beq.w	800579e <HAL_RCC_OscConfig+0x57e>
 80053ea:	f44f 5380 	mov.w	r3, #4096	; 0x1000
 80053ee:	f2c4 0302 	movt	r3, #16386	; 0x4002
 80053f2:	461f      	mov	r7, r3
 80053f4:	f8d3 2098 	ldr.w	r2, [r3, #152]	; 0x98
 80053f8:	f042 0201 	orr.w	r2, r2, #1
 80053fc:	f8c3 2098 	str.w	r2, [r3, #152]	; 0x98
 8005400:	f7fe fc76 	bl	8003cf0 <HAL_GetTick>
 8005404:	4606      	mov	r6, r0
 8005406:	e005      	b.n	8005414 <HAL_RCC_OscConfig+0x1f4>
 8005408:	f7fe fc72 	bl	8003cf0 <HAL_GetTick>
 800540c:	1b80      	subs	r0, r0, r6
 800540e:	2802      	cmp	r0, #2
 8005410:	f200 8110 	bhi.w	8005634 <HAL_RCC_OscConfig+0x414>
 8005414:	f8d7 3098 	ldr.w	r3, [r7, #152]	; 0x98
 8005418:	079a      	lsls	r2, r3, #30
 800541a:	d5f5      	bpl.n	8005408 <HAL_RCC_OscConfig+0x1e8>
 800541c:	6aa3      	ldr	r3, [r4, #40]	; 0x28
 800541e:	2b00      	cmp	r3, #0
 8005420:	f000 8165 	beq.w	80056ee <HAL_RCC_OscConfig+0x4ce>
 8005424:	2b02      	cmp	r3, #2
 8005426:	f000 8215 	beq.w	8005854 <HAL_RCC_OscConfig+0x634>
 800542a:	2d0c      	cmp	r5, #12
 800542c:	f000 80a7 	beq.w	800557e <HAL_RCC_OscConfig+0x35e>
 8005430:	f44f 5380 	mov.w	r3, #4096	; 0x1000
 8005434:	f2c4 0302 	movt	r3, #16386	; 0x4002
 8005438:	461d      	mov	r5, r3
 800543a:	681a      	ldr	r2, [r3, #0]
 800543c:	f022 7280 	bic.w	r2, r2, #16777216	; 0x1000000
 8005440:	601a      	str	r2, [r3, #0]
 8005442:	f7fe fc55 	bl	8003cf0 <HAL_GetTick>
 8005446:	4604      	mov	r4, r0
 8005448:	e005      	b.n	8005456 <HAL_RCC_OscConfig+0x236>
 800544a:	f7fe fc51 	bl	8003cf0 <HAL_GetTick>
 800544e:	1b00      	subs	r0, r0, r4
 8005450:	2802      	cmp	r0, #2
 8005452:	f200 80ef 	bhi.w	8005634 <HAL_RCC_OscConfig+0x414>
 8005456:	682b      	ldr	r3, [r5, #0]
 8005458:	f013 7300 	ands.w	r3, r3, #33554432	; 0x2000000
 800545c:	d1f5      	bne.n	800544a <HAL_RCC_OscConfig+0x22a>
 800545e:	68e9      	ldr	r1, [r5, #12]
 8005460:	f64f 72fc 	movw	r2, #65532	; 0xfffc
 8005464:	f6cf 62ee 	movt	r2, #65262	; 0xfeee
 8005468:	400a      	ands	r2, r1
 800546a:	4618      	mov	r0, r3
 800546c:	60ea      	str	r2, [r5, #12]
 800546e:	e087      	b.n	8005580 <HAL_RCC_OscConfig+0x360>
 8005470:	2d08      	cmp	r5, #8
 8005472:	f000 808b 	beq.w	800558c <HAL_RCC_OscConfig+0x36c>
 8005476:	2d0c      	cmp	r5, #12
 8005478:	f000 8085 	beq.w	8005586 <HAL_RCC_OscConfig+0x366>
 800547c:	6863      	ldr	r3, [r4, #4]
 800547e:	f5b3 3f80 	cmp.w	r3, #65536	; 0x10000
 8005482:	f000 80db 	beq.w	800563c <HAL_RCC_OscConfig+0x41c>
 8005486:	f5b3 2fa0 	cmp.w	r3, #327680	; 0x50000
 800548a:	f000 81c5 	beq.w	8005818 <HAL_RCC_OscConfig+0x5f8>
 800548e:	f44f 5780 	mov.w	r7, #4096	; 0x1000
 8005492:	f2c4 0702 	movt	r7, #16386	; 0x4002
 8005496:	683a      	ldr	r2, [r7, #0]
 8005498:	f422 3280 	bic.w	r2, r2, #65536	; 0x10000
 800549c:	603a      	str	r2, [r7, #0]
 800549e:	683a      	ldr	r2, [r7, #0]
 80054a0:	f422 2280 	bic.w	r2, r2, #262144	; 0x40000
 80054a4:	603a      	str	r2, [r7, #0]
 80054a6:	2b00      	cmp	r3, #0
 80054a8:	f040 80d0 	bne.w	800564c <HAL_RCC_OscConfig+0x42c>
 80054ac:	f7fe fc20 	bl	8003cf0 <HAL_GetTick>
 80054b0:	4680      	mov	r8, r0
 80054b2:	e006      	b.n	80054c2 <HAL_RCC_OscConfig+0x2a2>
 80054b4:	f7fe fc1c 	bl	8003cf0 <HAL_GetTick>
 80054b8:	eba0 0008 	sub.w	r0, r0, r8
 80054bc:	2864      	cmp	r0, #100	; 0x64
 80054be:	f200 80b9 	bhi.w	8005634 <HAL_RCC_OscConfig+0x414>
 80054c2:	683b      	ldr	r3, [r7, #0]
 80054c4:	0398      	lsls	r0, r3, #14
 80054c6:	d4f5      	bmi.n	80054b4 <HAL_RCC_OscConfig+0x294>
 80054c8:	6823      	ldr	r3, [r4, #0]
 80054ca:	e6f3      	b.n	80052b4 <HAL_RCC_OscConfig+0x94>
 80054cc:	2e01      	cmp	r6, #1
 80054ce:	f47f aec1 	bne.w	8005254 <HAL_RCC_OscConfig+0x34>
 80054d2:	f44f 5380 	mov.w	r3, #4096	; 0x1000
 80054d6:	f2c4 0302 	movt	r3, #16386	; 0x4002
 80054da:	681b      	ldr	r3, [r3, #0]
 80054dc:	0799      	lsls	r1, r3, #30
 80054de:	d44b      	bmi.n	8005578 <HAL_RCC_OscConfig+0x358>
 80054e0:	f44f 5380 	mov.w	r3, #4096	; 0x1000
 80054e4:	f2c4 0302 	movt	r3, #16386	; 0x4002
 80054e8:	6a20      	ldr	r0, [r4, #32]
 80054ea:	681a      	ldr	r2, [r3, #0]
 80054ec:	0712      	lsls	r2, r2, #28
 80054ee:	bf56      	itet	pl
 80054f0:	f8d3 3094 	ldrpl.w	r3, [r3, #148]	; 0x94
 80054f4:	681b      	ldrmi	r3, [r3, #0]
 80054f6:	091b      	lsrpl	r3, r3, #4
 80054f8:	f003 03f0 	and.w	r3, r3, #240	; 0xf0
 80054fc:	4298      	cmp	r0, r3
 80054fe:	f200 8133 	bhi.w	8005768 <HAL_RCC_OscConfig+0x548>
 8005502:	f44f 5380 	mov.w	r3, #4096	; 0x1000
 8005506:	f2c4 0302 	movt	r3, #16386	; 0x4002
 800550a:	681a      	ldr	r2, [r3, #0]
 800550c:	f042 0208 	orr.w	r2, r2, #8
 8005510:	601a      	str	r2, [r3, #0]
 8005512:	681a      	ldr	r2, [r3, #0]
 8005514:	f022 02f0 	bic.w	r2, r2, #240	; 0xf0
 8005518:	4302      	orrs	r2, r0
 800551a:	601a      	str	r2, [r3, #0]
 800551c:	685a      	ldr	r2, [r3, #4]
 800551e:	69e1      	ldr	r1, [r4, #28]
 8005520:	f422 427f 	bic.w	r2, r2, #65280	; 0xff00
 8005524:	ea42 2201 	orr.w	r2, r2, r1, lsl #8
 8005528:	605a      	str	r2, [r3, #4]
 800552a:	2d00      	cmp	r5, #0
 800552c:	f000 816e 	beq.w	800580c <HAL_RCC_OscConfig+0x5ec>
 8005530:	f7ff fe10 	bl	8005154 <HAL_RCC_GetSysClockFreq>
 8005534:	f44f 5380 	mov.w	r3, #4096	; 0x1000
 8005538:	f2c4 0302 	movt	r3, #16386	; 0x4002
 800553c:	f64f 52bc 	movw	r2, #64956	; 0xfdbc
 8005540:	689b      	ldr	r3, [r3, #8]
 8005542:	f6c0 0200 	movt	r2, #2048	; 0x800
 8005546:	f3c3 1303 	ubfx	r3, r3, #4, #4
 800554a:	f240 0118 	movw	r1, #24
 800554e:	5cd2      	ldrb	r2, [r2, r3]
 8005550:	f2c2 0100 	movt	r1, #8192	; 0x2000
 8005554:	f240 0310 	movw	r3, #16
 8005558:	f002 021f 	and.w	r2, r2, #31
 800555c:	f2c2 0300 	movt	r3, #8192	; 0x2000
 8005560:	fa20 f202 	lsr.w	r2, r0, r2
 8005564:	6808      	ldr	r0, [r1, #0]
 8005566:	601a      	str	r2, [r3, #0]
 8005568:	f7fe fa96 	bl	8003a98 <HAL_InitTick>
 800556c:	b940      	cbnz	r0, 8005580 <HAL_RCC_OscConfig+0x360>
 800556e:	6823      	ldr	r3, [r4, #0]
 8005570:	07d9      	lsls	r1, r3, #31
 8005572:	f57f ae9f 	bpl.w	80052b4 <HAL_RCC_OscConfig+0x94>
 8005576:	e77b      	b.n	8005470 <HAL_RCC_OscConfig+0x250>
 8005578:	69a3      	ldr	r3, [r4, #24]
 800557a:	2b00      	cmp	r3, #0
 800557c:	d1b0      	bne.n	80054e0 <HAL_RCC_OscConfig+0x2c0>
 800557e:	2001      	movs	r0, #1
 8005580:	b003      	add	sp, #12
 8005582:	e8bd 83f0 	ldmia.w	sp!, {r4, r5, r6, r7, r8, r9, pc}
 8005586:	2e03      	cmp	r6, #3
 8005588:	f47f af78 	bne.w	800547c <HAL_RCC_OscConfig+0x25c>
 800558c:	f44f 5280 	mov.w	r2, #4096	; 0x1000
 8005590:	f2c4 0202 	movt	r2, #16386	; 0x4002
 8005594:	6812      	ldr	r2, [r2, #0]
 8005596:	0392      	lsls	r2, r2, #14
 8005598:	f57f ae8c 	bpl.w	80052b4 <HAL_RCC_OscConfig+0x94>
 800559c:	6862      	ldr	r2, [r4, #4]
 800559e:	2a00      	cmp	r2, #0
 80055a0:	f47f ae88 	bne.w	80052b4 <HAL_RCC_OscConfig+0x94>
 80055a4:	e7eb      	b.n	800557e <HAL_RCC_OscConfig+0x35e>
 80055a6:	f44f 5380 	mov.w	r3, #4096	; 0x1000
 80055aa:	f2c4 0302 	movt	r3, #16386	; 0x4002
 80055ae:	461f      	mov	r7, r3
 80055b0:	f8d3 2094 	ldr.w	r2, [r3, #148]	; 0x94
 80055b4:	f022 0201 	bic.w	r2, r2, #1
 80055b8:	f8c3 2094 	str.w	r2, [r3, #148]	; 0x94
 80055bc:	f7fe fb98 	bl	8003cf0 <HAL_GetTick>
 80055c0:	4606      	mov	r6, r0
 80055c2:	e004      	b.n	80055ce <HAL_RCC_OscConfig+0x3ae>
 80055c4:	f7fe fb94 	bl	8003cf0 <HAL_GetTick>
 80055c8:	1b80      	subs	r0, r0, r6
 80055ca:	2802      	cmp	r0, #2
 80055cc:	d832      	bhi.n	8005634 <HAL_RCC_OscConfig+0x414>
 80055ce:	f8d7 3094 	ldr.w	r3, [r7, #148]	; 0x94
 80055d2:	079b      	lsls	r3, r3, #30
 80055d4:	d4f6      	bmi.n	80055c4 <HAL_RCC_OscConfig+0x3a4>
 80055d6:	e6b6      	b.n	8005346 <HAL_RCC_OscConfig+0x126>
 80055d8:	2e02      	cmp	r6, #2
 80055da:	f47f ae73 	bne.w	80052c4 <HAL_RCC_OscConfig+0xa4>
 80055de:	f44f 5280 	mov.w	r2, #4096	; 0x1000
 80055e2:	f2c4 0202 	movt	r2, #16386	; 0x4002
 80055e6:	6812      	ldr	r2, [r2, #0]
 80055e8:	0552      	lsls	r2, r2, #21
 80055ea:	d502      	bpl.n	80055f2 <HAL_RCC_OscConfig+0x3d2>
 80055ec:	68e2      	ldr	r2, [r4, #12]
 80055ee:	2a00      	cmp	r2, #0
 80055f0:	d0c5      	beq.n	800557e <HAL_RCC_OscConfig+0x35e>
 80055f2:	f44f 5180 	mov.w	r1, #4096	; 0x1000
 80055f6:	f2c4 0102 	movt	r1, #16386	; 0x4002
 80055fa:	6920      	ldr	r0, [r4, #16]
 80055fc:	684a      	ldr	r2, [r1, #4]
 80055fe:	f022 52f8 	bic.w	r2, r2, #520093696	; 0x1f000000
 8005602:	ea42 6200 	orr.w	r2, r2, r0, lsl #24
 8005606:	604a      	str	r2, [r1, #4]
 8005608:	e67e      	b.n	8005308 <HAL_RCC_OscConfig+0xe8>
 800560a:	f44f 5380 	mov.w	r3, #4096	; 0x1000
 800560e:	f2c4 0302 	movt	r3, #16386	; 0x4002
 8005612:	4698      	mov	r8, r3
 8005614:	681a      	ldr	r2, [r3, #0]
 8005616:	f022 0201 	bic.w	r2, r2, #1
 800561a:	601a      	str	r2, [r3, #0]
 800561c:	f7fe fb68 	bl	8003cf0 <HAL_GetTick>
 8005620:	4607      	mov	r7, r0
 8005622:	f8d8 3000 	ldr.w	r3, [r8]
 8005626:	0798      	lsls	r0, r3, #30
 8005628:	d5a1      	bpl.n	800556e <HAL_RCC_OscConfig+0x34e>
 800562a:	f7fe fb61 	bl	8003cf0 <HAL_GetTick>
 800562e:	1bc0      	subs	r0, r0, r7
 8005630:	2802      	cmp	r0, #2
 8005632:	d9f6      	bls.n	8005622 <HAL_RCC_OscConfig+0x402>
 8005634:	2003      	movs	r0, #3
 8005636:	b003      	add	sp, #12
 8005638:	e8bd 83f0 	ldmia.w	sp!, {r4, r5, r6, r7, r8, r9, pc}
 800563c:	f44f 5380 	mov.w	r3, #4096	; 0x1000
 8005640:	f2c4 0302 	movt	r3, #16386	; 0x4002
 8005644:	681a      	ldr	r2, [r3, #0]
 8005646:	f442 3280 	orr.w	r2, r2, #65536	; 0x10000
 800564a:	601a      	str	r2, [r3, #0]
 800564c:	f7fe fb50 	bl	8003cf0 <HAL_GetTick>
 8005650:	f44f 5880 	mov.w	r8, #4096	; 0x1000
 8005654:	4607      	mov	r7, r0
 8005656:	f2c4 0802 	movt	r8, #16386	; 0x4002
 800565a:	e004      	b.n	8005666 <HAL_RCC_OscConfig+0x446>
 800565c:	f7fe fb48 	bl	8003cf0 <HAL_GetTick>
 8005660:	1bc0      	subs	r0, r0, r7
 8005662:	2864      	cmp	r0, #100	; 0x64
 8005664:	d8e6      	bhi.n	8005634 <HAL_RCC_OscConfig+0x414>
 8005666:	f8d8 3000 	ldr.w	r3, [r8]
 800566a:	039b      	lsls	r3, r3, #14
 800566c:	d5f6      	bpl.n	800565c <HAL_RCC_OscConfig+0x43c>
 800566e:	e72b      	b.n	80054c8 <HAL_RCC_OscConfig+0x2a8>
 8005670:	6b21      	ldr	r1, [r4, #48]	; 0x30
 8005672:	f003 0270 	and.w	r2, r3, #112	; 0x70
 8005676:	3901      	subs	r1, #1
 8005678:	ebb2 1f01 	cmp.w	r2, r1, lsl #4
 800567c:	f040 80f5 	bne.w	800586a <HAL_RCC_OscConfig+0x64a>
 8005680:	6b61      	ldr	r1, [r4, #52]	; 0x34
 8005682:	f403 42fe 	and.w	r2, r3, #32512	; 0x7f00
 8005686:	ebb2 2f01 	cmp.w	r2, r1, lsl #8
 800568a:	f040 80ee 	bne.w	800586a <HAL_RCC_OscConfig+0x64a>
 800568e:	6ba1      	ldr	r1, [r4, #56]	; 0x38
 8005690:	f003 4278 	and.w	r2, r3, #4160749568	; 0xf8000000
 8005694:	ebb2 6fc1 	cmp.w	r2, r1, lsl #27
 8005698:	f040 80e7 	bne.w	800586a <HAL_RCC_OscConfig+0x64a>
 800569c:	6be2      	ldr	r2, [r4, #60]	; 0x3c
 800569e:	0852      	lsrs	r2, r2, #1
 80056a0:	3a01      	subs	r2, #1
 80056a2:	f403 01c0 	and.w	r1, r3, #6291456	; 0x600000
 80056a6:	ebb1 5f42 	cmp.w	r1, r2, lsl #21
 80056aa:	f040 80de 	bne.w	800586a <HAL_RCC_OscConfig+0x64a>
 80056ae:	6c22      	ldr	r2, [r4, #64]	; 0x40
 80056b0:	0852      	lsrs	r2, r2, #1
 80056b2:	f003 63c0 	and.w	r3, r3, #100663296	; 0x6000000
 80056b6:	3a01      	subs	r2, #1
 80056b8:	ebb3 6f42 	cmp.w	r3, r2, lsl #25
 80056bc:	f040 80d5 	bne.w	800586a <HAL_RCC_OscConfig+0x64a>
 80056c0:	6833      	ldr	r3, [r6, #0]
 80056c2:	019a      	lsls	r2, r3, #6
 80056c4:	d413      	bmi.n	80056ee <HAL_RCC_OscConfig+0x4ce>
 80056c6:	6833      	ldr	r3, [r6, #0]
 80056c8:	f043 7380 	orr.w	r3, r3, #16777216	; 0x1000000
 80056cc:	6033      	str	r3, [r6, #0]
 80056ce:	68f3      	ldr	r3, [r6, #12]
 80056d0:	f043 7380 	orr.w	r3, r3, #16777216	; 0x1000000
 80056d4:	60f3      	str	r3, [r6, #12]
 80056d6:	f7fe fb0b 	bl	8003cf0 <HAL_GetTick>
 80056da:	4604      	mov	r4, r0
 80056dc:	e004      	b.n	80056e8 <HAL_RCC_OscConfig+0x4c8>
 80056de:	f7fe fb07 	bl	8003cf0 <HAL_GetTick>
 80056e2:	1b00      	subs	r0, r0, r4
 80056e4:	2802      	cmp	r0, #2
 80056e6:	d8a5      	bhi.n	8005634 <HAL_RCC_OscConfig+0x414>
 80056e8:	6833      	ldr	r3, [r6, #0]
 80056ea:	019b      	lsls	r3, r3, #6
 80056ec:	d5f7      	bpl.n	80056de <HAL_RCC_OscConfig+0x4be>
 80056ee:	2000      	movs	r0, #0
 80056f0:	e746      	b.n	8005580 <HAL_RCC_OscConfig+0x360>
 80056f2:	2600      	movs	r6, #0
 80056f4:	e63c      	b.n	8005370 <HAL_RCC_OscConfig+0x150>
 80056f6:	f44f 5380 	mov.w	r3, #4096	; 0x1000
 80056fa:	f2c4 0302 	movt	r3, #16386	; 0x4002
 80056fe:	461f      	mov	r7, r3
 8005700:	681a      	ldr	r2, [r3, #0]
 8005702:	f422 7280 	bic.w	r2, r2, #256	; 0x100
 8005706:	601a      	str	r2, [r3, #0]
 8005708:	f7fe faf2 	bl	8003cf0 <HAL_GetTick>
 800570c:	4606      	mov	r6, r0
 800570e:	e004      	b.n	800571a <HAL_RCC_OscConfig+0x4fa>
 8005710:	f7fe faee 	bl	8003cf0 <HAL_GetTick>
 8005714:	1b80      	subs	r0, r0, r6
 8005716:	2802      	cmp	r0, #2
 8005718:	d88c      	bhi.n	8005634 <HAL_RCC_OscConfig+0x414>
 800571a:	683b      	ldr	r3, [r7, #0]
 800571c:	0558      	lsls	r0, r3, #21
 800571e:	d4f7      	bmi.n	8005710 <HAL_RCC_OscConfig+0x4f0>
 8005720:	6823      	ldr	r3, [r4, #0]
 8005722:	e5f1      	b.n	8005308 <HAL_RCC_OscConfig+0xe8>
 8005724:	f44f 5380 	mov.w	r3, #4096	; 0x1000
 8005728:	f2c4 0302 	movt	r3, #16386	; 0x4002
 800572c:	f8d3 2090 	ldr.w	r2, [r3, #144]	; 0x90
 8005730:	f042 0201 	orr.w	r2, r2, #1
 8005734:	f8c3 2090 	str.w	r2, [r3, #144]	; 0x90
 8005738:	f7fe fada 	bl	8003cf0 <HAL_GetTick>
 800573c:	f44f 5880 	mov.w	r8, #4096	; 0x1000
 8005740:	4607      	mov	r7, r0
 8005742:	f2c4 0802 	movt	r8, #16386	; 0x4002
 8005746:	f241 3988 	movw	r9, #5000	; 0x1388
 800574a:	e005      	b.n	8005758 <HAL_RCC_OscConfig+0x538>
 800574c:	f7fe fad0 	bl	8003cf0 <HAL_GetTick>
 8005750:	1bc0      	subs	r0, r0, r7
 8005752:	4548      	cmp	r0, r9
 8005754:	f63f af6e 	bhi.w	8005634 <HAL_RCC_OscConfig+0x414>
 8005758:	f8d8 3090 	ldr.w	r3, [r8, #144]	; 0x90
 800575c:	079b      	lsls	r3, r3, #30
 800575e:	d5f5      	bpl.n	800574c <HAL_RCC_OscConfig+0x52c>
 8005760:	2e00      	cmp	r6, #0
 8005762:	f43f ae3b 	beq.w	80053dc <HAL_RCC_OscConfig+0x1bc>
 8005766:	e048      	b.n	80057fa <HAL_RCC_OscConfig+0x5da>
 8005768:	f7ff fcac 	bl	80050c4 <RCC_SetFlashLatencyFromMSIRange>
 800576c:	2800      	cmp	r0, #0
 800576e:	f47f af06 	bne.w	800557e <HAL_RCC_OscConfig+0x35e>
 8005772:	f44f 5380 	mov.w	r3, #4096	; 0x1000
 8005776:	f2c4 0302 	movt	r3, #16386	; 0x4002
 800577a:	681a      	ldr	r2, [r3, #0]
 800577c:	f042 0208 	orr.w	r2, r2, #8
 8005780:	601a      	str	r2, [r3, #0]
 8005782:	681a      	ldr	r2, [r3, #0]
 8005784:	6a21      	ldr	r1, [r4, #32]
 8005786:	f022 02f0 	bic.w	r2, r2, #240	; 0xf0
 800578a:	430a      	orrs	r2, r1
 800578c:	601a      	str	r2, [r3, #0]
 800578e:	685a      	ldr	r2, [r3, #4]
 8005790:	69e1      	ldr	r1, [r4, #28]
 8005792:	f422 427f 	bic.w	r2, r2, #65280	; 0xff00
 8005796:	ea42 2201 	orr.w	r2, r2, r1, lsl #8
 800579a:	605a      	str	r2, [r3, #4]
 800579c:	e6c8      	b.n	8005530 <HAL_RCC_OscConfig+0x310>
 800579e:	f44f 5380 	mov.w	r3, #4096	; 0x1000
 80057a2:	f2c4 0302 	movt	r3, #16386	; 0x4002
 80057a6:	461f      	mov	r7, r3
 80057a8:	f8d3 2098 	ldr.w	r2, [r3, #152]	; 0x98
 80057ac:	f022 0201 	bic.w	r2, r2, #1
 80057b0:	f8c3 2098 	str.w	r2, [r3, #152]	; 0x98
 80057b4:	f7fe fa9c 	bl	8003cf0 <HAL_GetTick>
 80057b8:	4606      	mov	r6, r0
 80057ba:	e005      	b.n	80057c8 <HAL_RCC_OscConfig+0x5a8>
 80057bc:	f7fe fa98 	bl	8003cf0 <HAL_GetTick>
 80057c0:	1b80      	subs	r0, r0, r6
 80057c2:	2802      	cmp	r0, #2
 80057c4:	f63f af36 	bhi.w	8005634 <HAL_RCC_OscConfig+0x414>
 80057c8:	f8d7 3098 	ldr.w	r3, [r7, #152]	; 0x98
 80057cc:	079b      	lsls	r3, r3, #30
 80057ce:	d4f5      	bmi.n	80057bc <HAL_RCC_OscConfig+0x59c>
 80057d0:	e624      	b.n	800541c <HAL_RCC_OscConfig+0x1fc>
 80057d2:	2001      	movs	r0, #1
 80057d4:	4770      	bx	lr
 80057d6:	683b      	ldr	r3, [r7, #0]
 80057d8:	f443 7380 	orr.w	r3, r3, #256	; 0x100
 80057dc:	603b      	str	r3, [r7, #0]
 80057de:	f7fe fa87 	bl	8003cf0 <HAL_GetTick>
 80057e2:	4680      	mov	r8, r0
 80057e4:	683b      	ldr	r3, [r7, #0]
 80057e6:	05da      	lsls	r2, r3, #23
 80057e8:	f53f adca 	bmi.w	8005380 <HAL_RCC_OscConfig+0x160>
 80057ec:	f7fe fa80 	bl	8003cf0 <HAL_GetTick>
 80057f0:	eba0 0008 	sub.w	r0, r0, r8
 80057f4:	2802      	cmp	r0, #2
 80057f6:	d9f5      	bls.n	80057e4 <HAL_RCC_OscConfig+0x5c4>
 80057f8:	e71c      	b.n	8005634 <HAL_RCC_OscConfig+0x414>
 80057fa:	f44f 5380 	mov.w	r3, #4096	; 0x1000
 80057fe:	f2c4 0302 	movt	r3, #16386	; 0x4002
 8005802:	6d9a      	ldr	r2, [r3, #88]	; 0x58
 8005804:	f022 5280 	bic.w	r2, r2, #268435456	; 0x10000000
 8005808:	659a      	str	r2, [r3, #88]	; 0x58
 800580a:	e5e7      	b.n	80053dc <HAL_RCC_OscConfig+0x1bc>
 800580c:	f7ff fc5a 	bl	80050c4 <RCC_SetFlashLatencyFromMSIRange>
 8005810:	2800      	cmp	r0, #0
 8005812:	f43f ae8d 	beq.w	8005530 <HAL_RCC_OscConfig+0x310>
 8005816:	e6b2      	b.n	800557e <HAL_RCC_OscConfig+0x35e>
 8005818:	f44f 5380 	mov.w	r3, #4096	; 0x1000
 800581c:	f2c4 0302 	movt	r3, #16386	; 0x4002
 8005820:	681a      	ldr	r2, [r3, #0]
 8005822:	f442 2280 	orr.w	r2, r2, #262144	; 0x40000
 8005826:	601a      	str	r2, [r3, #0]
 8005828:	681a      	ldr	r2, [r3, #0]
 800582a:	f442 3280 	orr.w	r2, r2, #65536	; 0x10000
 800582e:	601a      	str	r2, [r3, #0]
 8005830:	e70c      	b.n	800564c <HAL_RCC_OscConfig+0x42c>
 8005832:	f44f 5380 	mov.w	r3, #4096	; 0x1000
 8005836:	f2c4 0302 	movt	r3, #16386	; 0x4002
 800583a:	f8d3 2090 	ldr.w	r2, [r3, #144]	; 0x90
 800583e:	f042 0204 	orr.w	r2, r2, #4
 8005842:	f8c3 2090 	str.w	r2, [r3, #144]	; 0x90
 8005846:	f8d3 2090 	ldr.w	r2, [r3, #144]	; 0x90
 800584a:	f042 0201 	orr.w	r2, r2, #1
 800584e:	f8c3 2090 	str.w	r2, [r3, #144]	; 0x90
 8005852:	e771      	b.n	8005738 <HAL_RCC_OscConfig+0x518>
 8005854:	f44f 5680 	mov.w	r6, #4096	; 0x1000
 8005858:	f2c4 0602 	movt	r6, #16386	; 0x4002
 800585c:	6ae2      	ldr	r2, [r4, #44]	; 0x2c
 800585e:	68f3      	ldr	r3, [r6, #12]
 8005860:	f003 0103 	and.w	r1, r3, #3
 8005864:	4291      	cmp	r1, r2
 8005866:	f43f af03 	beq.w	8005670 <HAL_RCC_OscConfig+0x450>
 800586a:	2d0c      	cmp	r5, #12
 800586c:	f43f ae87 	beq.w	800557e <HAL_RCC_OscConfig+0x35e>
 8005870:	f44f 5580 	mov.w	r5, #4096	; 0x1000
 8005874:	f2c4 0502 	movt	r5, #16386	; 0x4002
 8005878:	682b      	ldr	r3, [r5, #0]
 800587a:	015e      	lsls	r6, r3, #5
 800587c:	f53f ae7f 	bmi.w	800557e <HAL_RCC_OscConfig+0x35e>
 8005880:	682b      	ldr	r3, [r5, #0]
 8005882:	f023 7380 	bic.w	r3, r3, #16777216	; 0x1000000
 8005886:	602b      	str	r3, [r5, #0]
 8005888:	f7fe fa32 	bl	8003cf0 <HAL_GetTick>
 800588c:	4606      	mov	r6, r0
 800588e:	e005      	b.n	800589c <HAL_RCC_OscConfig+0x67c>
 8005890:	f7fe fa2e 	bl	8003cf0 <HAL_GetTick>
 8005894:	1b80      	subs	r0, r0, r6
 8005896:	2802      	cmp	r0, #2
 8005898:	f63f aecc 	bhi.w	8005634 <HAL_RCC_OscConfig+0x414>
 800589c:	682b      	ldr	r3, [r5, #0]
 800589e:	0198      	lsls	r0, r3, #6
 80058a0:	d4f6      	bmi.n	8005890 <HAL_RCC_OscConfig+0x670>
 80058a2:	68e9      	ldr	r1, [r5, #12]
 80058a4:	6ae2      	ldr	r2, [r4, #44]	; 0x2c
 80058a6:	6b67      	ldr	r7, [r4, #52]	; 0x34
 80058a8:	6ba6      	ldr	r6, [r4, #56]	; 0x38
 80058aa:	6b20      	ldr	r0, [r4, #48]	; 0x30
 80058ac:	f248 038c 	movw	r3, #32908	; 0x808c
 80058b0:	f2c0 139d 	movt	r3, #413	; 0x19d
 80058b4:	400b      	ands	r3, r1
 80058b6:	4313      	orrs	r3, r2
 80058b8:	e9d4 120f 	ldrd	r1, r2, [r4, #60]	; 0x3c
 80058bc:	ea43 2307 	orr.w	r3, r3, r7, lsl #8
 80058c0:	3801      	subs	r0, #1
 80058c2:	ea43 63c6 	orr.w	r3, r3, r6, lsl #27
 80058c6:	0849      	lsrs	r1, r1, #1
 80058c8:	ea43 1300 	orr.w	r3, r3, r0, lsl #4
 80058cc:	3901      	subs	r1, #1
 80058ce:	0852      	lsrs	r2, r2, #1
 80058d0:	ea43 5341 	orr.w	r3, r3, r1, lsl #21
 80058d4:	3a01      	subs	r2, #1
 80058d6:	ea43 6342 	orr.w	r3, r3, r2, lsl #25
 80058da:	60eb      	str	r3, [r5, #12]
 80058dc:	682b      	ldr	r3, [r5, #0]
 80058de:	f043 7380 	orr.w	r3, r3, #16777216	; 0x1000000
 80058e2:	602b      	str	r3, [r5, #0]
 80058e4:	68eb      	ldr	r3, [r5, #12]
 80058e6:	f043 7380 	orr.w	r3, r3, #16777216	; 0x1000000
 80058ea:	60eb      	str	r3, [r5, #12]
 80058ec:	f7fe fa00 	bl	8003cf0 <HAL_GetTick>
 80058f0:	f44f 5580 	mov.w	r5, #4096	; 0x1000
 80058f4:	4604      	mov	r4, r0
 80058f6:	f2c4 0502 	movt	r5, #16386	; 0x4002
 80058fa:	e005      	b.n	8005908 <HAL_RCC_OscConfig+0x6e8>
 80058fc:	f7fe f9f8 	bl	8003cf0 <HAL_GetTick>
 8005900:	1b00      	subs	r0, r0, r4
 8005902:	2802      	cmp	r0, #2
 8005904:	f63f ae96 	bhi.w	8005634 <HAL_RCC_OscConfig+0x414>
 8005908:	682b      	ldr	r3, [r5, #0]
 800590a:	0199      	lsls	r1, r3, #6
 800590c:	d5f6      	bpl.n	80058fc <HAL_RCC_OscConfig+0x6dc>
 800590e:	e6ee      	b.n	80056ee <HAL_RCC_OscConfig+0x4ce>

08005910 <HAL_RCC_ClockConfig>:
 8005910:	2800      	cmp	r0, #0
 8005912:	f000 80c3 	beq.w	8005a9c <HAL_RCC_ClockConfig+0x18c>
 8005916:	f44f 5300 	mov.w	r3, #8192	; 0x2000
 800591a:	f2c4 0302 	movt	r3, #16386	; 0x4002
 800591e:	e92d 41f0 	stmdb	sp!, {r4, r5, r6, r7, r8, lr}
 8005922:	681a      	ldr	r2, [r3, #0]
 8005924:	f002 0207 	and.w	r2, r2, #7
 8005928:	428a      	cmp	r2, r1
 800592a:	460d      	mov	r5, r1
 800592c:	4604      	mov	r4, r0
 800592e:	d20c      	bcs.n	800594a <HAL_RCC_ClockConfig+0x3a>
 8005930:	681a      	ldr	r2, [r3, #0]
 8005932:	f022 0207 	bic.w	r2, r2, #7
 8005936:	430a      	orrs	r2, r1
 8005938:	601a      	str	r2, [r3, #0]
 800593a:	681b      	ldr	r3, [r3, #0]
 800593c:	f003 0307 	and.w	r3, r3, #7
 8005940:	428b      	cmp	r3, r1
 8005942:	d002      	beq.n	800594a <HAL_RCC_ClockConfig+0x3a>
 8005944:	2001      	movs	r0, #1
 8005946:	e8bd 81f0 	ldmia.w	sp!, {r4, r5, r6, r7, r8, pc}
 800594a:	6823      	ldr	r3, [r4, #0]
 800594c:	079e      	lsls	r6, r3, #30
 800594e:	f140 8097 	bpl.w	8005a80 <HAL_RCC_ClockConfig+0x170>
 8005952:	f44f 5280 	mov.w	r2, #4096	; 0x1000
 8005956:	f2c4 0202 	movt	r2, #16386	; 0x4002
 800595a:	68a0      	ldr	r0, [r4, #8]
 800595c:	6891      	ldr	r1, [r2, #8]
 800595e:	f001 01f0 	and.w	r1, r1, #240	; 0xf0
 8005962:	4288      	cmp	r0, r1
 8005964:	d904      	bls.n	8005970 <HAL_RCC_ClockConfig+0x60>
 8005966:	6891      	ldr	r1, [r2, #8]
 8005968:	f021 01f0 	bic.w	r1, r1, #240	; 0xf0
 800596c:	4301      	orrs	r1, r0
 800596e:	6091      	str	r1, [r2, #8]
 8005970:	07da      	lsls	r2, r3, #31
 8005972:	d530      	bpl.n	80059d6 <HAL_RCC_ClockConfig+0xc6>
 8005974:	6862      	ldr	r2, [r4, #4]
 8005976:	f44f 5380 	mov.w	r3, #4096	; 0x1000
 800597a:	f2c4 0302 	movt	r3, #16386	; 0x4002
 800597e:	2a03      	cmp	r2, #3
 8005980:	681b      	ldr	r3, [r3, #0]
 8005982:	f000 808d 	beq.w	8005aa0 <HAL_RCC_ClockConfig+0x190>
 8005986:	2a02      	cmp	r2, #2
 8005988:	f000 8084 	beq.w	8005a94 <HAL_RCC_ClockConfig+0x184>
 800598c:	2a00      	cmp	r2, #0
 800598e:	f040 808d 	bne.w	8005aac <HAL_RCC_ClockConfig+0x19c>
 8005992:	079b      	lsls	r3, r3, #30
 8005994:	d5d6      	bpl.n	8005944 <HAL_RCC_ClockConfig+0x34>
 8005996:	f44f 5180 	mov.w	r1, #4096	; 0x1000
 800599a:	f2c4 0102 	movt	r1, #16386	; 0x4002
 800599e:	460f      	mov	r7, r1
 80059a0:	688b      	ldr	r3, [r1, #8]
 80059a2:	f023 0303 	bic.w	r3, r3, #3
 80059a6:	4313      	orrs	r3, r2
 80059a8:	608b      	str	r3, [r1, #8]
 80059aa:	f7fe f9a1 	bl	8003cf0 <HAL_GetTick>
 80059ae:	f241 3888 	movw	r8, #5000	; 0x1388
 80059b2:	4606      	mov	r6, r0
 80059b4:	e004      	b.n	80059c0 <HAL_RCC_ClockConfig+0xb0>
 80059b6:	f7fe f99b 	bl	8003cf0 <HAL_GetTick>
 80059ba:	1b80      	subs	r0, r0, r6
 80059bc:	4540      	cmp	r0, r8
 80059be:	d873      	bhi.n	8005aa8 <HAL_RCC_ClockConfig+0x198>
 80059c0:	68bb      	ldr	r3, [r7, #8]
 80059c2:	6862      	ldr	r2, [r4, #4]
 80059c4:	f003 030c 	and.w	r3, r3, #12
 80059c8:	ebb3 0f82 	cmp.w	r3, r2, lsl #2
 80059cc:	d1f3      	bne.n	80059b6 <HAL_RCC_ClockConfig+0xa6>
 80059ce:	6823      	ldr	r3, [r4, #0]
 80059d0:	079e      	lsls	r6, r3, #30
 80059d2:	d509      	bpl.n	80059e8 <HAL_RCC_ClockConfig+0xd8>
 80059d4:	68a0      	ldr	r0, [r4, #8]
 80059d6:	f44f 5280 	mov.w	r2, #4096	; 0x1000
 80059da:	f2c4 0202 	movt	r2, #16386	; 0x4002
 80059de:	6891      	ldr	r1, [r2, #8]
 80059e0:	f001 01f0 	and.w	r1, r1, #240	; 0xf0
 80059e4:	4281      	cmp	r1, r0
 80059e6:	d84f      	bhi.n	8005a88 <HAL_RCC_ClockConfig+0x178>
 80059e8:	f44f 5200 	mov.w	r2, #8192	; 0x2000
 80059ec:	f2c4 0202 	movt	r2, #16386	; 0x4002
 80059f0:	6811      	ldr	r1, [r2, #0]
 80059f2:	f001 0107 	and.w	r1, r1, #7
 80059f6:	42a9      	cmp	r1, r5
 80059f8:	d909      	bls.n	8005a0e <HAL_RCC_ClockConfig+0xfe>
 80059fa:	6811      	ldr	r1, [r2, #0]
 80059fc:	f021 0107 	bic.w	r1, r1, #7
 8005a00:	4329      	orrs	r1, r5
 8005a02:	6011      	str	r1, [r2, #0]
 8005a04:	6812      	ldr	r2, [r2, #0]
 8005a06:	f002 0207 	and.w	r2, r2, #7
 8005a0a:	42aa      	cmp	r2, r5
 8005a0c:	d19a      	bne.n	8005944 <HAL_RCC_ClockConfig+0x34>
 8005a0e:	075d      	lsls	r5, r3, #29
 8005a10:	d509      	bpl.n	8005a26 <HAL_RCC_ClockConfig+0x116>
 8005a12:	f44f 5180 	mov.w	r1, #4096	; 0x1000
 8005a16:	f2c4 0102 	movt	r1, #16386	; 0x4002
 8005a1a:	68e0      	ldr	r0, [r4, #12]
 8005a1c:	688a      	ldr	r2, [r1, #8]
 8005a1e:	f422 62e0 	bic.w	r2, r2, #1792	; 0x700
 8005a22:	4302      	orrs	r2, r0
 8005a24:	608a      	str	r2, [r1, #8]
 8005a26:	0718      	lsls	r0, r3, #28
 8005a28:	d50a      	bpl.n	8005a40 <HAL_RCC_ClockConfig+0x130>
 8005a2a:	f44f 5280 	mov.w	r2, #4096	; 0x1000
 8005a2e:	f2c4 0202 	movt	r2, #16386	; 0x4002
 8005a32:	6921      	ldr	r1, [r4, #16]
 8005a34:	6893      	ldr	r3, [r2, #8]
 8005a36:	f423 5360 	bic.w	r3, r3, #14336	; 0x3800
 8005a3a:	ea43 03c1 	orr.w	r3, r3, r1, lsl #3
 8005a3e:	6093      	str	r3, [r2, #8]
 8005a40:	f7ff fb88 	bl	8005154 <HAL_RCC_GetSysClockFreq>
 8005a44:	f44f 5380 	mov.w	r3, #4096	; 0x1000
 8005a48:	f2c4 0302 	movt	r3, #16386	; 0x4002
 8005a4c:	f64f 52bc 	movw	r2, #64956	; 0xfdbc
 8005a50:	689b      	ldr	r3, [r3, #8]
 8005a52:	f6c0 0200 	movt	r2, #2048	; 0x800
 8005a56:	f3c3 1303 	ubfx	r3, r3, #4, #4
 8005a5a:	f240 0118 	movw	r1, #24
 8005a5e:	5cd2      	ldrb	r2, [r2, r3]
 8005a60:	f2c2 0100 	movt	r1, #8192	; 0x2000
 8005a64:	f240 0310 	movw	r3, #16
 8005a68:	f002 021f 	and.w	r2, r2, #31
 8005a6c:	f2c2 0300 	movt	r3, #8192	; 0x2000
 8005a70:	fa20 f202 	lsr.w	r2, r0, r2
 8005a74:	e8bd 41f0 	ldmia.w	sp!, {r4, r5, r6, r7, r8, lr}
 8005a78:	6808      	ldr	r0, [r1, #0]
 8005a7a:	601a      	str	r2, [r3, #0]
 8005a7c:	f7fe b80c 	b.w	8003a98 <HAL_InitTick>
 8005a80:	07d9      	lsls	r1, r3, #31
 8005a82:	f53f af77 	bmi.w	8005974 <HAL_RCC_ClockConfig+0x64>
 8005a86:	e7af      	b.n	80059e8 <HAL_RCC_ClockConfig+0xd8>
 8005a88:	6891      	ldr	r1, [r2, #8]
 8005a8a:	f021 01f0 	bic.w	r1, r1, #240	; 0xf0
 8005a8e:	4308      	orrs	r0, r1
 8005a90:	6090      	str	r0, [r2, #8]
 8005a92:	e7a9      	b.n	80059e8 <HAL_RCC_ClockConfig+0xd8>
 8005a94:	0399      	lsls	r1, r3, #14
 8005a96:	f53f af7e 	bmi.w	8005996 <HAL_RCC_ClockConfig+0x86>
 8005a9a:	e753      	b.n	8005944 <HAL_RCC_ClockConfig+0x34>
 8005a9c:	2001      	movs	r0, #1
 8005a9e:	4770      	bx	lr
 8005aa0:	0198      	lsls	r0, r3, #6
 8005aa2:	f53f af78 	bmi.w	8005996 <HAL_RCC_ClockConfig+0x86>
 8005aa6:	e74d      	b.n	8005944 <HAL_RCC_ClockConfig+0x34>
 8005aa8:	2003      	movs	r0, #3
 8005aaa:	e74c      	b.n	8005946 <HAL_RCC_ClockConfig+0x36>
 8005aac:	055f      	lsls	r7, r3, #21
 8005aae:	f57f af49 	bpl.w	8005944 <HAL_RCC_ClockConfig+0x34>
 8005ab2:	e770      	b.n	8005996 <HAL_RCC_ClockConfig+0x86>

08005ab4 <HAL_RCC_GetPCLK1Freq>:
 8005ab4:	f44f 5380 	mov.w	r3, #4096	; 0x1000
 8005ab8:	f2c4 0302 	movt	r3, #16386	; 0x4002
 8005abc:	f64f 51cc 	movw	r1, #64972	; 0xfdcc
 8005ac0:	689b      	ldr	r3, [r3, #8]
 8005ac2:	f6c0 0100 	movt	r1, #2048	; 0x800
 8005ac6:	f3c3 2302 	ubfx	r3, r3, #8, #3
 8005aca:	f240 0210 	movw	r2, #16
 8005ace:	f2c2 0200 	movt	r2, #8192	; 0x2000
 8005ad2:	5ccb      	ldrb	r3, [r1, r3]
 8005ad4:	6810      	ldr	r0, [r2, #0]
 8005ad6:	f003 031f 	and.w	r3, r3, #31
 8005ada:	40d8      	lsrs	r0, r3
 8005adc:	4770      	bx	lr
 8005ade:	bf00      	nop

08005ae0 <HAL_RCC_GetPCLK2Freq>:
 8005ae0:	f44f 5380 	mov.w	r3, #4096	; 0x1000
 8005ae4:	f2c4 0302 	movt	r3, #16386	; 0x4002
 8005ae8:	f64f 51cc 	movw	r1, #64972	; 0xfdcc
 8005aec:	689b      	ldr	r3, [r3, #8]
 8005aee:	f6c0 0100 	movt	r1, #2048	; 0x800
 8005af2:	f3c3 23c2 	ubfx	r3, r3, #11, #3
 8005af6:	f240 0210 	movw	r2, #16
 8005afa:	f2c2 0200 	movt	r2, #8192	; 0x2000
 8005afe:	5ccb      	ldrb	r3, [r1, r3]
 8005b00:	6810      	ldr	r0, [r2, #0]
 8005b02:	f003 031f 	and.w	r3, r3, #31
 8005b06:	40d8      	lsrs	r0, r3
 8005b08:	4770      	bx	lr
 8005b0a:	bf00      	nop

08005b0c <HAL_RCC_GetClockConfig>:
 8005b0c:	f44f 5380 	mov.w	r3, #4096	; 0x1000
 8005b10:	f2c4 0302 	movt	r3, #16386	; 0x4002
 8005b14:	220f      	movs	r2, #15
 8005b16:	6002      	str	r2, [r0, #0]
 8005b18:	689a      	ldr	r2, [r3, #8]
 8005b1a:	f002 0203 	and.w	r2, r2, #3
 8005b1e:	6042      	str	r2, [r0, #4]
 8005b20:	689a      	ldr	r2, [r3, #8]
 8005b22:	f002 02f0 	and.w	r2, r2, #240	; 0xf0
 8005b26:	6082      	str	r2, [r0, #8]
 8005b28:	689a      	ldr	r2, [r3, #8]
 8005b2a:	f402 62e0 	and.w	r2, r2, #1792	; 0x700
 8005b2e:	60c2      	str	r2, [r0, #12]
 8005b30:	689b      	ldr	r3, [r3, #8]
 8005b32:	f44f 5200 	mov.w	r2, #8192	; 0x2000
 8005b36:	08db      	lsrs	r3, r3, #3
 8005b38:	f403 63e0 	and.w	r3, r3, #1792	; 0x700
 8005b3c:	f2c4 0202 	movt	r2, #16386	; 0x4002
 8005b40:	6103      	str	r3, [r0, #16]
 8005b42:	6813      	ldr	r3, [r2, #0]
 8005b44:	f003 0307 	and.w	r3, r3, #7
 8005b48:	600b      	str	r3, [r1, #0]
 8005b4a:	4770      	bx	lr

08005b4c <RCCEx_PLLSAI1_Config>:
 8005b4c:	b5f8      	push	{r3, r4, r5, r6, r7, lr}
 8005b4e:	f44f 5380 	mov.w	r3, #4096	; 0x1000
 8005b52:	f2c4 0302 	movt	r3, #16386	; 0x4002
 8005b56:	4604      	mov	r4, r0
 8005b58:	68da      	ldr	r2, [r3, #12]
 8005b5a:	0792      	lsls	r2, r2, #30
 8005b5c:	460e      	mov	r6, r1
 8005b5e:	d007      	beq.n	8005b70 <RCCEx_PLLSAI1_Config+0x24>
 8005b60:	68da      	ldr	r2, [r3, #12]
 8005b62:	6801      	ldr	r1, [r0, #0]
 8005b64:	f002 0203 	and.w	r2, r2, #3
 8005b68:	428a      	cmp	r2, r1
 8005b6a:	d056      	beq.n	8005c1a <RCCEx_PLLSAI1_Config+0xce>
 8005b6c:	2001      	movs	r0, #1
 8005b6e:	bdf8      	pop	{r3, r4, r5, r6, r7, pc}
 8005b70:	6800      	ldr	r0, [r0, #0]
 8005b72:	2802      	cmp	r0, #2
 8005b74:	d062      	beq.n	8005c3c <RCCEx_PLLSAI1_Config+0xf0>
 8005b76:	2803      	cmp	r0, #3
 8005b78:	d059      	beq.n	8005c2e <RCCEx_PLLSAI1_Config+0xe2>
 8005b7a:	2801      	cmp	r0, #1
 8005b7c:	d1f6      	bne.n	8005b6c <RCCEx_PLLSAI1_Config+0x20>
 8005b7e:	681b      	ldr	r3, [r3, #0]
 8005b80:	079b      	lsls	r3, r3, #30
 8005b82:	d5f4      	bpl.n	8005b6e <RCCEx_PLLSAI1_Config+0x22>
 8005b84:	f44f 5280 	mov.w	r2, #4096	; 0x1000
 8005b88:	f2c4 0202 	movt	r2, #16386	; 0x4002
 8005b8c:	6861      	ldr	r1, [r4, #4]
 8005b8e:	68d3      	ldr	r3, [r2, #12]
 8005b90:	f023 0373 	bic.w	r3, r3, #115	; 0x73
 8005b94:	4318      	orrs	r0, r3
 8005b96:	3901      	subs	r1, #1
 8005b98:	ea40 1001 	orr.w	r0, r0, r1, lsl #4
 8005b9c:	60d0      	str	r0, [r2, #12]
 8005b9e:	f44f 5380 	mov.w	r3, #4096	; 0x1000
 8005ba2:	f2c4 0302 	movt	r3, #16386	; 0x4002
 8005ba6:	461f      	mov	r7, r3
 8005ba8:	681a      	ldr	r2, [r3, #0]
 8005baa:	f022 6280 	bic.w	r2, r2, #67108864	; 0x4000000
 8005bae:	601a      	str	r2, [r3, #0]
 8005bb0:	f7fe f89e 	bl	8003cf0 <HAL_GetTick>
 8005bb4:	4605      	mov	r5, r0
 8005bb6:	e004      	b.n	8005bc2 <RCCEx_PLLSAI1_Config+0x76>
 8005bb8:	f7fe f89a 	bl	8003cf0 <HAL_GetTick>
 8005bbc:	1b43      	subs	r3, r0, r5
 8005bbe:	2b02      	cmp	r3, #2
 8005bc0:	d840      	bhi.n	8005c44 <RCCEx_PLLSAI1_Config+0xf8>
 8005bc2:	683b      	ldr	r3, [r7, #0]
 8005bc4:	011a      	lsls	r2, r3, #4
 8005bc6:	d4f7      	bmi.n	8005bb8 <RCCEx_PLLSAI1_Config+0x6c>
 8005bc8:	2e00      	cmp	r6, #0
 8005bca:	d13d      	bne.n	8005c48 <RCCEx_PLLSAI1_Config+0xfc>
 8005bcc:	e9d4 1302 	ldrd	r1, r3, [r4, #8]
 8005bd0:	693a      	ldr	r2, [r7, #16]
 8005bd2:	06db      	lsls	r3, r3, #27
 8005bd4:	f022 4278 	bic.w	r2, r2, #4160749568	; 0xf8000000
 8005bd8:	f422 42fe 	bic.w	r2, r2, #32512	; 0x7f00
 8005bdc:	ea43 2301 	orr.w	r3, r3, r1, lsl #8
 8005be0:	4313      	orrs	r3, r2
 8005be2:	613b      	str	r3, [r7, #16]
 8005be4:	f44f 5380 	mov.w	r3, #4096	; 0x1000
 8005be8:	f2c4 0302 	movt	r3, #16386	; 0x4002
 8005bec:	461e      	mov	r6, r3
 8005bee:	681a      	ldr	r2, [r3, #0]
 8005bf0:	f042 6280 	orr.w	r2, r2, #67108864	; 0x4000000
 8005bf4:	601a      	str	r2, [r3, #0]
 8005bf6:	f7fe f87b 	bl	8003cf0 <HAL_GetTick>
 8005bfa:	4605      	mov	r5, r0
 8005bfc:	e004      	b.n	8005c08 <RCCEx_PLLSAI1_Config+0xbc>
 8005bfe:	f7fe f877 	bl	8003cf0 <HAL_GetTick>
 8005c02:	1b43      	subs	r3, r0, r5
 8005c04:	2b02      	cmp	r3, #2
 8005c06:	d81d      	bhi.n	8005c44 <RCCEx_PLLSAI1_Config+0xf8>
 8005c08:	6833      	ldr	r3, [r6, #0]
 8005c0a:	011b      	lsls	r3, r3, #4
 8005c0c:	d5f7      	bpl.n	8005bfe <RCCEx_PLLSAI1_Config+0xb2>
 8005c0e:	69a2      	ldr	r2, [r4, #24]
 8005c10:	6933      	ldr	r3, [r6, #16]
 8005c12:	4313      	orrs	r3, r2
 8005c14:	6133      	str	r3, [r6, #16]
 8005c16:	2000      	movs	r0, #0
 8005c18:	bdf8      	pop	{r3, r4, r5, r6, r7, pc}
 8005c1a:	2a00      	cmp	r2, #0
 8005c1c:	d0a6      	beq.n	8005b6c <RCCEx_PLLSAI1_Config+0x20>
 8005c1e:	68db      	ldr	r3, [r3, #12]
 8005c20:	6842      	ldr	r2, [r0, #4]
 8005c22:	f3c3 1302 	ubfx	r3, r3, #4, #3
 8005c26:	3301      	adds	r3, #1
 8005c28:	4293      	cmp	r3, r2
 8005c2a:	d19f      	bne.n	8005b6c <RCCEx_PLLSAI1_Config+0x20>
 8005c2c:	e7b7      	b.n	8005b9e <RCCEx_PLLSAI1_Config+0x52>
 8005c2e:	681a      	ldr	r2, [r3, #0]
 8005c30:	0395      	lsls	r5, r2, #14
 8005c32:	d4a7      	bmi.n	8005b84 <RCCEx_PLLSAI1_Config+0x38>
 8005c34:	681b      	ldr	r3, [r3, #0]
 8005c36:	0359      	lsls	r1, r3, #13
 8005c38:	d598      	bpl.n	8005b6c <RCCEx_PLLSAI1_Config+0x20>
 8005c3a:	e7a3      	b.n	8005b84 <RCCEx_PLLSAI1_Config+0x38>
 8005c3c:	681b      	ldr	r3, [r3, #0]
 8005c3e:	055f      	lsls	r7, r3, #21
 8005c40:	d594      	bpl.n	8005b6c <RCCEx_PLLSAI1_Config+0x20>
 8005c42:	e79f      	b.n	8005b84 <RCCEx_PLLSAI1_Config+0x38>
 8005c44:	2003      	movs	r0, #3
 8005c46:	bdf8      	pop	{r3, r4, r5, r6, r7, pc}
 8005c48:	2e01      	cmp	r6, #1
 8005c4a:	693b      	ldr	r3, [r7, #16]
 8005c4c:	d00d      	beq.n	8005c6a <RCCEx_PLLSAI1_Config+0x11e>
 8005c4e:	6962      	ldr	r2, [r4, #20]
 8005c50:	68a1      	ldr	r1, [r4, #8]
 8005c52:	f023 63c0 	bic.w	r3, r3, #100663296	; 0x6000000
 8005c56:	f423 43fe 	bic.w	r3, r3, #32512	; 0x7f00
 8005c5a:	0852      	lsrs	r2, r2, #1
 8005c5c:	ea43 2301 	orr.w	r3, r3, r1, lsl #8
 8005c60:	3a01      	subs	r2, #1
 8005c62:	ea43 6342 	orr.w	r3, r3, r2, lsl #25
 8005c66:	613b      	str	r3, [r7, #16]
 8005c68:	e7bc      	b.n	8005be4 <RCCEx_PLLSAI1_Config+0x98>
 8005c6a:	6922      	ldr	r2, [r4, #16]
 8005c6c:	68a1      	ldr	r1, [r4, #8]
 8005c6e:	f423 03c0 	bic.w	r3, r3, #6291456	; 0x600000
 8005c72:	f423 43fe 	bic.w	r3, r3, #32512	; 0x7f00
 8005c76:	0852      	lsrs	r2, r2, #1
 8005c78:	ea43 2301 	orr.w	r3, r3, r1, lsl #8
 8005c7c:	3a01      	subs	r2, #1
 8005c7e:	ea43 5342 	orr.w	r3, r3, r2, lsl #21
 8005c82:	613b      	str	r3, [r7, #16]
 8005c84:	e7ae      	b.n	8005be4 <RCCEx_PLLSAI1_Config+0x98>
 8005c86:	bf00      	nop

08005c88 <HAL_RCCEx_PeriphCLKConfig>:
 8005c88:	e92d 43f0 	stmdb	sp!, {r4, r5, r6, r7, r8, r9, lr}
 8005c8c:	6803      	ldr	r3, [r0, #0]
 8005c8e:	f413 6700 	ands.w	r7, r3, #2048	; 0x800
 8005c92:	b083      	sub	sp, #12
 8005c94:	4604      	mov	r4, r0
 8005c96:	d00c      	beq.n	8005cb2 <HAL_RCCEx_PeriphCLKConfig+0x2a>
 8005c98:	6c41      	ldr	r1, [r0, #68]	; 0x44
 8005c9a:	f5b1 0f00 	cmp.w	r1, #8388608	; 0x800000
 8005c9e:	f000 816d 	beq.w	8005f7c <HAL_RCCEx_PeriphCLKConfig+0x2f4>
 8005ca2:	f5b1 0f40 	cmp.w	r1, #12582912	; 0xc00000
 8005ca6:	f000 8148 	beq.w	8005f3a <HAL_RCCEx_PeriphCLKConfig+0x2b2>
 8005caa:	2900      	cmp	r1, #0
 8005cac:	f000 815e 	beq.w	8005f6c <HAL_RCCEx_PeriphCLKConfig+0x2e4>
 8005cb0:	2701      	movs	r7, #1
 8005cb2:	0399      	lsls	r1, r3, #14
 8005cb4:	d56a      	bpl.n	8005d8c <HAL_RCCEx_PeriphCLKConfig+0x104>
 8005cb6:	f44f 5380 	mov.w	r3, #4096	; 0x1000
 8005cba:	f2c4 0302 	movt	r3, #16386	; 0x4002
 8005cbe:	6d9a      	ldr	r2, [r3, #88]	; 0x58
 8005cc0:	00d2      	lsls	r2, r2, #3
 8005cc2:	f140 812c 	bpl.w	8005f1e <HAL_RCCEx_PeriphCLKConfig+0x296>
 8005cc6:	f04f 0800 	mov.w	r8, #0
 8005cca:	f44f 43e0 	mov.w	r3, #28672	; 0x7000
 8005cce:	f2c4 0300 	movt	r3, #16384	; 0x4000
 8005cd2:	461e      	mov	r6, r3
 8005cd4:	681a      	ldr	r2, [r3, #0]
 8005cd6:	f442 7280 	orr.w	r2, r2, #256	; 0x100
 8005cda:	601a      	str	r2, [r3, #0]
 8005cdc:	f7fe f808 	bl	8003cf0 <HAL_GetTick>
 8005ce0:	4605      	mov	r5, r0
 8005ce2:	e005      	b.n	8005cf0 <HAL_RCCEx_PeriphCLKConfig+0x68>
 8005ce4:	f7fe f804 	bl	8003cf0 <HAL_GetTick>
 8005ce8:	1b43      	subs	r3, r0, r5
 8005cea:	2b02      	cmp	r3, #2
 8005cec:	f200 8132 	bhi.w	8005f54 <HAL_RCCEx_PeriphCLKConfig+0x2cc>
 8005cf0:	6833      	ldr	r3, [r6, #0]
 8005cf2:	05db      	lsls	r3, r3, #23
 8005cf4:	d5f6      	bpl.n	8005ce4 <HAL_RCCEx_PeriphCLKConfig+0x5c>
 8005cf6:	2f00      	cmp	r7, #0
 8005cf8:	d13c      	bne.n	8005d74 <HAL_RCCEx_PeriphCLKConfig+0xec>
 8005cfa:	f44f 5580 	mov.w	r5, #4096	; 0x1000
 8005cfe:	f2c4 0502 	movt	r5, #16386	; 0x4002
 8005d02:	f8d5 3090 	ldr.w	r3, [r5, #144]	; 0x90
 8005d06:	f413 7340 	ands.w	r3, r3, #768	; 0x300
 8005d0a:	d027      	beq.n	8005d5c <HAL_RCCEx_PeriphCLKConfig+0xd4>
 8005d0c:	6da2      	ldr	r2, [r4, #88]	; 0x58
 8005d0e:	429a      	cmp	r2, r3
 8005d10:	d025      	beq.n	8005d5e <HAL_RCCEx_PeriphCLKConfig+0xd6>
 8005d12:	f8d5 1090 	ldr.w	r1, [r5, #144]	; 0x90
 8005d16:	f8d5 3090 	ldr.w	r3, [r5, #144]	; 0x90
 8005d1a:	f443 3380 	orr.w	r3, r3, #65536	; 0x10000
 8005d1e:	f8c5 3090 	str.w	r3, [r5, #144]	; 0x90
 8005d22:	f8d5 3090 	ldr.w	r3, [r5, #144]	; 0x90
 8005d26:	f421 7040 	bic.w	r0, r1, #768	; 0x300
 8005d2a:	f423 3380 	bic.w	r3, r3, #65536	; 0x10000
 8005d2e:	07ce      	lsls	r6, r1, #31
 8005d30:	f8c5 3090 	str.w	r3, [r5, #144]	; 0x90
 8005d34:	f8c5 0090 	str.w	r0, [r5, #144]	; 0x90
 8005d38:	f140 8147 	bpl.w	8005fca <HAL_RCCEx_PeriphCLKConfig+0x342>
 8005d3c:	f7fd ffd8 	bl	8003cf0 <HAL_GetTick>
 8005d40:	f241 3988 	movw	r9, #5000	; 0x1388
 8005d44:	4606      	mov	r6, r0
 8005d46:	e005      	b.n	8005d54 <HAL_RCCEx_PeriphCLKConfig+0xcc>
 8005d48:	f7fd ffd2 	bl	8003cf0 <HAL_GetTick>
 8005d4c:	1b80      	subs	r0, r0, r6
 8005d4e:	4548      	cmp	r0, r9
 8005d50:	f200 8100 	bhi.w	8005f54 <HAL_RCCEx_PeriphCLKConfig+0x2cc>
 8005d54:	f8d5 3090 	ldr.w	r3, [r5, #144]	; 0x90
 8005d58:	0798      	lsls	r0, r3, #30
 8005d5a:	d5f5      	bpl.n	8005d48 <HAL_RCCEx_PeriphCLKConfig+0xc0>
 8005d5c:	6da3      	ldr	r3, [r4, #88]	; 0x58
 8005d5e:	f44f 5180 	mov.w	r1, #4096	; 0x1000
 8005d62:	f2c4 0102 	movt	r1, #16386	; 0x4002
 8005d66:	f8d1 2090 	ldr.w	r2, [r1, #144]	; 0x90
 8005d6a:	f422 7240 	bic.w	r2, r2, #768	; 0x300
 8005d6e:	4313      	orrs	r3, r2
 8005d70:	f8c1 3090 	str.w	r3, [r1, #144]	; 0x90
 8005d74:	f1b8 0f00 	cmp.w	r8, #0
 8005d78:	d007      	beq.n	8005d8a <HAL_RCCEx_PeriphCLKConfig+0x102>
 8005d7a:	f44f 5380 	mov.w	r3, #4096	; 0x1000
 8005d7e:	f2c4 0302 	movt	r3, #16386	; 0x4002
 8005d82:	6d9a      	ldr	r2, [r3, #88]	; 0x58
 8005d84:	f022 5280 	bic.w	r2, r2, #268435456	; 0x10000000
 8005d88:	659a      	str	r2, [r3, #88]	; 0x58
 8005d8a:	6823      	ldr	r3, [r4, #0]
 8005d8c:	07d9      	lsls	r1, r3, #31
 8005d8e:	d50b      	bpl.n	8005da8 <HAL_RCCEx_PeriphCLKConfig+0x120>
 8005d90:	f44f 5180 	mov.w	r1, #4096	; 0x1000
 8005d94:	f2c4 0102 	movt	r1, #16386	; 0x4002
 8005d98:	6a20      	ldr	r0, [r4, #32]
 8005d9a:	f8d1 2088 	ldr.w	r2, [r1, #136]	; 0x88
 8005d9e:	f022 0203 	bic.w	r2, r2, #3
 8005da2:	4302      	orrs	r2, r0
 8005da4:	f8c1 2088 	str.w	r2, [r1, #136]	; 0x88
 8005da8:	079a      	lsls	r2, r3, #30
 8005daa:	d50b      	bpl.n	8005dc4 <HAL_RCCEx_PeriphCLKConfig+0x13c>
 8005dac:	f44f 5180 	mov.w	r1, #4096	; 0x1000
 8005db0:	f2c4 0102 	movt	r1, #16386	; 0x4002
 8005db4:	6a60      	ldr	r0, [r4, #36]	; 0x24
 8005db6:	f8d1 2088 	ldr.w	r2, [r1, #136]	; 0x88
 8005dba:	f022 020c 	bic.w	r2, r2, #12
 8005dbe:	4302      	orrs	r2, r0
 8005dc0:	f8c1 2088 	str.w	r2, [r1, #136]	; 0x88
 8005dc4:	075e      	lsls	r6, r3, #29
 8005dc6:	d50b      	bpl.n	8005de0 <HAL_RCCEx_PeriphCLKConfig+0x158>
 8005dc8:	f44f 5180 	mov.w	r1, #4096	; 0x1000
 8005dcc:	f2c4 0102 	movt	r1, #16386	; 0x4002
 8005dd0:	6aa0      	ldr	r0, [r4, #40]	; 0x28
 8005dd2:	f8d1 2088 	ldr.w	r2, [r1, #136]	; 0x88
 8005dd6:	f022 0230 	bic.w	r2, r2, #48	; 0x30
 8005dda:	4302      	orrs	r2, r0
 8005ddc:	f8c1 2088 	str.w	r2, [r1, #136]	; 0x88
 8005de0:	069d      	lsls	r5, r3, #26
 8005de2:	d50b      	bpl.n	8005dfc <HAL_RCCEx_PeriphCLKConfig+0x174>
 8005de4:	f44f 5180 	mov.w	r1, #4096	; 0x1000
 8005de8:	f2c4 0102 	movt	r1, #16386	; 0x4002
 8005dec:	6ae0      	ldr	r0, [r4, #44]	; 0x2c
 8005dee:	f8d1 2088 	ldr.w	r2, [r1, #136]	; 0x88
 8005df2:	f422 6240 	bic.w	r2, r2, #3072	; 0xc00
 8005df6:	4302      	orrs	r2, r0
 8005df8:	f8c1 2088 	str.w	r2, [r1, #136]	; 0x88
 8005dfc:	0598      	lsls	r0, r3, #22
 8005dfe:	d50b      	bpl.n	8005e18 <HAL_RCCEx_PeriphCLKConfig+0x190>
 8005e00:	f44f 5180 	mov.w	r1, #4096	; 0x1000
 8005e04:	f2c4 0102 	movt	r1, #16386	; 0x4002
 8005e08:	6be0      	ldr	r0, [r4, #60]	; 0x3c
 8005e0a:	f8d1 2088 	ldr.w	r2, [r1, #136]	; 0x88
 8005e0e:	f422 2240 	bic.w	r2, r2, #786432	; 0xc0000
 8005e12:	4302      	orrs	r2, r0
 8005e14:	f8c1 2088 	str.w	r2, [r1, #136]	; 0x88
 8005e18:	0559      	lsls	r1, r3, #21
 8005e1a:	d50b      	bpl.n	8005e34 <HAL_RCCEx_PeriphCLKConfig+0x1ac>
 8005e1c:	f44f 5180 	mov.w	r1, #4096	; 0x1000
 8005e20:	f2c4 0102 	movt	r1, #16386	; 0x4002
 8005e24:	6c20      	ldr	r0, [r4, #64]	; 0x40
 8005e26:	f8d1 2088 	ldr.w	r2, [r1, #136]	; 0x88
 8005e2a:	f422 1240 	bic.w	r2, r2, #3145728	; 0x300000
 8005e2e:	4302      	orrs	r2, r0
 8005e30:	f8c1 2088 	str.w	r2, [r1, #136]	; 0x88
 8005e34:	065a      	lsls	r2, r3, #25
 8005e36:	d50b      	bpl.n	8005e50 <HAL_RCCEx_PeriphCLKConfig+0x1c8>
 8005e38:	f44f 5180 	mov.w	r1, #4096	; 0x1000
 8005e3c:	f2c4 0102 	movt	r1, #16386	; 0x4002
 8005e40:	6b20      	ldr	r0, [r4, #48]	; 0x30
 8005e42:	f8d1 2088 	ldr.w	r2, [r1, #136]	; 0x88
 8005e46:	f422 5240 	bic.w	r2, r2, #12288	; 0x3000
 8005e4a:	4302      	orrs	r2, r0
 8005e4c:	f8c1 2088 	str.w	r2, [r1, #136]	; 0x88
 8005e50:	061e      	lsls	r6, r3, #24
 8005e52:	d50b      	bpl.n	8005e6c <HAL_RCCEx_PeriphCLKConfig+0x1e4>
 8005e54:	f44f 5180 	mov.w	r1, #4096	; 0x1000
 8005e58:	f2c4 0102 	movt	r1, #16386	; 0x4002
 8005e5c:	6b60      	ldr	r0, [r4, #52]	; 0x34
 8005e5e:	f8d1 2088 	ldr.w	r2, [r1, #136]	; 0x88
 8005e62:	f422 4240 	bic.w	r2, r2, #49152	; 0xc000
 8005e66:	4302      	orrs	r2, r0
 8005e68:	f8c1 2088 	str.w	r2, [r1, #136]	; 0x88
 8005e6c:	05dd      	lsls	r5, r3, #23
 8005e6e:	d50b      	bpl.n	8005e88 <HAL_RCCEx_PeriphCLKConfig+0x200>
 8005e70:	f44f 5180 	mov.w	r1, #4096	; 0x1000
 8005e74:	f2c4 0102 	movt	r1, #16386	; 0x4002
 8005e78:	6ba0      	ldr	r0, [r4, #56]	; 0x38
 8005e7a:	f8d1 2088 	ldr.w	r2, [r1, #136]	; 0x88
 8005e7e:	f422 3240 	bic.w	r2, r2, #196608	; 0x30000
 8005e82:	4302      	orrs	r2, r0
 8005e84:	f8c1 2088 	str.w	r2, [r1, #136]	; 0x88
 8005e88:	0318      	lsls	r0, r3, #12
 8005e8a:	d511      	bpl.n	8005eb0 <HAL_RCCEx_PeriphCLKConfig+0x228>
 8005e8c:	f44f 5180 	mov.w	r1, #4096	; 0x1000
 8005e90:	f2c4 0102 	movt	r1, #16386	; 0x4002
 8005e94:	6ca0      	ldr	r0, [r4, #72]	; 0x48
 8005e96:	f8d1 2088 	ldr.w	r2, [r1, #136]	; 0x88
 8005e9a:	f022 6240 	bic.w	r2, r2, #201326592	; 0xc000000
 8005e9e:	4302      	orrs	r2, r0
 8005ea0:	f1b0 6f00 	cmp.w	r0, #134217728	; 0x8000000
 8005ea4:	f8c1 2088 	str.w	r2, [r1, #136]	; 0x88
 8005ea8:	d056      	beq.n	8005f58 <HAL_RCCEx_PeriphCLKConfig+0x2d0>
 8005eaa:	f1b0 6f80 	cmp.w	r0, #67108864	; 0x4000000
 8005eae:	d076      	beq.n	8005f9e <HAL_RCCEx_PeriphCLKConfig+0x316>
 8005eb0:	0359      	lsls	r1, r3, #13
 8005eb2:	d511      	bpl.n	8005ed8 <HAL_RCCEx_PeriphCLKConfig+0x250>
 8005eb4:	f44f 5180 	mov.w	r1, #4096	; 0x1000
 8005eb8:	f2c4 0102 	movt	r1, #16386	; 0x4002
 8005ebc:	6ce0      	ldr	r0, [r4, #76]	; 0x4c
 8005ebe:	f8d1 2088 	ldr.w	r2, [r1, #136]	; 0x88
 8005ec2:	f022 6240 	bic.w	r2, r2, #201326592	; 0xc000000
 8005ec6:	4302      	orrs	r2, r0
 8005ec8:	f1b0 6f00 	cmp.w	r0, #134217728	; 0x8000000
 8005ecc:	f8c1 2088 	str.w	r2, [r1, #136]	; 0x88
 8005ed0:	d047      	beq.n	8005f62 <HAL_RCCEx_PeriphCLKConfig+0x2da>
 8005ed2:	f1b0 6f80 	cmp.w	r0, #67108864	; 0x4000000
 8005ed6:	d06a      	beq.n	8005fae <HAL_RCCEx_PeriphCLKConfig+0x326>
 8005ed8:	045a      	lsls	r2, r3, #17
 8005eda:	d50e      	bpl.n	8005efa <HAL_RCCEx_PeriphCLKConfig+0x272>
 8005edc:	f44f 5180 	mov.w	r1, #4096	; 0x1000
 8005ee0:	f2c4 0102 	movt	r1, #16386	; 0x4002
 8005ee4:	6d20      	ldr	r0, [r4, #80]	; 0x50
 8005ee6:	f8d1 2088 	ldr.w	r2, [r1, #136]	; 0x88
 8005eea:	f022 5240 	bic.w	r2, r2, #805306368	; 0x30000000
 8005eee:	4302      	orrs	r2, r0
 8005ef0:	f1b0 5f80 	cmp.w	r0, #268435456	; 0x10000000
 8005ef4:	f8c1 2088 	str.w	r2, [r1, #136]	; 0x88
 8005ef8:	d049      	beq.n	8005f8e <HAL_RCCEx_PeriphCLKConfig+0x306>
 8005efa:	041b      	lsls	r3, r3, #16
 8005efc:	d50b      	bpl.n	8005f16 <HAL_RCCEx_PeriphCLKConfig+0x28e>
 8005efe:	f44f 5280 	mov.w	r2, #4096	; 0x1000
 8005f02:	f2c4 0202 	movt	r2, #16386	; 0x4002
 8005f06:	6d61      	ldr	r1, [r4, #84]	; 0x54
 8005f08:	f8d2 3088 	ldr.w	r3, [r2, #136]	; 0x88
 8005f0c:	f023 4380 	bic.w	r3, r3, #1073741824	; 0x40000000
 8005f10:	430b      	orrs	r3, r1
 8005f12:	f8c2 3088 	str.w	r3, [r2, #136]	; 0x88
 8005f16:	4638      	mov	r0, r7
 8005f18:	b003      	add	sp, #12
 8005f1a:	e8bd 83f0 	ldmia.w	sp!, {r4, r5, r6, r7, r8, r9, pc}
 8005f1e:	6d9a      	ldr	r2, [r3, #88]	; 0x58
 8005f20:	f042 5280 	orr.w	r2, r2, #268435456	; 0x10000000
 8005f24:	659a      	str	r2, [r3, #88]	; 0x58
 8005f26:	6d9b      	ldr	r3, [r3, #88]	; 0x58
 8005f28:	f003 5380 	and.w	r3, r3, #268435456	; 0x10000000
 8005f2c:	9301      	str	r3, [sp, #4]
 8005f2e:	9b01      	ldr	r3, [sp, #4]
 8005f30:	f04f 0801 	mov.w	r8, #1
 8005f34:	e6c9      	b.n	8005cca <HAL_RCCEx_PeriphCLKConfig+0x42>
 8005f36:	6c61      	ldr	r1, [r4, #68]	; 0x44
 8005f38:	6823      	ldr	r3, [r4, #0]
 8005f3a:	f44f 5080 	mov.w	r0, #4096	; 0x1000
 8005f3e:	f2c4 0002 	movt	r0, #16386	; 0x4002
 8005f42:	2700      	movs	r7, #0
 8005f44:	f8d0 2088 	ldr.w	r2, [r0, #136]	; 0x88
 8005f48:	f422 0240 	bic.w	r2, r2, #12582912	; 0xc00000
 8005f4c:	4311      	orrs	r1, r2
 8005f4e:	f8c0 1088 	str.w	r1, [r0, #136]	; 0x88
 8005f52:	e6ae      	b.n	8005cb2 <HAL_RCCEx_PeriphCLKConfig+0x2a>
 8005f54:	2703      	movs	r7, #3
 8005f56:	e70d      	b.n	8005d74 <HAL_RCCEx_PeriphCLKConfig+0xec>
 8005f58:	68ca      	ldr	r2, [r1, #12]
 8005f5a:	f442 1280 	orr.w	r2, r2, #1048576	; 0x100000
 8005f5e:	60ca      	str	r2, [r1, #12]
 8005f60:	e7a6      	b.n	8005eb0 <HAL_RCCEx_PeriphCLKConfig+0x228>
 8005f62:	68ca      	ldr	r2, [r1, #12]
 8005f64:	f442 1280 	orr.w	r2, r2, #1048576	; 0x100000
 8005f68:	60ca      	str	r2, [r1, #12]
 8005f6a:	e7b5      	b.n	8005ed8 <HAL_RCCEx_PeriphCLKConfig+0x250>
 8005f6c:	3004      	adds	r0, #4
 8005f6e:	f7ff fded 	bl	8005b4c <RCCEx_PLLSAI1_Config>
 8005f72:	4607      	mov	r7, r0
 8005f74:	2800      	cmp	r0, #0
 8005f76:	d0de      	beq.n	8005f36 <HAL_RCCEx_PeriphCLKConfig+0x2ae>
 8005f78:	6823      	ldr	r3, [r4, #0]
 8005f7a:	e69a      	b.n	8005cb2 <HAL_RCCEx_PeriphCLKConfig+0x2a>
 8005f7c:	f44f 5280 	mov.w	r2, #4096	; 0x1000
 8005f80:	f2c4 0202 	movt	r2, #16386	; 0x4002
 8005f84:	68d0      	ldr	r0, [r2, #12]
 8005f86:	f440 3080 	orr.w	r0, r0, #65536	; 0x10000
 8005f8a:	60d0      	str	r0, [r2, #12]
 8005f8c:	e7d5      	b.n	8005f3a <HAL_RCCEx_PeriphCLKConfig+0x2b2>
 8005f8e:	2102      	movs	r1, #2
 8005f90:	1d20      	adds	r0, r4, #4
 8005f92:	f7ff fddb 	bl	8005b4c <RCCEx_PLLSAI1_Config>
 8005f96:	b190      	cbz	r0, 8005fbe <HAL_RCCEx_PeriphCLKConfig+0x336>
 8005f98:	6823      	ldr	r3, [r4, #0]
 8005f9a:	4607      	mov	r7, r0
 8005f9c:	e7ad      	b.n	8005efa <HAL_RCCEx_PeriphCLKConfig+0x272>
 8005f9e:	2101      	movs	r1, #1
 8005fa0:	1d20      	adds	r0, r4, #4
 8005fa2:	f7ff fdd3 	bl	8005b4c <RCCEx_PLLSAI1_Config>
 8005fa6:	b170      	cbz	r0, 8005fc6 <HAL_RCCEx_PeriphCLKConfig+0x33e>
 8005fa8:	6823      	ldr	r3, [r4, #0]
 8005faa:	4607      	mov	r7, r0
 8005fac:	e780      	b.n	8005eb0 <HAL_RCCEx_PeriphCLKConfig+0x228>
 8005fae:	2101      	movs	r1, #1
 8005fb0:	1d20      	adds	r0, r4, #4
 8005fb2:	f7ff fdcb 	bl	8005b4c <RCCEx_PLLSAI1_Config>
 8005fb6:	b120      	cbz	r0, 8005fc2 <HAL_RCCEx_PeriphCLKConfig+0x33a>
 8005fb8:	6823      	ldr	r3, [r4, #0]
 8005fba:	4607      	mov	r7, r0
 8005fbc:	e78c      	b.n	8005ed8 <HAL_RCCEx_PeriphCLKConfig+0x250>
 8005fbe:	6823      	ldr	r3, [r4, #0]
 8005fc0:	e79b      	b.n	8005efa <HAL_RCCEx_PeriphCLKConfig+0x272>
 8005fc2:	6823      	ldr	r3, [r4, #0]
 8005fc4:	e788      	b.n	8005ed8 <HAL_RCCEx_PeriphCLKConfig+0x250>
 8005fc6:	6823      	ldr	r3, [r4, #0]
 8005fc8:	e772      	b.n	8005eb0 <HAL_RCCEx_PeriphCLKConfig+0x228>
 8005fca:	4613      	mov	r3, r2
 8005fcc:	e6c7      	b.n	8005d5e <HAL_RCCEx_PeriphCLKConfig+0xd6>
 8005fce:	bf00      	nop

08005fd0 <HAL_TIM_Base_Init>:
 8005fd0:	2800      	cmp	r0, #0
 8005fd2:	d074      	beq.n	80060be <HAL_TIM_Base_Init+0xee>
 8005fd4:	b538      	push	{r3, r4, r5, lr}
 8005fd6:	f890 303d 	ldrb.w	r3, [r0, #61]	; 0x3d
 8005fda:	4604      	mov	r4, r0
 8005fdc:	f003 02ff 	and.w	r2, r3, #255	; 0xff
 8005fe0:	2b00      	cmp	r3, #0
 8005fe2:	d04e      	beq.n	8006082 <HAL_TIM_Base_Init+0xb2>
 8005fe4:	6821      	ldr	r1, [r4, #0]
 8005fe6:	f44f 5230 	mov.w	r2, #11264	; 0x2c00
 8005fea:	2302      	movs	r3, #2
 8005fec:	f2c4 0201 	movt	r2, #16385	; 0x4001
 8005ff0:	f884 303d 	strb.w	r3, [r4, #61]	; 0x3d
 8005ff4:	4291      	cmp	r1, r2
 8005ff6:	680b      	ldr	r3, [r1, #0]
 8005ff8:	d048      	beq.n	800608c <HAL_TIM_Base_Init+0xbc>
 8005ffa:	f1b1 4f80 	cmp.w	r1, #1073741824	; 0x40000000
 8005ffe:	d04c      	beq.n	800609a <HAL_TIM_Base_Init+0xca>
 8006000:	f44f 4280 	mov.w	r2, #16384	; 0x4000
 8006004:	f2c4 0201 	movt	r2, #16385	; 0x4001
 8006008:	4291      	cmp	r1, r2
 800600a:	d00f      	beq.n	800602c <HAL_TIM_Base_Init+0x5c>
 800600c:	f44f 4288 	mov.w	r2, #17408	; 0x4400
 8006010:	f2c4 0201 	movt	r2, #16385	; 0x4001
 8006014:	4291      	cmp	r1, r2
 8006016:	d009      	beq.n	800602c <HAL_TIM_Base_Init+0x5c>
 8006018:	69a5      	ldr	r5, [r4, #24]
 800601a:	68e0      	ldr	r0, [r4, #12]
 800601c:	6862      	ldr	r2, [r4, #4]
 800601e:	f023 0380 	bic.w	r3, r3, #128	; 0x80
 8006022:	432b      	orrs	r3, r5
 8006024:	600b      	str	r3, [r1, #0]
 8006026:	62c8      	str	r0, [r1, #44]	; 0x2c
 8006028:	628a      	str	r2, [r1, #40]	; 0x28
 800602a:	e00e      	b.n	800604a <HAL_TIM_Base_Init+0x7a>
 800602c:	6920      	ldr	r0, [r4, #16]
 800602e:	69a2      	ldr	r2, [r4, #24]
 8006030:	f423 7340 	bic.w	r3, r3, #768	; 0x300
 8006034:	4303      	orrs	r3, r0
 8006036:	f023 0380 	bic.w	r3, r3, #128	; 0x80
 800603a:	4313      	orrs	r3, r2
 800603c:	600b      	str	r3, [r1, #0]
 800603e:	68e3      	ldr	r3, [r4, #12]
 8006040:	62cb      	str	r3, [r1, #44]	; 0x2c
 8006042:	6863      	ldr	r3, [r4, #4]
 8006044:	628b      	str	r3, [r1, #40]	; 0x28
 8006046:	6963      	ldr	r3, [r4, #20]
 8006048:	630b      	str	r3, [r1, #48]	; 0x30
 800604a:	2301      	movs	r3, #1
 800604c:	614b      	str	r3, [r1, #20]
 800604e:	f884 3048 	strb.w	r3, [r4, #72]	; 0x48
 8006052:	f884 303e 	strb.w	r3, [r4, #62]	; 0x3e
 8006056:	f884 303f 	strb.w	r3, [r4, #63]	; 0x3f
 800605a:	f884 3040 	strb.w	r3, [r4, #64]	; 0x40
 800605e:	f884 3041 	strb.w	r3, [r4, #65]	; 0x41
 8006062:	f884 3042 	strb.w	r3, [r4, #66]	; 0x42
 8006066:	f884 3043 	strb.w	r3, [r4, #67]	; 0x43
 800606a:	f884 3044 	strb.w	r3, [r4, #68]	; 0x44
 800606e:	f884 3045 	strb.w	r3, [r4, #69]	; 0x45
 8006072:	f884 3046 	strb.w	r3, [r4, #70]	; 0x46
 8006076:	f884 3047 	strb.w	r3, [r4, #71]	; 0x47
 800607a:	f884 303d 	strb.w	r3, [r4, #61]	; 0x3d
 800607e:	2000      	movs	r0, #0
 8006080:	bd38      	pop	{r3, r4, r5, pc}
 8006082:	f880 203c 	strb.w	r2, [r0, #60]	; 0x3c
 8006086:	f7fd fbfd 	bl	8003884 <HAL_TIM_Base_MspInit>
 800608a:	e7ab      	b.n	8005fe4 <HAL_TIM_Base_Init+0x14>
 800608c:	68a5      	ldr	r5, [r4, #8]
 800608e:	6920      	ldr	r0, [r4, #16]
 8006090:	69a2      	ldr	r2, [r4, #24]
 8006092:	f023 0370 	bic.w	r3, r3, #112	; 0x70
 8006096:	432b      	orrs	r3, r5
 8006098:	e7ca      	b.n	8006030 <HAL_TIM_Base_Init+0x60>
 800609a:	68a5      	ldr	r5, [r4, #8]
 800609c:	6920      	ldr	r0, [r4, #16]
 800609e:	69a2      	ldr	r2, [r4, #24]
 80060a0:	f023 0370 	bic.w	r3, r3, #112	; 0x70
 80060a4:	432b      	orrs	r3, r5
 80060a6:	f423 7340 	bic.w	r3, r3, #768	; 0x300
 80060aa:	4303      	orrs	r3, r0
 80060ac:	f023 0380 	bic.w	r3, r3, #128	; 0x80
 80060b0:	4313      	orrs	r3, r2
 80060b2:	600b      	str	r3, [r1, #0]
 80060b4:	68e3      	ldr	r3, [r4, #12]
 80060b6:	62cb      	str	r3, [r1, #44]	; 0x2c
 80060b8:	6863      	ldr	r3, [r4, #4]
 80060ba:	628b      	str	r3, [r1, #40]	; 0x28
 80060bc:	e7c5      	b.n	800604a <HAL_TIM_Base_Init+0x7a>
 80060be:	2001      	movs	r0, #1
 80060c0:	4770      	bx	lr
 80060c2:	bf00      	nop

080060c4 <HAL_TIM_Base_Start_IT>:
 80060c4:	f890 303d 	ldrb.w	r3, [r0, #61]	; 0x3d
 80060c8:	2b01      	cmp	r3, #1
 80060ca:	d11c      	bne.n	8006106 <HAL_TIM_Base_Start_IT+0x42>
 80060cc:	6803      	ldr	r3, [r0, #0]
 80060ce:	2202      	movs	r2, #2
 80060d0:	f880 203d 	strb.w	r2, [r0, #61]	; 0x3d
 80060d4:	68da      	ldr	r2, [r3, #12]
 80060d6:	f44f 5130 	mov.w	r1, #11264	; 0x2c00
 80060da:	f2c4 0101 	movt	r1, #16385	; 0x4001
 80060de:	f042 0201 	orr.w	r2, r2, #1
 80060e2:	428b      	cmp	r3, r1
 80060e4:	60da      	str	r2, [r3, #12]
 80060e6:	d010      	beq.n	800610a <HAL_TIM_Base_Start_IT+0x46>
 80060e8:	f1b3 4f80 	cmp.w	r3, #1073741824	; 0x40000000
 80060ec:	d00d      	beq.n	800610a <HAL_TIM_Base_Start_IT+0x46>
 80060ee:	f44f 4280 	mov.w	r2, #16384	; 0x4000
 80060f2:	f2c4 0201 	movt	r2, #16385	; 0x4001
 80060f6:	4293      	cmp	r3, r2
 80060f8:	d007      	beq.n	800610a <HAL_TIM_Base_Start_IT+0x46>
 80060fa:	681a      	ldr	r2, [r3, #0]
 80060fc:	f042 0201 	orr.w	r2, r2, #1
 8006100:	601a      	str	r2, [r3, #0]
 8006102:	2000      	movs	r0, #0
 8006104:	4770      	bx	lr
 8006106:	2001      	movs	r0, #1
 8006108:	4770      	bx	lr
 800610a:	6899      	ldr	r1, [r3, #8]
 800610c:	2207      	movs	r2, #7
 800610e:	f2c0 0201 	movt	r2, #1
 8006112:	400a      	ands	r2, r1
 8006114:	2a06      	cmp	r2, #6
 8006116:	d002      	beq.n	800611e <HAL_TIM_Base_Start_IT+0x5a>
 8006118:	f5b2 3f80 	cmp.w	r2, #65536	; 0x10000
 800611c:	d1ed      	bne.n	80060fa <HAL_TIM_Base_Start_IT+0x36>
 800611e:	2000      	movs	r0, #0
 8006120:	4770      	bx	lr
 8006122:	bf00      	nop

08006124 <HAL_TIM_PWM_Init>:
 8006124:	2800      	cmp	r0, #0
 8006126:	d074      	beq.n	8006212 <HAL_TIM_PWM_Init+0xee>
 8006128:	b538      	push	{r3, r4, r5, lr}
 800612a:	f890 303d 	ldrb.w	r3, [r0, #61]	; 0x3d
 800612e:	4604      	mov	r4, r0
 8006130:	f003 02ff 	and.w	r2, r3, #255	; 0xff
 8006134:	2b00      	cmp	r3, #0
 8006136:	d04e      	beq.n	80061d6 <HAL_TIM_PWM_Init+0xb2>
 8006138:	6821      	ldr	r1, [r4, #0]
 800613a:	f44f 5230 	mov.w	r2, #11264	; 0x2c00
 800613e:	2302      	movs	r3, #2
 8006140:	f2c4 0201 	movt	r2, #16385	; 0x4001
 8006144:	f884 303d 	strb.w	r3, [r4, #61]	; 0x3d
 8006148:	4291      	cmp	r1, r2
 800614a:	680b      	ldr	r3, [r1, #0]
 800614c:	d048      	beq.n	80061e0 <HAL_TIM_PWM_Init+0xbc>
 800614e:	f1b1 4f80 	cmp.w	r1, #1073741824	; 0x40000000
 8006152:	d04c      	beq.n	80061ee <HAL_TIM_PWM_Init+0xca>
 8006154:	f44f 4280 	mov.w	r2, #16384	; 0x4000
 8006158:	f2c4 0201 	movt	r2, #16385	; 0x4001
 800615c:	4291      	cmp	r1, r2
 800615e:	d00f      	beq.n	8006180 <HAL_TIM_PWM_Init+0x5c>
 8006160:	f44f 4288 	mov.w	r2, #17408	; 0x4400
 8006164:	f2c4 0201 	movt	r2, #16385	; 0x4001
 8006168:	4291      	cmp	r1, r2
 800616a:	d009      	beq.n	8006180 <HAL_TIM_PWM_Init+0x5c>
 800616c:	69a5      	ldr	r5, [r4, #24]
 800616e:	68e0      	ldr	r0, [r4, #12]
 8006170:	6862      	ldr	r2, [r4, #4]
 8006172:	f023 0380 	bic.w	r3, r3, #128	; 0x80
 8006176:	432b      	orrs	r3, r5
 8006178:	600b      	str	r3, [r1, #0]
 800617a:	62c8      	str	r0, [r1, #44]	; 0x2c
 800617c:	628a      	str	r2, [r1, #40]	; 0x28
 800617e:	e00e      	b.n	800619e <HAL_TIM_PWM_Init+0x7a>
 8006180:	6920      	ldr	r0, [r4, #16]
 8006182:	69a2      	ldr	r2, [r4, #24]
 8006184:	f423 7340 	bic.w	r3, r3, #768	; 0x300
 8006188:	4303      	orrs	r3, r0
 800618a:	f023 0380 	bic.w	r3, r3, #128	; 0x80
 800618e:	4313      	orrs	r3, r2
 8006190:	600b      	str	r3, [r1, #0]
 8006192:	68e3      	ldr	r3, [r4, #12]
 8006194:	62cb      	str	r3, [r1, #44]	; 0x2c
 8006196:	6863      	ldr	r3, [r4, #4]
 8006198:	628b      	str	r3, [r1, #40]	; 0x28
 800619a:	6963      	ldr	r3, [r4, #20]
 800619c:	630b      	str	r3, [r1, #48]	; 0x30
 800619e:	2301      	movs	r3, #1
 80061a0:	614b      	str	r3, [r1, #20]
 80061a2:	f884 3048 	strb.w	r3, [r4, #72]	; 0x48
 80061a6:	f884 303e 	strb.w	r3, [r4, #62]	; 0x3e
 80061aa:	f884 303f 	strb.w	r3, [r4, #63]	; 0x3f
 80061ae:	f884 3040 	strb.w	r3, [r4, #64]	; 0x40
 80061b2:	f884 3041 	strb.w	r3, [r4, #65]	; 0x41
 80061b6:	f884 3042 	strb.w	r3, [r4, #66]	; 0x42
 80061ba:	f884 3043 	strb.w	r3, [r4, #67]	; 0x43
 80061be:	f884 3044 	strb.w	r3, [r4, #68]	; 0x44
 80061c2:	f884 3045 	strb.w	r3, [r4, #69]	; 0x45
 80061c6:	f884 3046 	strb.w	r3, [r4, #70]	; 0x46
 80061ca:	f884 3047 	strb.w	r3, [r4, #71]	; 0x47
 80061ce:	f884 303d 	strb.w	r3, [r4, #61]	; 0x3d
 80061d2:	2000      	movs	r0, #0
 80061d4:	bd38      	pop	{r3, r4, r5, pc}
 80061d6:	f880 203c 	strb.w	r2, [r0, #60]	; 0x3c
 80061da:	f7fd fb3d 	bl	8003858 <HAL_TIM_PWM_MspInit>
 80061de:	e7ab      	b.n	8006138 <HAL_TIM_PWM_Init+0x14>
 80061e0:	68a5      	ldr	r5, [r4, #8]
 80061e2:	6920      	ldr	r0, [r4, #16]
 80061e4:	69a2      	ldr	r2, [r4, #24]
 80061e6:	f023 0370 	bic.w	r3, r3, #112	; 0x70
 80061ea:	432b      	orrs	r3, r5
 80061ec:	e7ca      	b.n	8006184 <HAL_TIM_PWM_Init+0x60>
 80061ee:	68a5      	ldr	r5, [r4, #8]
 80061f0:	6920      	ldr	r0, [r4, #16]
 80061f2:	69a2      	ldr	r2, [r4, #24]
 80061f4:	f023 0370 	bic.w	r3, r3, #112	; 0x70
 80061f8:	432b      	orrs	r3, r5
 80061fa:	f423 7340 	bic.w	r3, r3, #768	; 0x300
 80061fe:	4303      	orrs	r3, r0
 8006200:	f023 0380 	bic.w	r3, r3, #128	; 0x80
 8006204:	4313      	orrs	r3, r2
 8006206:	600b      	str	r3, [r1, #0]
 8006208:	68e3      	ldr	r3, [r4, #12]
 800620a:	62cb      	str	r3, [r1, #44]	; 0x2c
 800620c:	6863      	ldr	r3, [r4, #4]
 800620e:	628b      	str	r3, [r1, #40]	; 0x28
 8006210:	e7c5      	b.n	800619e <HAL_TIM_PWM_Init+0x7a>
 8006212:	2001      	movs	r0, #1
 8006214:	4770      	bx	lr
 8006216:	bf00      	nop

08006218 <HAL_TIM_PWM_Start>:
 8006218:	bb71      	cbnz	r1, 8006278 <HAL_TIM_PWM_Start+0x60>
 800621a:	f890 303e 	ldrb.w	r3, [r0, #62]	; 0x3e
 800621e:	2b01      	cmp	r3, #1
 8006220:	d134      	bne.n	800628c <HAL_TIM_PWM_Start+0x74>
 8006222:	2302      	movs	r3, #2
 8006224:	f880 303e 	strb.w	r3, [r0, #62]	; 0x3e
 8006228:	6800      	ldr	r0, [r0, #0]
 800622a:	2301      	movs	r3, #1
 800622c:	6a02      	ldr	r2, [r0, #32]
 800622e:	f001 011f 	and.w	r1, r1, #31
 8006232:	fa03 f101 	lsl.w	r1, r3, r1
 8006236:	ea22 0201 	bic.w	r2, r2, r1
 800623a:	6202      	str	r2, [r0, #32]
 800623c:	6a02      	ldr	r2, [r0, #32]
 800623e:	f44f 5330 	mov.w	r3, #11264	; 0x2c00
 8006242:	f2c4 0301 	movt	r3, #16385	; 0x4001
 8006246:	4311      	orrs	r1, r2
 8006248:	4298      	cmp	r0, r3
 800624a:	6201      	str	r1, [r0, #32]
 800624c:	d020      	beq.n	8006290 <HAL_TIM_PWM_Start+0x78>
 800624e:	f44f 4380 	mov.w	r3, #16384	; 0x4000
 8006252:	f2c4 0301 	movt	r3, #16385	; 0x4001
 8006256:	4298      	cmp	r0, r3
 8006258:	d01a      	beq.n	8006290 <HAL_TIM_PWM_Start+0x78>
 800625a:	f44f 4388 	mov.w	r3, #17408	; 0x4400
 800625e:	f2c4 0301 	movt	r3, #16385	; 0x4001
 8006262:	4298      	cmp	r0, r3
 8006264:	d03e      	beq.n	80062e4 <HAL_TIM_PWM_Start+0xcc>
 8006266:	f1b0 4f80 	cmp.w	r0, #1073741824	; 0x40000000
 800626a:	d015      	beq.n	8006298 <HAL_TIM_PWM_Start+0x80>
 800626c:	6803      	ldr	r3, [r0, #0]
 800626e:	f043 0301 	orr.w	r3, r3, #1
 8006272:	6003      	str	r3, [r0, #0]
 8006274:	2000      	movs	r0, #0
 8006276:	4770      	bx	lr
 8006278:	2904      	cmp	r1, #4
 800627a:	d023      	beq.n	80062c4 <HAL_TIM_PWM_Start+0xac>
 800627c:	2908      	cmp	r1, #8
 800627e:	d029      	beq.n	80062d4 <HAL_TIM_PWM_Start+0xbc>
 8006280:	290c      	cmp	r1, #12
 8006282:	d115      	bne.n	80062b0 <HAL_TIM_PWM_Start+0x98>
 8006284:	f890 3041 	ldrb.w	r3, [r0, #65]	; 0x41
 8006288:	2b01      	cmp	r3, #1
 800628a:	d030      	beq.n	80062ee <HAL_TIM_PWM_Start+0xd6>
 800628c:	2001      	movs	r0, #1
 800628e:	4770      	bx	lr
 8006290:	6c43      	ldr	r3, [r0, #68]	; 0x44
 8006292:	f443 4300 	orr.w	r3, r3, #32768	; 0x8000
 8006296:	6443      	str	r3, [r0, #68]	; 0x44
 8006298:	6882      	ldr	r2, [r0, #8]
 800629a:	2307      	movs	r3, #7
 800629c:	f2c0 0301 	movt	r3, #1
 80062a0:	4013      	ands	r3, r2
 80062a2:	2b06      	cmp	r3, #6
 80062a4:	d002      	beq.n	80062ac <HAL_TIM_PWM_Start+0x94>
 80062a6:	f5b3 3f80 	cmp.w	r3, #65536	; 0x10000
 80062aa:	d1df      	bne.n	800626c <HAL_TIM_PWM_Start+0x54>
 80062ac:	2000      	movs	r0, #0
 80062ae:	4770      	bx	lr
 80062b0:	2910      	cmp	r1, #16
 80062b2:	d020      	beq.n	80062f6 <HAL_TIM_PWM_Start+0xde>
 80062b4:	f890 3043 	ldrb.w	r3, [r0, #67]	; 0x43
 80062b8:	2b01      	cmp	r3, #1
 80062ba:	d1e7      	bne.n	800628c <HAL_TIM_PWM_Start+0x74>
 80062bc:	2302      	movs	r3, #2
 80062be:	f880 3043 	strb.w	r3, [r0, #67]	; 0x43
 80062c2:	e7b1      	b.n	8006228 <HAL_TIM_PWM_Start+0x10>
 80062c4:	f890 303f 	ldrb.w	r3, [r0, #63]	; 0x3f
 80062c8:	2b01      	cmp	r3, #1
 80062ca:	d1df      	bne.n	800628c <HAL_TIM_PWM_Start+0x74>
 80062cc:	2302      	movs	r3, #2
 80062ce:	f880 303f 	strb.w	r3, [r0, #63]	; 0x3f
 80062d2:	e7a9      	b.n	8006228 <HAL_TIM_PWM_Start+0x10>
 80062d4:	f890 3040 	ldrb.w	r3, [r0, #64]	; 0x40
 80062d8:	2b01      	cmp	r3, #1
 80062da:	d1d7      	bne.n	800628c <HAL_TIM_PWM_Start+0x74>
 80062dc:	2302      	movs	r3, #2
 80062de:	f880 3040 	strb.w	r3, [r0, #64]	; 0x40
 80062e2:	e7a1      	b.n	8006228 <HAL_TIM_PWM_Start+0x10>
 80062e4:	6c43      	ldr	r3, [r0, #68]	; 0x44
 80062e6:	f443 4300 	orr.w	r3, r3, #32768	; 0x8000
 80062ea:	6443      	str	r3, [r0, #68]	; 0x44
 80062ec:	e7be      	b.n	800626c <HAL_TIM_PWM_Start+0x54>
 80062ee:	2302      	movs	r3, #2
 80062f0:	f880 3041 	strb.w	r3, [r0, #65]	; 0x41
 80062f4:	e798      	b.n	8006228 <HAL_TIM_PWM_Start+0x10>
 80062f6:	f890 3042 	ldrb.w	r3, [r0, #66]	; 0x42
 80062fa:	2b01      	cmp	r3, #1
 80062fc:	d1c6      	bne.n	800628c <HAL_TIM_PWM_Start+0x74>
 80062fe:	2302      	movs	r3, #2
 8006300:	f880 3042 	strb.w	r3, [r0, #66]	; 0x42
 8006304:	e790      	b.n	8006228 <HAL_TIM_PWM_Start+0x10>
 8006306:	bf00      	nop

08006308 <HAL_TIM_PWM_Stop>:
 8006308:	6803      	ldr	r3, [r0, #0]
 800630a:	b430      	push	{r4, r5}
 800630c:	6a1a      	ldr	r2, [r3, #32]
 800630e:	f001 051f 	and.w	r5, r1, #31
 8006312:	2401      	movs	r4, #1
 8006314:	40ac      	lsls	r4, r5
 8006316:	ea22 0204 	bic.w	r2, r2, r4
 800631a:	621a      	str	r2, [r3, #32]
 800631c:	f44f 5230 	mov.w	r2, #11264	; 0x2c00
 8006320:	f2c4 0201 	movt	r2, #16385	; 0x4001
 8006324:	6a1c      	ldr	r4, [r3, #32]
 8006326:	621c      	str	r4, [r3, #32]
 8006328:	4293      	cmp	r3, r2
 800632a:	d01c      	beq.n	8006366 <HAL_TIM_PWM_Stop+0x5e>
 800632c:	f44f 4280 	mov.w	r2, #16384	; 0x4000
 8006330:	f2c4 0201 	movt	r2, #16385	; 0x4001
 8006334:	4293      	cmp	r3, r2
 8006336:	d016      	beq.n	8006366 <HAL_TIM_PWM_Stop+0x5e>
 8006338:	f44f 4288 	mov.w	r2, #17408	; 0x4400
 800633c:	f2c4 0201 	movt	r2, #16385	; 0x4001
 8006340:	4293      	cmp	r3, r2
 8006342:	d010      	beq.n	8006366 <HAL_TIM_PWM_Stop+0x5e>
 8006344:	6a1c      	ldr	r4, [r3, #32]
 8006346:	f241 1211 	movw	r2, #4369	; 0x1111
 800634a:	4214      	tst	r4, r2
 800634c:	d104      	bne.n	8006358 <HAL_TIM_PWM_Stop+0x50>
 800634e:	6a1c      	ldr	r4, [r3, #32]
 8006350:	f240 4244 	movw	r2, #1092	; 0x444
 8006354:	4214      	tst	r4, r2
 8006356:	d024      	beq.n	80063a2 <HAL_TIM_PWM_Stop+0x9a>
 8006358:	2301      	movs	r3, #1
 800635a:	b999      	cbnz	r1, 8006384 <HAL_TIM_PWM_Stop+0x7c>
 800635c:	f880 303e 	strb.w	r3, [r0, #62]	; 0x3e
 8006360:	2000      	movs	r0, #0
 8006362:	bc30      	pop	{r4, r5}
 8006364:	4770      	bx	lr
 8006366:	6a1c      	ldr	r4, [r3, #32]
 8006368:	f241 1211 	movw	r2, #4369	; 0x1111
 800636c:	4214      	tst	r4, r2
 800636e:	d1e9      	bne.n	8006344 <HAL_TIM_PWM_Stop+0x3c>
 8006370:	6a1c      	ldr	r4, [r3, #32]
 8006372:	f240 4244 	movw	r2, #1092	; 0x444
 8006376:	4214      	tst	r4, r2
 8006378:	d1e4      	bne.n	8006344 <HAL_TIM_PWM_Stop+0x3c>
 800637a:	6c5a      	ldr	r2, [r3, #68]	; 0x44
 800637c:	f422 4200 	bic.w	r2, r2, #32768	; 0x8000
 8006380:	645a      	str	r2, [r3, #68]	; 0x44
 8006382:	e7df      	b.n	8006344 <HAL_TIM_PWM_Stop+0x3c>
 8006384:	2904      	cmp	r1, #4
 8006386:	d011      	beq.n	80063ac <HAL_TIM_PWM_Stop+0xa4>
 8006388:	2908      	cmp	r1, #8
 800638a:	d017      	beq.n	80063bc <HAL_TIM_PWM_Stop+0xb4>
 800638c:	290c      	cmp	r1, #12
 800638e:	d012      	beq.n	80063b6 <HAL_TIM_PWM_Stop+0xae>
 8006390:	2910      	cmp	r1, #16
 8006392:	bf0c      	ite	eq
 8006394:	f880 3042 	strbeq.w	r3, [r0, #66]	; 0x42
 8006398:	f880 3043 	strbne.w	r3, [r0, #67]	; 0x43
 800639c:	bc30      	pop	{r4, r5}
 800639e:	2000      	movs	r0, #0
 80063a0:	4770      	bx	lr
 80063a2:	681a      	ldr	r2, [r3, #0]
 80063a4:	f022 0201 	bic.w	r2, r2, #1
 80063a8:	601a      	str	r2, [r3, #0]
 80063aa:	e7d5      	b.n	8006358 <HAL_TIM_PWM_Stop+0x50>
 80063ac:	f880 303f 	strb.w	r3, [r0, #63]	; 0x3f
 80063b0:	bc30      	pop	{r4, r5}
 80063b2:	2000      	movs	r0, #0
 80063b4:	4770      	bx	lr
 80063b6:	f880 3041 	strb.w	r3, [r0, #65]	; 0x41
 80063ba:	e7d1      	b.n	8006360 <HAL_TIM_PWM_Stop+0x58>
 80063bc:	f880 3040 	strb.w	r3, [r0, #64]	; 0x40
 80063c0:	bc30      	pop	{r4, r5}
 80063c2:	2000      	movs	r0, #0
 80063c4:	4770      	bx	lr
 80063c6:	bf00      	nop

080063c8 <HAL_TIM_PWM_ConfigChannel>:
 80063c8:	f890 303c 	ldrb.w	r3, [r0, #60]	; 0x3c
 80063cc:	2b01      	cmp	r3, #1
 80063ce:	f000 81e6 	beq.w	800679e <HAL_TIM_PWM_ConfigChannel+0x3d6>
 80063d2:	2301      	movs	r3, #1
 80063d4:	b4f0      	push	{r4, r5, r6, r7}
 80063d6:	f880 303c 	strb.w	r3, [r0, #60]	; 0x3c
 80063da:	2a14      	cmp	r2, #20
 80063dc:	d816      	bhi.n	800640c <HAL_TIM_PWM_ConfigChannel+0x44>
 80063de:	e8df f012 	tbh	[pc, r2, lsl #1]
 80063e2:	005e      	.short	0x005e
 80063e4:	00150015 	.word	0x00150015
 80063e8:	009e0015 	.word	0x009e0015
 80063ec:	00150015 	.word	0x00150015
 80063f0:	00e00015 	.word	0x00e00015
 80063f4:	00150015 	.word	0x00150015
 80063f8:	01210015 	.word	0x01210015
 80063fc:	00150015 	.word	0x00150015
 8006400:	01630015 	.word	0x01630015
 8006404:	00150015 	.word	0x00150015
 8006408:	001c0015 	.word	0x001c0015
 800640c:	2200      	movs	r2, #0
 800640e:	f880 203c 	strb.w	r2, [r0, #60]	; 0x3c
 8006412:	2301      	movs	r3, #1
 8006414:	4618      	mov	r0, r3
 8006416:	bcf0      	pop	{r4, r5, r6, r7}
 8006418:	4770      	bx	lr
 800641a:	6803      	ldr	r3, [r0, #0]
 800641c:	688e      	ldr	r6, [r1, #8]
 800641e:	6a1d      	ldr	r5, [r3, #32]
 8006420:	680f      	ldr	r7, [r1, #0]
 8006422:	f425 1580 	bic.w	r5, r5, #1048576	; 0x100000
 8006426:	621d      	str	r5, [r3, #32]
 8006428:	6a1c      	ldr	r4, [r3, #32]
 800642a:	685d      	ldr	r5, [r3, #4]
 800642c:	6d5a      	ldr	r2, [r3, #84]	; 0x54
 800642e:	f424 1400 	bic.w	r4, r4, #2097152	; 0x200000
 8006432:	ea44 5406 	orr.w	r4, r4, r6, lsl #20
 8006436:	f44f 5630 	mov.w	r6, #11264	; 0x2c00
 800643a:	f022 7280 	bic.w	r2, r2, #16777216	; 0x1000000
 800643e:	f2c4 0601 	movt	r6, #16385	; 0x4001
 8006442:	f422 42e0 	bic.w	r2, r2, #28672	; 0x7000
 8006446:	42b3      	cmp	r3, r6
 8006448:	ea42 2207 	orr.w	r2, r2, r7, lsl #8
 800644c:	f000 81a1 	beq.w	8006792 <HAL_TIM_PWM_ConfigChannel+0x3ca>
 8006450:	f44f 4680 	mov.w	r6, #16384	; 0x4000
 8006454:	f2c4 0601 	movt	r6, #16385	; 0x4001
 8006458:	42b3      	cmp	r3, r6
 800645a:	f000 819a 	beq.w	8006792 <HAL_TIM_PWM_ConfigChannel+0x3ca>
 800645e:	f44f 4688 	mov.w	r6, #17408	; 0x4400
 8006462:	f2c4 0601 	movt	r6, #16385	; 0x4001
 8006466:	42b3      	cmp	r3, r6
 8006468:	f000 8193 	beq.w	8006792 <HAL_TIM_PWM_ConfigChannel+0x3ca>
 800646c:	684e      	ldr	r6, [r1, #4]
 800646e:	605d      	str	r5, [r3, #4]
 8006470:	655a      	str	r2, [r3, #84]	; 0x54
 8006472:	65de      	str	r6, [r3, #92]	; 0x5c
 8006474:	621c      	str	r4, [r3, #32]
 8006476:	6d5c      	ldr	r4, [r3, #84]	; 0x54
 8006478:	690d      	ldr	r5, [r1, #16]
 800647a:	f444 6400 	orr.w	r4, r4, #2048	; 0x800
 800647e:	655c      	str	r4, [r3, #84]	; 0x54
 8006480:	6d59      	ldr	r1, [r3, #84]	; 0x54
 8006482:	f421 6180 	bic.w	r1, r1, #1024	; 0x400
 8006486:	6559      	str	r1, [r3, #84]	; 0x54
 8006488:	6d5a      	ldr	r2, [r3, #84]	; 0x54
 800648a:	ea42 2205 	orr.w	r2, r2, r5, lsl #8
 800648e:	655a      	str	r2, [r3, #84]	; 0x54
 8006490:	2200      	movs	r2, #0
 8006492:	f880 203c 	strb.w	r2, [r0, #60]	; 0x3c
 8006496:	2300      	movs	r3, #0
 8006498:	4618      	mov	r0, r3
 800649a:	bcf0      	pop	{r4, r5, r6, r7}
 800649c:	4770      	bx	lr
 800649e:	6803      	ldr	r3, [r0, #0]
 80064a0:	688e      	ldr	r6, [r1, #8]
 80064a2:	6a1d      	ldr	r5, [r3, #32]
 80064a4:	680f      	ldr	r7, [r1, #0]
 80064a6:	f025 0501 	bic.w	r5, r5, #1
 80064aa:	621d      	str	r5, [r3, #32]
 80064ac:	6a1a      	ldr	r2, [r3, #32]
 80064ae:	685d      	ldr	r5, [r3, #4]
 80064b0:	699c      	ldr	r4, [r3, #24]
 80064b2:	f022 0202 	bic.w	r2, r2, #2
 80064b6:	4332      	orrs	r2, r6
 80064b8:	f44f 5630 	mov.w	r6, #11264	; 0x2c00
 80064bc:	f424 3480 	bic.w	r4, r4, #65536	; 0x10000
 80064c0:	f2c4 0601 	movt	r6, #16385	; 0x4001
 80064c4:	f024 0473 	bic.w	r4, r4, #115	; 0x73
 80064c8:	42b3      	cmp	r3, r6
 80064ca:	ea44 0407 	orr.w	r4, r4, r7
 80064ce:	f000 8147 	beq.w	8006760 <HAL_TIM_PWM_ConfigChannel+0x398>
 80064d2:	f44f 4680 	mov.w	r6, #16384	; 0x4000
 80064d6:	f2c4 0601 	movt	r6, #16385	; 0x4001
 80064da:	42b3      	cmp	r3, r6
 80064dc:	f000 8140 	beq.w	8006760 <HAL_TIM_PWM_ConfigChannel+0x398>
 80064e0:	f44f 4688 	mov.w	r6, #17408	; 0x4400
 80064e4:	f2c4 0601 	movt	r6, #16385	; 0x4001
 80064e8:	42b3      	cmp	r3, r6
 80064ea:	f000 8139 	beq.w	8006760 <HAL_TIM_PWM_ConfigChannel+0x398>
 80064ee:	684e      	ldr	r6, [r1, #4]
 80064f0:	605d      	str	r5, [r3, #4]
 80064f2:	619c      	str	r4, [r3, #24]
 80064f4:	635e      	str	r6, [r3, #52]	; 0x34
 80064f6:	621a      	str	r2, [r3, #32]
 80064f8:	699c      	ldr	r4, [r3, #24]
 80064fa:	690d      	ldr	r5, [r1, #16]
 80064fc:	f044 0408 	orr.w	r4, r4, #8
 8006500:	619c      	str	r4, [r3, #24]
 8006502:	6999      	ldr	r1, [r3, #24]
 8006504:	f021 0104 	bic.w	r1, r1, #4
 8006508:	6199      	str	r1, [r3, #24]
 800650a:	699a      	ldr	r2, [r3, #24]
 800650c:	432a      	orrs	r2, r5
 800650e:	619a      	str	r2, [r3, #24]
 8006510:	2200      	movs	r2, #0
 8006512:	f880 203c 	strb.w	r2, [r0, #60]	; 0x3c
 8006516:	2300      	movs	r3, #0
 8006518:	4618      	mov	r0, r3
 800651a:	bcf0      	pop	{r4, r5, r6, r7}
 800651c:	4770      	bx	lr
 800651e:	6803      	ldr	r3, [r0, #0]
 8006520:	688e      	ldr	r6, [r1, #8]
 8006522:	6a1d      	ldr	r5, [r3, #32]
 8006524:	680f      	ldr	r7, [r1, #0]
 8006526:	f025 0510 	bic.w	r5, r5, #16
 800652a:	621d      	str	r5, [r3, #32]
 800652c:	6a1c      	ldr	r4, [r3, #32]
 800652e:	685d      	ldr	r5, [r3, #4]
 8006530:	699a      	ldr	r2, [r3, #24]
 8006532:	f024 0420 	bic.w	r4, r4, #32
 8006536:	ea44 1406 	orr.w	r4, r4, r6, lsl #4
 800653a:	f44f 5630 	mov.w	r6, #11264	; 0x2c00
 800653e:	f022 7280 	bic.w	r2, r2, #16777216	; 0x1000000
 8006542:	f2c4 0601 	movt	r6, #16385	; 0x4001
 8006546:	f422 42e6 	bic.w	r2, r2, #29440	; 0x7300
 800654a:	42b3      	cmp	r3, r6
 800654c:	ea42 2207 	orr.w	r2, r2, r7, lsl #8
 8006550:	f000 80f7 	beq.w	8006742 <HAL_TIM_PWM_ConfigChannel+0x37a>
 8006554:	f44f 4680 	mov.w	r6, #16384	; 0x4000
 8006558:	f2c4 0601 	movt	r6, #16385	; 0x4001
 800655c:	42b3      	cmp	r3, r6
 800655e:	f000 80f7 	beq.w	8006750 <HAL_TIM_PWM_ConfigChannel+0x388>
 8006562:	f44f 4688 	mov.w	r6, #17408	; 0x4400
 8006566:	f2c4 0601 	movt	r6, #16385	; 0x4001
 800656a:	42b3      	cmp	r3, r6
 800656c:	f000 80f0 	beq.w	8006750 <HAL_TIM_PWM_ConfigChannel+0x388>
 8006570:	684e      	ldr	r6, [r1, #4]
 8006572:	605d      	str	r5, [r3, #4]
 8006574:	619a      	str	r2, [r3, #24]
 8006576:	639e      	str	r6, [r3, #56]	; 0x38
 8006578:	621c      	str	r4, [r3, #32]
 800657a:	699c      	ldr	r4, [r3, #24]
 800657c:	690d      	ldr	r5, [r1, #16]
 800657e:	f444 6400 	orr.w	r4, r4, #2048	; 0x800
 8006582:	619c      	str	r4, [r3, #24]
 8006584:	6999      	ldr	r1, [r3, #24]
 8006586:	f421 6180 	bic.w	r1, r1, #1024	; 0x400
 800658a:	6199      	str	r1, [r3, #24]
 800658c:	699a      	ldr	r2, [r3, #24]
 800658e:	ea42 2205 	orr.w	r2, r2, r5, lsl #8
 8006592:	619a      	str	r2, [r3, #24]
 8006594:	2200      	movs	r2, #0
 8006596:	f880 203c 	strb.w	r2, [r0, #60]	; 0x3c
 800659a:	2300      	movs	r3, #0
 800659c:	4618      	mov	r0, r3
 800659e:	bcf0      	pop	{r4, r5, r6, r7}
 80065a0:	4770      	bx	lr
 80065a2:	6803      	ldr	r3, [r0, #0]
 80065a4:	688e      	ldr	r6, [r1, #8]
 80065a6:	6a1d      	ldr	r5, [r3, #32]
 80065a8:	680f      	ldr	r7, [r1, #0]
 80065aa:	f425 7580 	bic.w	r5, r5, #256	; 0x100
 80065ae:	621d      	str	r5, [r3, #32]
 80065b0:	6a1c      	ldr	r4, [r3, #32]
 80065b2:	685d      	ldr	r5, [r3, #4]
 80065b4:	69da      	ldr	r2, [r3, #28]
 80065b6:	f424 7400 	bic.w	r4, r4, #512	; 0x200
 80065ba:	ea44 2406 	orr.w	r4, r4, r6, lsl #8
 80065be:	f44f 5630 	mov.w	r6, #11264	; 0x2c00
 80065c2:	f422 3280 	bic.w	r2, r2, #65536	; 0x10000
 80065c6:	f2c4 0601 	movt	r6, #16385	; 0x4001
 80065ca:	f022 0273 	bic.w	r2, r2, #115	; 0x73
 80065ce:	42b3      	cmp	r3, r6
 80065d0:	ea42 0207 	orr.w	r2, r2, r7
 80065d4:	f000 80a6 	beq.w	8006724 <HAL_TIM_PWM_ConfigChannel+0x35c>
 80065d8:	f44f 4680 	mov.w	r6, #16384	; 0x4000
 80065dc:	f2c4 0601 	movt	r6, #16385	; 0x4001
 80065e0:	42b3      	cmp	r3, r6
 80065e2:	f000 80a6 	beq.w	8006732 <HAL_TIM_PWM_ConfigChannel+0x36a>
 80065e6:	f44f 4688 	mov.w	r6, #17408	; 0x4400
 80065ea:	f2c4 0601 	movt	r6, #16385	; 0x4001
 80065ee:	42b3      	cmp	r3, r6
 80065f0:	f000 809f 	beq.w	8006732 <HAL_TIM_PWM_ConfigChannel+0x36a>
 80065f4:	684e      	ldr	r6, [r1, #4]
 80065f6:	605d      	str	r5, [r3, #4]
 80065f8:	61da      	str	r2, [r3, #28]
 80065fa:	63de      	str	r6, [r3, #60]	; 0x3c
 80065fc:	621c      	str	r4, [r3, #32]
 80065fe:	69dc      	ldr	r4, [r3, #28]
 8006600:	690d      	ldr	r5, [r1, #16]
 8006602:	f044 0408 	orr.w	r4, r4, #8
 8006606:	61dc      	str	r4, [r3, #28]
 8006608:	69d9      	ldr	r1, [r3, #28]
 800660a:	f021 0104 	bic.w	r1, r1, #4
 800660e:	61d9      	str	r1, [r3, #28]
 8006610:	69da      	ldr	r2, [r3, #28]
 8006612:	432a      	orrs	r2, r5
 8006614:	61da      	str	r2, [r3, #28]
 8006616:	2200      	movs	r2, #0
 8006618:	f880 203c 	strb.w	r2, [r0, #60]	; 0x3c
 800661c:	2300      	movs	r3, #0
 800661e:	4618      	mov	r0, r3
 8006620:	bcf0      	pop	{r4, r5, r6, r7}
 8006622:	4770      	bx	lr
 8006624:	6803      	ldr	r3, [r0, #0]
 8006626:	688e      	ldr	r6, [r1, #8]
 8006628:	6a1d      	ldr	r5, [r3, #32]
 800662a:	680f      	ldr	r7, [r1, #0]
 800662c:	f425 5580 	bic.w	r5, r5, #4096	; 0x1000
 8006630:	621d      	str	r5, [r3, #32]
 8006632:	6a1c      	ldr	r4, [r3, #32]
 8006634:	685d      	ldr	r5, [r3, #4]
 8006636:	69da      	ldr	r2, [r3, #28]
 8006638:	f424 5400 	bic.w	r4, r4, #8192	; 0x2000
 800663c:	ea44 3406 	orr.w	r4, r4, r6, lsl #12
 8006640:	f44f 5630 	mov.w	r6, #11264	; 0x2c00
 8006644:	f022 7280 	bic.w	r2, r2, #16777216	; 0x1000000
 8006648:	f2c4 0601 	movt	r6, #16385	; 0x4001
 800664c:	f422 42e6 	bic.w	r2, r2, #29440	; 0x7300
 8006650:	42b3      	cmp	r3, r6
 8006652:	ea42 2207 	orr.w	r2, r2, r7, lsl #8
 8006656:	f000 8096 	beq.w	8006786 <HAL_TIM_PWM_ConfigChannel+0x3be>
 800665a:	f44f 4680 	mov.w	r6, #16384	; 0x4000
 800665e:	f2c4 0601 	movt	r6, #16385	; 0x4001
 8006662:	42b3      	cmp	r3, r6
 8006664:	f000 808f 	beq.w	8006786 <HAL_TIM_PWM_ConfigChannel+0x3be>
 8006668:	f44f 4688 	mov.w	r6, #17408	; 0x4400
 800666c:	f2c4 0601 	movt	r6, #16385	; 0x4001
 8006670:	42b3      	cmp	r3, r6
 8006672:	f000 8088 	beq.w	8006786 <HAL_TIM_PWM_ConfigChannel+0x3be>
 8006676:	684e      	ldr	r6, [r1, #4]
 8006678:	605d      	str	r5, [r3, #4]
 800667a:	61da      	str	r2, [r3, #28]
 800667c:	641e      	str	r6, [r3, #64]	; 0x40
 800667e:	621c      	str	r4, [r3, #32]
 8006680:	69dc      	ldr	r4, [r3, #28]
 8006682:	690d      	ldr	r5, [r1, #16]
 8006684:	f444 6400 	orr.w	r4, r4, #2048	; 0x800
 8006688:	61dc      	str	r4, [r3, #28]
 800668a:	69d9      	ldr	r1, [r3, #28]
 800668c:	f421 6180 	bic.w	r1, r1, #1024	; 0x400
 8006690:	61d9      	str	r1, [r3, #28]
 8006692:	69da      	ldr	r2, [r3, #28]
 8006694:	ea42 2205 	orr.w	r2, r2, r5, lsl #8
 8006698:	61da      	str	r2, [r3, #28]
 800669a:	2200      	movs	r2, #0
 800669c:	f880 203c 	strb.w	r2, [r0, #60]	; 0x3c
 80066a0:	2300      	movs	r3, #0
 80066a2:	4618      	mov	r0, r3
 80066a4:	bcf0      	pop	{r4, r5, r6, r7}
 80066a6:	4770      	bx	lr
 80066a8:	6803      	ldr	r3, [r0, #0]
 80066aa:	688e      	ldr	r6, [r1, #8]
 80066ac:	6a1d      	ldr	r5, [r3, #32]
 80066ae:	680f      	ldr	r7, [r1, #0]
 80066b0:	f425 3580 	bic.w	r5, r5, #65536	; 0x10000
 80066b4:	621d      	str	r5, [r3, #32]
 80066b6:	6a1c      	ldr	r4, [r3, #32]
 80066b8:	685d      	ldr	r5, [r3, #4]
 80066ba:	6d5a      	ldr	r2, [r3, #84]	; 0x54
 80066bc:	f424 3400 	bic.w	r4, r4, #131072	; 0x20000
 80066c0:	ea44 4406 	orr.w	r4, r4, r6, lsl #16
 80066c4:	f44f 5630 	mov.w	r6, #11264	; 0x2c00
 80066c8:	f422 3280 	bic.w	r2, r2, #65536	; 0x10000
 80066cc:	f2c4 0601 	movt	r6, #16385	; 0x4001
 80066d0:	f022 0270 	bic.w	r2, r2, #112	; 0x70
 80066d4:	42b3      	cmp	r3, r6
 80066d6:	ea42 0207 	orr.w	r2, r2, r7
 80066da:	d04e      	beq.n	800677a <HAL_TIM_PWM_ConfigChannel+0x3b2>
 80066dc:	f44f 4680 	mov.w	r6, #16384	; 0x4000
 80066e0:	f2c4 0601 	movt	r6, #16385	; 0x4001
 80066e4:	42b3      	cmp	r3, r6
 80066e6:	d048      	beq.n	800677a <HAL_TIM_PWM_ConfigChannel+0x3b2>
 80066e8:	f44f 4688 	mov.w	r6, #17408	; 0x4400
 80066ec:	f2c4 0601 	movt	r6, #16385	; 0x4001
 80066f0:	42b3      	cmp	r3, r6
 80066f2:	d042      	beq.n	800677a <HAL_TIM_PWM_ConfigChannel+0x3b2>
 80066f4:	684e      	ldr	r6, [r1, #4]
 80066f6:	605d      	str	r5, [r3, #4]
 80066f8:	655a      	str	r2, [r3, #84]	; 0x54
 80066fa:	659e      	str	r6, [r3, #88]	; 0x58
 80066fc:	621c      	str	r4, [r3, #32]
 80066fe:	6d5c      	ldr	r4, [r3, #84]	; 0x54
 8006700:	690d      	ldr	r5, [r1, #16]
 8006702:	f044 0408 	orr.w	r4, r4, #8
 8006706:	655c      	str	r4, [r3, #84]	; 0x54
 8006708:	6d59      	ldr	r1, [r3, #84]	; 0x54
 800670a:	f021 0104 	bic.w	r1, r1, #4
 800670e:	6559      	str	r1, [r3, #84]	; 0x54
 8006710:	6d5a      	ldr	r2, [r3, #84]	; 0x54
 8006712:	432a      	orrs	r2, r5
 8006714:	655a      	str	r2, [r3, #84]	; 0x54
 8006716:	2200      	movs	r2, #0
 8006718:	f880 203c 	strb.w	r2, [r0, #60]	; 0x3c
 800671c:	2300      	movs	r3, #0
 800671e:	4618      	mov	r0, r3
 8006720:	bcf0      	pop	{r4, r5, r6, r7}
 8006722:	4770      	bx	lr
 8006724:	68ce      	ldr	r6, [r1, #12]
 8006726:	f424 6400 	bic.w	r4, r4, #2048	; 0x800
 800672a:	ea44 2406 	orr.w	r4, r4, r6, lsl #8
 800672e:	f424 6480 	bic.w	r4, r4, #1024	; 0x400
 8006732:	e9d1 6705 	ldrd	r6, r7, [r1, #20]
 8006736:	f425 5540 	bic.w	r5, r5, #12288	; 0x3000
 800673a:	433e      	orrs	r6, r7
 800673c:	ea45 1506 	orr.w	r5, r5, r6, lsl #4
 8006740:	e758      	b.n	80065f4 <HAL_TIM_PWM_ConfigChannel+0x22c>
 8006742:	68ce      	ldr	r6, [r1, #12]
 8006744:	f024 0480 	bic.w	r4, r4, #128	; 0x80
 8006748:	ea44 1406 	orr.w	r4, r4, r6, lsl #4
 800674c:	f024 0440 	bic.w	r4, r4, #64	; 0x40
 8006750:	e9d1 6705 	ldrd	r6, r7, [r1, #20]
 8006754:	f425 6540 	bic.w	r5, r5, #3072	; 0xc00
 8006758:	433e      	orrs	r6, r7
 800675a:	ea45 0586 	orr.w	r5, r5, r6, lsl #2
 800675e:	e707      	b.n	8006570 <HAL_TIM_PWM_ConfigChannel+0x1a8>
 8006760:	68ce      	ldr	r6, [r1, #12]
 8006762:	f022 0208 	bic.w	r2, r2, #8
 8006766:	4332      	orrs	r2, r6
 8006768:	e9d1 6705 	ldrd	r6, r7, [r1, #20]
 800676c:	f425 7540 	bic.w	r5, r5, #768	; 0x300
 8006770:	433e      	orrs	r6, r7
 8006772:	f022 0204 	bic.w	r2, r2, #4
 8006776:	4335      	orrs	r5, r6
 8006778:	e6b9      	b.n	80064ee <HAL_TIM_PWM_ConfigChannel+0x126>
 800677a:	694e      	ldr	r6, [r1, #20]
 800677c:	f425 3580 	bic.w	r5, r5, #65536	; 0x10000
 8006780:	ea45 2506 	orr.w	r5, r5, r6, lsl #8
 8006784:	e7b6      	b.n	80066f4 <HAL_TIM_PWM_ConfigChannel+0x32c>
 8006786:	694e      	ldr	r6, [r1, #20]
 8006788:	f425 4580 	bic.w	r5, r5, #16384	; 0x4000
 800678c:	ea45 1586 	orr.w	r5, r5, r6, lsl #6
 8006790:	e771      	b.n	8006676 <HAL_TIM_PWM_ConfigChannel+0x2ae>
 8006792:	694e      	ldr	r6, [r1, #20]
 8006794:	f425 2580 	bic.w	r5, r5, #262144	; 0x40000
 8006798:	ea45 2586 	orr.w	r5, r5, r6, lsl #10
 800679c:	e666      	b.n	800646c <HAL_TIM_PWM_ConfigChannel+0xa4>
 800679e:	2302      	movs	r3, #2
 80067a0:	4618      	mov	r0, r3
 80067a2:	4770      	bx	lr

080067a4 <HAL_TIM_OC_DelayElapsedCallback>:
 80067a4:	4770      	bx	lr
 80067a6:	bf00      	nop

080067a8 <HAL_TIM_IC_CaptureCallback>:
 80067a8:	4770      	bx	lr
 80067aa:	bf00      	nop

080067ac <HAL_TIM_PWM_PulseFinishedCallback>:
 80067ac:	4770      	bx	lr
 80067ae:	bf00      	nop

080067b0 <HAL_TIM_TriggerCallback>:
 80067b0:	4770      	bx	lr
 80067b2:	bf00      	nop

080067b4 <HAL_TIM_IRQHandler>:
 80067b4:	6803      	ldr	r3, [r0, #0]
 80067b6:	691a      	ldr	r2, [r3, #16]
 80067b8:	0791      	lsls	r1, r2, #30
 80067ba:	b510      	push	{r4, lr}
 80067bc:	4604      	mov	r4, r0
 80067be:	d502      	bpl.n	80067c6 <HAL_TIM_IRQHandler+0x12>
 80067c0:	68da      	ldr	r2, [r3, #12]
 80067c2:	0792      	lsls	r2, r2, #30
 80067c4:	d468      	bmi.n	8006898 <HAL_TIM_IRQHandler+0xe4>
 80067c6:	691a      	ldr	r2, [r3, #16]
 80067c8:	0752      	lsls	r2, r2, #29
 80067ca:	d502      	bpl.n	80067d2 <HAL_TIM_IRQHandler+0x1e>
 80067cc:	68da      	ldr	r2, [r3, #12]
 80067ce:	0750      	lsls	r0, r2, #29
 80067d0:	d44f      	bmi.n	8006872 <HAL_TIM_IRQHandler+0xbe>
 80067d2:	691a      	ldr	r2, [r3, #16]
 80067d4:	0711      	lsls	r1, r2, #28
 80067d6:	d502      	bpl.n	80067de <HAL_TIM_IRQHandler+0x2a>
 80067d8:	68da      	ldr	r2, [r3, #12]
 80067da:	0712      	lsls	r2, r2, #28
 80067dc:	d437      	bmi.n	800684e <HAL_TIM_IRQHandler+0x9a>
 80067de:	691a      	ldr	r2, [r3, #16]
 80067e0:	06d0      	lsls	r0, r2, #27
 80067e2:	d502      	bpl.n	80067ea <HAL_TIM_IRQHandler+0x36>
 80067e4:	68da      	ldr	r2, [r3, #12]
 80067e6:	06d1      	lsls	r1, r2, #27
 80067e8:	d41e      	bmi.n	8006828 <HAL_TIM_IRQHandler+0x74>
 80067ea:	691a      	ldr	r2, [r3, #16]
 80067ec:	07d2      	lsls	r2, r2, #31
 80067ee:	d502      	bpl.n	80067f6 <HAL_TIM_IRQHandler+0x42>
 80067f0:	68da      	ldr	r2, [r3, #12]
 80067f2:	07d0      	lsls	r0, r2, #31
 80067f4:	d469      	bmi.n	80068ca <HAL_TIM_IRQHandler+0x116>
 80067f6:	691a      	ldr	r2, [r3, #16]
 80067f8:	0611      	lsls	r1, r2, #24
 80067fa:	d502      	bpl.n	8006802 <HAL_TIM_IRQHandler+0x4e>
 80067fc:	68da      	ldr	r2, [r3, #12]
 80067fe:	0612      	lsls	r2, r2, #24
 8006800:	d46b      	bmi.n	80068da <HAL_TIM_IRQHandler+0x126>
 8006802:	691a      	ldr	r2, [r3, #16]
 8006804:	05d0      	lsls	r0, r2, #23
 8006806:	d502      	bpl.n	800680e <HAL_TIM_IRQHandler+0x5a>
 8006808:	68da      	ldr	r2, [r3, #12]
 800680a:	0611      	lsls	r1, r2, #24
 800680c:	d46d      	bmi.n	80068ea <HAL_TIM_IRQHandler+0x136>
 800680e:	691a      	ldr	r2, [r3, #16]
 8006810:	0652      	lsls	r2, r2, #25
 8006812:	d502      	bpl.n	800681a <HAL_TIM_IRQHandler+0x66>
 8006814:	68da      	ldr	r2, [r3, #12]
 8006816:	0650      	lsls	r0, r2, #25
 8006818:	d46f      	bmi.n	80068fa <HAL_TIM_IRQHandler+0x146>
 800681a:	691a      	ldr	r2, [r3, #16]
 800681c:	0691      	lsls	r1, r2, #26
 800681e:	d502      	bpl.n	8006826 <HAL_TIM_IRQHandler+0x72>
 8006820:	68da      	ldr	r2, [r3, #12]
 8006822:	0692      	lsls	r2, r2, #26
 8006824:	d449      	bmi.n	80068ba <HAL_TIM_IRQHandler+0x106>
 8006826:	bd10      	pop	{r4, pc}
 8006828:	f06f 0110 	mvn.w	r1, #16
 800682c:	2208      	movs	r2, #8
 800682e:	6119      	str	r1, [r3, #16]
 8006830:	7722      	strb	r2, [r4, #28]
 8006832:	69db      	ldr	r3, [r3, #28]
 8006834:	f413 7f40 	tst.w	r3, #768	; 0x300
 8006838:	4620      	mov	r0, r4
 800683a:	d16f      	bne.n	800691c <HAL_TIM_IRQHandler+0x168>
 800683c:	f7ff ffb2 	bl	80067a4 <HAL_TIM_OC_DelayElapsedCallback>
 8006840:	4620      	mov	r0, r4
 8006842:	f7ff ffb3 	bl	80067ac <HAL_TIM_PWM_PulseFinishedCallback>
 8006846:	2200      	movs	r2, #0
 8006848:	6823      	ldr	r3, [r4, #0]
 800684a:	7722      	strb	r2, [r4, #28]
 800684c:	e7cd      	b.n	80067ea <HAL_TIM_IRQHandler+0x36>
 800684e:	f06f 0108 	mvn.w	r1, #8
 8006852:	2204      	movs	r2, #4
 8006854:	6119      	str	r1, [r3, #16]
 8006856:	7722      	strb	r2, [r4, #28]
 8006858:	69db      	ldr	r3, [r3, #28]
 800685a:	079b      	lsls	r3, r3, #30
 800685c:	4620      	mov	r0, r4
 800685e:	d15a      	bne.n	8006916 <HAL_TIM_IRQHandler+0x162>
 8006860:	f7ff ffa0 	bl	80067a4 <HAL_TIM_OC_DelayElapsedCallback>
 8006864:	4620      	mov	r0, r4
 8006866:	f7ff ffa1 	bl	80067ac <HAL_TIM_PWM_PulseFinishedCallback>
 800686a:	2200      	movs	r2, #0
 800686c:	6823      	ldr	r3, [r4, #0]
 800686e:	7722      	strb	r2, [r4, #28]
 8006870:	e7b5      	b.n	80067de <HAL_TIM_IRQHandler+0x2a>
 8006872:	f06f 0104 	mvn.w	r1, #4
 8006876:	2202      	movs	r2, #2
 8006878:	6119      	str	r1, [r3, #16]
 800687a:	7722      	strb	r2, [r4, #28]
 800687c:	699b      	ldr	r3, [r3, #24]
 800687e:	f413 7f40 	tst.w	r3, #768	; 0x300
 8006882:	4620      	mov	r0, r4
 8006884:	d144      	bne.n	8006910 <HAL_TIM_IRQHandler+0x15c>
 8006886:	f7ff ff8d 	bl	80067a4 <HAL_TIM_OC_DelayElapsedCallback>
 800688a:	4620      	mov	r0, r4
 800688c:	f7ff ff8e 	bl	80067ac <HAL_TIM_PWM_PulseFinishedCallback>
 8006890:	2200      	movs	r2, #0
 8006892:	6823      	ldr	r3, [r4, #0]
 8006894:	7722      	strb	r2, [r4, #28]
 8006896:	e79c      	b.n	80067d2 <HAL_TIM_IRQHandler+0x1e>
 8006898:	f06f 0102 	mvn.w	r1, #2
 800689c:	2201      	movs	r2, #1
 800689e:	6119      	str	r1, [r3, #16]
 80068a0:	7702      	strb	r2, [r0, #28]
 80068a2:	699b      	ldr	r3, [r3, #24]
 80068a4:	0799      	lsls	r1, r3, #30
 80068a6:	d130      	bne.n	800690a <HAL_TIM_IRQHandler+0x156>
 80068a8:	f7ff ff7c 	bl	80067a4 <HAL_TIM_OC_DelayElapsedCallback>
 80068ac:	4620      	mov	r0, r4
 80068ae:	f7ff ff7d 	bl	80067ac <HAL_TIM_PWM_PulseFinishedCallback>
 80068b2:	2200      	movs	r2, #0
 80068b4:	6823      	ldr	r3, [r4, #0]
 80068b6:	7722      	strb	r2, [r4, #28]
 80068b8:	e785      	b.n	80067c6 <HAL_TIM_IRQHandler+0x12>
 80068ba:	f06f 0220 	mvn.w	r2, #32
 80068be:	4620      	mov	r0, r4
 80068c0:	611a      	str	r2, [r3, #16]
 80068c2:	e8bd 4010 	ldmia.w	sp!, {r4, lr}
 80068c6:	f000 b8a9 	b.w	8006a1c <HAL_TIMEx_CommutCallback>
 80068ca:	f06f 0201 	mvn.w	r2, #1
 80068ce:	611a      	str	r2, [r3, #16]
 80068d0:	4620      	mov	r0, r4
 80068d2:	f7fc ff1d 	bl	8003710 <HAL_TIM_PeriodElapsedCallback>
 80068d6:	6823      	ldr	r3, [r4, #0]
 80068d8:	e78d      	b.n	80067f6 <HAL_TIM_IRQHandler+0x42>
 80068da:	f06f 0280 	mvn.w	r2, #128	; 0x80
 80068de:	611a      	str	r2, [r3, #16]
 80068e0:	4620      	mov	r0, r4
 80068e2:	f000 f89d 	bl	8006a20 <HAL_TIMEx_BreakCallback>
 80068e6:	6823      	ldr	r3, [r4, #0]
 80068e8:	e78b      	b.n	8006802 <HAL_TIM_IRQHandler+0x4e>
 80068ea:	f46f 7280 	mvn.w	r2, #256	; 0x100
 80068ee:	611a      	str	r2, [r3, #16]
 80068f0:	4620      	mov	r0, r4
 80068f2:	f000 f897 	bl	8006a24 <HAL_TIMEx_Break2Callback>
 80068f6:	6823      	ldr	r3, [r4, #0]
 80068f8:	e789      	b.n	800680e <HAL_TIM_IRQHandler+0x5a>
 80068fa:	f06f 0240 	mvn.w	r2, #64	; 0x40
 80068fe:	611a      	str	r2, [r3, #16]
 8006900:	4620      	mov	r0, r4
 8006902:	f7ff ff55 	bl	80067b0 <HAL_TIM_TriggerCallback>
 8006906:	6823      	ldr	r3, [r4, #0]
 8006908:	e787      	b.n	800681a <HAL_TIM_IRQHandler+0x66>
 800690a:	f7ff ff4d 	bl	80067a8 <HAL_TIM_IC_CaptureCallback>
 800690e:	e7d0      	b.n	80068b2 <HAL_TIM_IRQHandler+0xfe>
 8006910:	f7ff ff4a 	bl	80067a8 <HAL_TIM_IC_CaptureCallback>
 8006914:	e7bc      	b.n	8006890 <HAL_TIM_IRQHandler+0xdc>
 8006916:	f7ff ff47 	bl	80067a8 <HAL_TIM_IC_CaptureCallback>
 800691a:	e7a6      	b.n	800686a <HAL_TIM_IRQHandler+0xb6>
 800691c:	f7ff ff44 	bl	80067a8 <HAL_TIM_IC_CaptureCallback>
 8006920:	e791      	b.n	8006846 <HAL_TIM_IRQHandler+0x92>
 8006922:	bf00      	nop

08006924 <HAL_TIMEx_MasterConfigSynchronization>:
 8006924:	f890 303c 	ldrb.w	r3, [r0, #60]	; 0x3c
 8006928:	2b01      	cmp	r3, #1
 800692a:	d032      	beq.n	8006992 <HAL_TIMEx_MasterConfigSynchronization+0x6e>
 800692c:	b470      	push	{r4, r5, r6}
 800692e:	6802      	ldr	r2, [r0, #0]
 8006930:	f44f 5430 	mov.w	r4, #11264	; 0x2c00
 8006934:	2302      	movs	r3, #2
 8006936:	f2c4 0401 	movt	r4, #16385	; 0x4001
 800693a:	f880 303d 	strb.w	r3, [r0, #61]	; 0x3d
 800693e:	42a2      	cmp	r2, r4
 8006940:	6853      	ldr	r3, [r2, #4]
 8006942:	6895      	ldr	r5, [r2, #8]
 8006944:	d01b      	beq.n	800697e <HAL_TIMEx_MasterConfigSynchronization+0x5a>
 8006946:	680c      	ldr	r4, [r1, #0]
 8006948:	f023 0370 	bic.w	r3, r3, #112	; 0x70
 800694c:	4323      	orrs	r3, r4
 800694e:	f1b2 4f80 	cmp.w	r2, #1073741824	; 0x40000000
 8006952:	6053      	str	r3, [r2, #4]
 8006954:	d005      	beq.n	8006962 <HAL_TIMEx_MasterConfigSynchronization+0x3e>
 8006956:	f44f 4380 	mov.w	r3, #16384	; 0x4000
 800695a:	f2c4 0301 	movt	r3, #16385	; 0x4001
 800695e:	429a      	cmp	r2, r3
 8006960:	d104      	bne.n	800696c <HAL_TIMEx_MasterConfigSynchronization+0x48>
 8006962:	688b      	ldr	r3, [r1, #8]
 8006964:	f025 0580 	bic.w	r5, r5, #128	; 0x80
 8006968:	431d      	orrs	r5, r3
 800696a:	6095      	str	r5, [r2, #8]
 800696c:	2300      	movs	r3, #0
 800696e:	2201      	movs	r2, #1
 8006970:	f880 203d 	strb.w	r2, [r0, #61]	; 0x3d
 8006974:	f880 303c 	strb.w	r3, [r0, #60]	; 0x3c
 8006978:	bc70      	pop	{r4, r5, r6}
 800697a:	4618      	mov	r0, r3
 800697c:	4770      	bx	lr
 800697e:	e9d1 4600 	ldrd	r4, r6, [r1]
 8006982:	f423 0370 	bic.w	r3, r3, #15728640	; 0xf00000
 8006986:	4333      	orrs	r3, r6
 8006988:	f023 0370 	bic.w	r3, r3, #112	; 0x70
 800698c:	4323      	orrs	r3, r4
 800698e:	6053      	str	r3, [r2, #4]
 8006990:	e7e7      	b.n	8006962 <HAL_TIMEx_MasterConfigSynchronization+0x3e>
 8006992:	2002      	movs	r0, #2
 8006994:	4770      	bx	lr
 8006996:	bf00      	nop

08006998 <HAL_TIMEx_ConfigBreakDeadTime>:
 8006998:	f890 303c 	ldrb.w	r3, [r0, #60]	; 0x3c
 800699c:	2b01      	cmp	r3, #1
 800699e:	d03b      	beq.n	8006a18 <HAL_TIMEx_ConfigBreakDeadTime+0x80>
 80069a0:	b430      	push	{r4, r5}
 80069a2:	e9d1 5302 	ldrd	r5, r3, [r1, #8]
 80069a6:	4602      	mov	r2, r0
 80069a8:	f423 7340 	bic.w	r3, r3, #768	; 0x300
 80069ac:	e9d1 0400 	ldrd	r0, r4, [r1]
 80069b0:	432b      	orrs	r3, r5
 80069b2:	f423 6380 	bic.w	r3, r3, #1024	; 0x400
 80069b6:	4323      	orrs	r3, r4
 80069b8:	f423 6300 	bic.w	r3, r3, #2048	; 0x800
 80069bc:	e9d1 5404 	ldrd	r5, r4, [r1, #16]
 80069c0:	4303      	orrs	r3, r0
 80069c2:	f423 5380 	bic.w	r3, r3, #4096	; 0x1000
 80069c6:	432b      	orrs	r3, r5
 80069c8:	f423 5300 	bic.w	r3, r3, #8192	; 0x2000
 80069cc:	6a88      	ldr	r0, [r1, #40]	; 0x28
 80069ce:	698d      	ldr	r5, [r1, #24]
 80069d0:	4323      	orrs	r3, r4
 80069d2:	f423 4380 	bic.w	r3, r3, #16384	; 0x4000
 80069d6:	4303      	orrs	r3, r0
 80069d8:	f44f 5430 	mov.w	r4, #11264	; 0x2c00
 80069dc:	6810      	ldr	r0, [r2, #0]
 80069de:	f2c4 0401 	movt	r4, #16385	; 0x4001
 80069e2:	f423 2370 	bic.w	r3, r3, #983040	; 0xf0000
 80069e6:	42a0      	cmp	r0, r4
 80069e8:	ea43 4305 	orr.w	r3, r3, r5, lsl #16
 80069ec:	d006      	beq.n	80069fc <HAL_TIMEx_ConfigBreakDeadTime+0x64>
 80069ee:	2100      	movs	r1, #0
 80069f0:	6443      	str	r3, [r0, #68]	; 0x44
 80069f2:	f882 103c 	strb.w	r1, [r2, #60]	; 0x3c
 80069f6:	4608      	mov	r0, r1
 80069f8:	bc30      	pop	{r4, r5}
 80069fa:	4770      	bx	lr
 80069fc:	6a4d      	ldr	r5, [r1, #36]	; 0x24
 80069fe:	f423 0370 	bic.w	r3, r3, #15728640	; 0xf00000
 8006a02:	e9d1 4107 	ldrd	r4, r1, [r1, #28]
 8006a06:	ea43 5305 	orr.w	r3, r3, r5, lsl #20
 8006a0a:	f023 7380 	bic.w	r3, r3, #16777216	; 0x1000000
 8006a0e:	4323      	orrs	r3, r4
 8006a10:	f023 7300 	bic.w	r3, r3, #33554432	; 0x2000000
 8006a14:	430b      	orrs	r3, r1
 8006a16:	e7ea      	b.n	80069ee <HAL_TIMEx_ConfigBreakDeadTime+0x56>
 8006a18:	2002      	movs	r0, #2
 8006a1a:	4770      	bx	lr

08006a1c <HAL_TIMEx_CommutCallback>:
 8006a1c:	4770      	bx	lr
 8006a1e:	bf00      	nop

08006a20 <HAL_TIMEx_BreakCallback>:
 8006a20:	4770      	bx	lr
 8006a22:	bf00      	nop

08006a24 <HAL_TIMEx_Break2Callback>:
 8006a24:	4770      	bx	lr
 8006a26:	bf00      	nop

08006a28 <HAL_UART_Transmit_DMA>:
 8006a28:	b5f8      	push	{r3, r4, r5, r6, r7, lr}
 8006a2a:	6f86      	ldr	r6, [r0, #120]	; 0x78
 8006a2c:	2e20      	cmp	r6, #32
 8006a2e:	d147      	bne.n	8006ac0 <HAL_UART_Transmit_DMA+0x98>
 8006a30:	2900      	cmp	r1, #0
 8006a32:	d043      	beq.n	8006abc <HAL_UART_Transmit_DMA+0x94>
 8006a34:	2a00      	cmp	r2, #0
 8006a36:	d041      	beq.n	8006abc <HAL_UART_Transmit_DMA+0x94>
 8006a38:	4604      	mov	r4, r0
 8006a3a:	f890 0074 	ldrb.w	r0, [r0, #116]	; 0x74
 8006a3e:	2801      	cmp	r0, #1
 8006a40:	d03e      	beq.n	8006ac0 <HAL_UART_Transmit_DMA+0x98>
 8006a42:	6ee0      	ldr	r0, [r4, #108]	; 0x6c
 8006a44:	f8a4 2052 	strh.w	r2, [r4, #82]	; 0x52
 8006a48:	2700      	movs	r7, #0
 8006a4a:	2501      	movs	r5, #1
 8006a4c:	2321      	movs	r3, #33	; 0x21
 8006a4e:	f8c4 7080 	str.w	r7, [r4, #128]	; 0x80
 8006a52:	64e1      	str	r1, [r4, #76]	; 0x4c
 8006a54:	f8a4 2050 	strh.w	r2, [r4, #80]	; 0x50
 8006a58:	f884 5074 	strb.w	r5, [r4, #116]	; 0x74
 8006a5c:	67a3      	str	r3, [r4, #120]	; 0x78
 8006a5e:	b1c8      	cbz	r0, 8006a94 <HAL_UART_Transmit_DMA+0x6c>
 8006a60:	f646 3c1d 	movw	ip, #27421	; 0x6b1d
 8006a64:	f6c0 0c00 	movt	ip, #2048	; 0x800
 8006a68:	f646 2ed5 	movw	lr, #27349	; 0x6ad5
 8006a6c:	4613      	mov	r3, r2
 8006a6e:	f8c0 c030 	str.w	ip, [r0, #48]	; 0x30
 8006a72:	f646 3231 	movw	r2, #27441	; 0x6b31
 8006a76:	f8d4 c000 	ldr.w	ip, [r4]
 8006a7a:	6387      	str	r7, [r0, #56]	; 0x38
 8006a7c:	f6c0 0200 	movt	r2, #2048	; 0x800
 8006a80:	f6c0 0e00 	movt	lr, #2048	; 0x800
 8006a84:	6342      	str	r2, [r0, #52]	; 0x34
 8006a86:	f8c0 e02c 	str.w	lr, [r0, #44]	; 0x2c
 8006a8a:	f10c 0228 	add.w	r2, ip, #40	; 0x28
 8006a8e:	f7fd fea5 	bl	80047dc <HAL_DMA_Start_IT>
 8006a92:	b9b8      	cbnz	r0, 8006ac4 <HAL_UART_Transmit_DMA+0x9c>
 8006a94:	6822      	ldr	r2, [r4, #0]
 8006a96:	2140      	movs	r1, #64	; 0x40
 8006a98:	2300      	movs	r3, #0
 8006a9a:	6211      	str	r1, [r2, #32]
 8006a9c:	f884 3074 	strb.w	r3, [r4, #116]	; 0x74
 8006aa0:	f102 0308 	add.w	r3, r2, #8
 8006aa4:	e853 3f00 	ldrex	r3, [r3]
 8006aa8:	f043 0380 	orr.w	r3, r3, #128	; 0x80
 8006aac:	f102 0008 	add.w	r0, r2, #8
 8006ab0:	e840 3100 	strex	r1, r3, [r0]
 8006ab4:	2900      	cmp	r1, #0
 8006ab6:	d1f3      	bne.n	8006aa0 <HAL_UART_Transmit_DMA+0x78>
 8006ab8:	2000      	movs	r0, #0
 8006aba:	bdf8      	pop	{r3, r4, r5, r6, r7, pc}
 8006abc:	2001      	movs	r0, #1
 8006abe:	bdf8      	pop	{r3, r4, r5, r6, r7, pc}
 8006ac0:	2002      	movs	r0, #2
 8006ac2:	bdf8      	pop	{r3, r4, r5, r6, r7, pc}
 8006ac4:	2310      	movs	r3, #16
 8006ac6:	f884 7074 	strb.w	r7, [r4, #116]	; 0x74
 8006aca:	f8c4 3080 	str.w	r3, [r4, #128]	; 0x80
 8006ace:	4628      	mov	r0, r5
 8006ad0:	67a6      	str	r6, [r4, #120]	; 0x78
 8006ad2:	bdf8      	pop	{r3, r4, r5, r6, r7, pc}

08006ad4 <UART_DMATransmitCplt>:
 8006ad4:	b508      	push	{r3, lr}
 8006ad6:	6803      	ldr	r3, [r0, #0]
 8006ad8:	6a80      	ldr	r0, [r0, #40]	; 0x28
 8006ada:	681b      	ldr	r3, [r3, #0]
 8006adc:	f013 0320 	ands.w	r3, r3, #32
 8006ae0:	d117      	bne.n	8006b12 <UART_DMATransmitCplt+0x3e>
 8006ae2:	6802      	ldr	r2, [r0, #0]
 8006ae4:	f8a0 3052 	strh.w	r3, [r0, #82]	; 0x52
 8006ae8:	f102 0308 	add.w	r3, r2, #8
 8006aec:	e853 3f00 	ldrex	r3, [r3]
 8006af0:	f023 0380 	bic.w	r3, r3, #128	; 0x80
 8006af4:	f102 0008 	add.w	r0, r2, #8
 8006af8:	e840 3100 	strex	r1, r3, [r0]
 8006afc:	2900      	cmp	r1, #0
 8006afe:	d1f3      	bne.n	8006ae8 <UART_DMATransmitCplt+0x14>
 8006b00:	e852 3f00 	ldrex	r3, [r2]
 8006b04:	f043 0340 	orr.w	r3, r3, #64	; 0x40
 8006b08:	e842 3100 	strex	r1, r3, [r2]
 8006b0c:	2900      	cmp	r1, #0
 8006b0e:	d1f7      	bne.n	8006b00 <UART_DMATransmitCplt+0x2c>
 8006b10:	bd08      	pop	{r3, pc}
 8006b12:	f7fb fccf 	bl	80024b4 <HAL_UART_TxCpltCallback>
 8006b16:	bd08      	pop	{r3, pc}

08006b18 <HAL_UART_TxHalfCpltCallback>:
 8006b18:	4770      	bx	lr
 8006b1a:	bf00      	nop

08006b1c <UART_DMATxHalfCplt>:
 8006b1c:	b508      	push	{r3, lr}
 8006b1e:	6a80      	ldr	r0, [r0, #40]	; 0x28
 8006b20:	f7ff fffa 	bl	8006b18 <HAL_UART_TxHalfCpltCallback>
 8006b24:	bd08      	pop	{r3, pc}
 8006b26:	bf00      	nop

08006b28 <HAL_UART_RxHalfCpltCallback>:
 8006b28:	4770      	bx	lr
 8006b2a:	bf00      	nop

08006b2c <HAL_UART_ErrorCallback>:
 8006b2c:	4770      	bx	lr
 8006b2e:	bf00      	nop

08006b30 <UART_DMAError>:
 8006b30:	6a80      	ldr	r0, [r0, #40]	; 0x28
 8006b32:	6803      	ldr	r3, [r0, #0]
 8006b34:	6f81      	ldr	r1, [r0, #120]	; 0x78
 8006b36:	b510      	push	{r4, lr}
 8006b38:	6fc4      	ldr	r4, [r0, #124]	; 0x7c
 8006b3a:	689a      	ldr	r2, [r3, #8]
 8006b3c:	0612      	lsls	r2, r2, #24
 8006b3e:	d501      	bpl.n	8006b44 <UART_DMAError+0x14>
 8006b40:	2921      	cmp	r1, #33	; 0x21
 8006b42:	d00d      	beq.n	8006b60 <UART_DMAError+0x30>
 8006b44:	689a      	ldr	r2, [r3, #8]
 8006b46:	0652      	lsls	r2, r2, #25
 8006b48:	d501      	bpl.n	8006b4e <UART_DMAError+0x1e>
 8006b4a:	2c22      	cmp	r4, #34	; 0x22
 8006b4c:	d016      	beq.n	8006b7c <UART_DMAError+0x4c>
 8006b4e:	f8d0 3080 	ldr.w	r3, [r0, #128]	; 0x80
 8006b52:	f043 0310 	orr.w	r3, r3, #16
 8006b56:	f8c0 3080 	str.w	r3, [r0, #128]	; 0x80
 8006b5a:	f7ff ffe7 	bl	8006b2c <HAL_UART_ErrorCallback>
 8006b5e:	bd10      	pop	{r4, pc}
 8006b60:	2200      	movs	r2, #0
 8006b62:	f8a0 2052 	strh.w	r2, [r0, #82]	; 0x52
 8006b66:	e853 2f00 	ldrex	r2, [r3]
 8006b6a:	f022 02c0 	bic.w	r2, r2, #192	; 0xc0
 8006b6e:	e843 2100 	strex	r1, r2, [r3]
 8006b72:	2900      	cmp	r1, #0
 8006b74:	d1f7      	bne.n	8006b66 <UART_DMAError+0x36>
 8006b76:	2220      	movs	r2, #32
 8006b78:	6782      	str	r2, [r0, #120]	; 0x78
 8006b7a:	e7e3      	b.n	8006b44 <UART_DMAError+0x14>
 8006b7c:	2200      	movs	r2, #0
 8006b7e:	f8a0 205a 	strh.w	r2, [r0, #90]	; 0x5a
 8006b82:	e853 2f00 	ldrex	r2, [r3]
 8006b86:	f422 7290 	bic.w	r2, r2, #288	; 0x120
 8006b8a:	e843 2100 	strex	r1, r2, [r3]
 8006b8e:	2900      	cmp	r1, #0
 8006b90:	d1f7      	bne.n	8006b82 <UART_DMAError+0x52>
 8006b92:	f103 0208 	add.w	r2, r3, #8
 8006b96:	e852 2f00 	ldrex	r2, [r2]
 8006b9a:	f022 0201 	bic.w	r2, r2, #1
 8006b9e:	f103 0408 	add.w	r4, r3, #8
 8006ba2:	e844 2100 	strex	r1, r2, [r4]
 8006ba6:	2900      	cmp	r1, #0
 8006ba8:	d1f3      	bne.n	8006b92 <UART_DMAError+0x62>
 8006baa:	6e02      	ldr	r2, [r0, #96]	; 0x60
 8006bac:	2a01      	cmp	r2, #1
 8006bae:	d005      	beq.n	8006bbc <UART_DMAError+0x8c>
 8006bb0:	2300      	movs	r3, #0
 8006bb2:	2220      	movs	r2, #32
 8006bb4:	67c2      	str	r2, [r0, #124]	; 0x7c
 8006bb6:	6643      	str	r3, [r0, #100]	; 0x64
 8006bb8:	6603      	str	r3, [r0, #96]	; 0x60
 8006bba:	e7c8      	b.n	8006b4e <UART_DMAError+0x1e>
 8006bbc:	e853 2f00 	ldrex	r2, [r3]
 8006bc0:	f022 0210 	bic.w	r2, r2, #16
 8006bc4:	e843 2100 	strex	r1, r2, [r3]
 8006bc8:	2900      	cmp	r1, #0
 8006bca:	d0f1      	beq.n	8006bb0 <UART_DMAError+0x80>
 8006bcc:	e853 2f00 	ldrex	r2, [r3]
 8006bd0:	f022 0210 	bic.w	r2, r2, #16
 8006bd4:	e843 2100 	strex	r1, r2, [r3]
 8006bd8:	2900      	cmp	r1, #0
 8006bda:	d1ef      	bne.n	8006bbc <UART_DMAError+0x8c>
 8006bdc:	e7e8      	b.n	8006bb0 <UART_DMAError+0x80>
 8006bde:	bf00      	nop

08006be0 <UART_DMAAbortOnError>:
 8006be0:	b508      	push	{r3, lr}
 8006be2:	6a80      	ldr	r0, [r0, #40]	; 0x28
 8006be4:	2300      	movs	r3, #0
 8006be6:	f8a0 305a 	strh.w	r3, [r0, #90]	; 0x5a
 8006bea:	f8a0 3052 	strh.w	r3, [r0, #82]	; 0x52
 8006bee:	f7ff ff9d 	bl	8006b2c <HAL_UART_ErrorCallback>
 8006bf2:	bd08      	pop	{r3, pc}

08006bf4 <HAL_UARTEx_RxEventCallback>:
 8006bf4:	4770      	bx	lr
 8006bf6:	bf00      	nop

08006bf8 <HAL_UART_IRQHandler>:
 8006bf8:	6803      	ldr	r3, [r0, #0]
 8006bfa:	69da      	ldr	r2, [r3, #28]
 8006bfc:	6819      	ldr	r1, [r3, #0]
 8006bfe:	b570      	push	{r4, r5, r6, lr}
 8006c00:	f640 050f 	movw	r5, #2063	; 0x80f
 8006c04:	422a      	tst	r2, r5
 8006c06:	689e      	ldr	r6, [r3, #8]
 8006c08:	4604      	mov	r4, r0
 8006c0a:	d14e      	bne.n	8006caa <HAL_UART_IRQHandler+0xb2>
 8006c0c:	0695      	lsls	r5, r2, #26
 8006c0e:	d502      	bpl.n	8006c16 <HAL_UART_IRQHandler+0x1e>
 8006c10:	068d      	lsls	r5, r1, #26
 8006c12:	f100 80e8 	bmi.w	8006de6 <HAL_UART_IRQHandler+0x1ee>
 8006c16:	6e20      	ldr	r0, [r4, #96]	; 0x60
 8006c18:	2801      	cmp	r0, #1
 8006c1a:	d024      	beq.n	8006c66 <HAL_UART_IRQHandler+0x6e>
 8006c1c:	02d5      	lsls	r5, r2, #11
 8006c1e:	d502      	bpl.n	8006c26 <HAL_UART_IRQHandler+0x2e>
 8006c20:	0270      	lsls	r0, r6, #9
 8006c22:	f100 80e5 	bmi.w	8006df0 <HAL_UART_IRQHandler+0x1f8>
 8006c26:	0616      	lsls	r6, r2, #24
 8006c28:	d414      	bmi.n	8006c54 <HAL_UART_IRQHandler+0x5c>
 8006c2a:	0650      	lsls	r0, r2, #25
 8006c2c:	d501      	bpl.n	8006c32 <HAL_UART_IRQHandler+0x3a>
 8006c2e:	064a      	lsls	r2, r1, #25
 8006c30:	d400      	bmi.n	8006c34 <HAL_UART_IRQHandler+0x3c>
 8006c32:	bd70      	pop	{r4, r5, r6, pc}
 8006c34:	e853 2f00 	ldrex	r2, [r3]
 8006c38:	f022 0240 	bic.w	r2, r2, #64	; 0x40
 8006c3c:	e843 2100 	strex	r1, r2, [r3]
 8006c40:	2900      	cmp	r1, #0
 8006c42:	d1f7      	bne.n	8006c34 <HAL_UART_IRQHandler+0x3c>
 8006c44:	2220      	movs	r2, #32
 8006c46:	2300      	movs	r3, #0
 8006c48:	67a2      	str	r2, [r4, #120]	; 0x78
 8006c4a:	66a3      	str	r3, [r4, #104]	; 0x68
 8006c4c:	4620      	mov	r0, r4
 8006c4e:	f7fb fc31 	bl	80024b4 <HAL_UART_TxCpltCallback>
 8006c52:	bd70      	pop	{r4, r5, r6, pc}
 8006c54:	060d      	lsls	r5, r1, #24
 8006c56:	d5e8      	bpl.n	8006c2a <HAL_UART_IRQHandler+0x32>
 8006c58:	6ea3      	ldr	r3, [r4, #104]	; 0x68
 8006c5a:	2b00      	cmp	r3, #0
 8006c5c:	d0e9      	beq.n	8006c32 <HAL_UART_IRQHandler+0x3a>
 8006c5e:	4620      	mov	r0, r4
 8006c60:	e8bd 4070 	ldmia.w	sp!, {r4, r5, r6, lr}
 8006c64:	4718      	bx	r3
 8006c66:	06d5      	lsls	r5, r2, #27
 8006c68:	d5d8      	bpl.n	8006c1c <HAL_UART_IRQHandler+0x24>
 8006c6a:	06c8      	lsls	r0, r1, #27
 8006c6c:	d5d6      	bpl.n	8006c1c <HAL_UART_IRQHandler+0x24>
 8006c6e:	2210      	movs	r2, #16
 8006c70:	621a      	str	r2, [r3, #32]
 8006c72:	689a      	ldr	r2, [r3, #8]
 8006c74:	0652      	lsls	r2, r2, #25
 8006c76:	f140 80d8 	bpl.w	8006e2a <HAL_UART_IRQHandler+0x232>
 8006c7a:	6f20      	ldr	r0, [r4, #112]	; 0x70
 8006c7c:	6801      	ldr	r1, [r0, #0]
 8006c7e:	684a      	ldr	r2, [r1, #4]
 8006c80:	b292      	uxth	r2, r2
 8006c82:	2a00      	cmp	r2, #0
 8006c84:	d0d5      	beq.n	8006c32 <HAL_UART_IRQHandler+0x3a>
 8006c86:	f8b4 5058 	ldrh.w	r5, [r4, #88]	; 0x58
 8006c8a:	4295      	cmp	r5, r2
 8006c8c:	d9d1      	bls.n	8006c32 <HAL_UART_IRQHandler+0x3a>
 8006c8e:	f8a4 205a 	strh.w	r2, [r4, #90]	; 0x5a
 8006c92:	680a      	ldr	r2, [r1, #0]
 8006c94:	0696      	lsls	r6, r2, #26
 8006c96:	f140 80fc 	bpl.w	8006e92 <HAL_UART_IRQHandler+0x29a>
 8006c9a:	f8b4 105a 	ldrh.w	r1, [r4, #90]	; 0x5a
 8006c9e:	1a69      	subs	r1, r5, r1
 8006ca0:	b289      	uxth	r1, r1
 8006ca2:	4620      	mov	r0, r4
 8006ca4:	f7ff ffa6 	bl	8006bf4 <HAL_UARTEx_RxEventCallback>
 8006ca8:	bd70      	pop	{r4, r5, r6, pc}
 8006caa:	f44f 7090 	mov.w	r0, #288	; 0x120
 8006cae:	f2c0 4000 	movt	r0, #1024	; 0x400
 8006cb2:	4008      	ands	r0, r1
 8006cb4:	f006 0501 	and.w	r5, r6, #1
 8006cb8:	4328      	orrs	r0, r5
 8006cba:	d0ac      	beq.n	8006c16 <HAL_UART_IRQHandler+0x1e>
 8006cbc:	07d6      	lsls	r6, r2, #31
 8006cbe:	d509      	bpl.n	8006cd4 <HAL_UART_IRQHandler+0xdc>
 8006cc0:	05c8      	lsls	r0, r1, #23
 8006cc2:	d507      	bpl.n	8006cd4 <HAL_UART_IRQHandler+0xdc>
 8006cc4:	2001      	movs	r0, #1
 8006cc6:	6218      	str	r0, [r3, #32]
 8006cc8:	f8d4 0080 	ldr.w	r0, [r4, #128]	; 0x80
 8006ccc:	f040 0001 	orr.w	r0, r0, #1
 8006cd0:	f8c4 0080 	str.w	r0, [r4, #128]	; 0x80
 8006cd4:	0796      	lsls	r6, r2, #30
 8006cd6:	d579      	bpl.n	8006dcc <HAL_UART_IRQHandler+0x1d4>
 8006cd8:	b14d      	cbz	r5, 8006cee <HAL_UART_IRQHandler+0xf6>
 8006cda:	2002      	movs	r0, #2
 8006cdc:	6218      	str	r0, [r3, #32]
 8006cde:	f8d4 0080 	ldr.w	r0, [r4, #128]	; 0x80
 8006ce2:	f040 0004 	orr.w	r0, r0, #4
 8006ce6:	f8c4 0080 	str.w	r0, [r4, #128]	; 0x80
 8006cea:	0750      	lsls	r0, r2, #29
 8006cec:	d472      	bmi.n	8006dd4 <HAL_UART_IRQHandler+0x1dc>
 8006cee:	0710      	lsls	r0, r2, #28
 8006cf0:	d50b      	bpl.n	8006d0a <HAL_UART_IRQHandler+0x112>
 8006cf2:	f001 0020 	and.w	r0, r1, #32
 8006cf6:	4328      	orrs	r0, r5
 8006cf8:	d007      	beq.n	8006d0a <HAL_UART_IRQHandler+0x112>
 8006cfa:	2008      	movs	r0, #8
 8006cfc:	6218      	str	r0, [r3, #32]
 8006cfe:	f8d4 0080 	ldr.w	r0, [r4, #128]	; 0x80
 8006d02:	f040 0008 	orr.w	r0, r0, #8
 8006d06:	f8c4 0080 	str.w	r0, [r4, #128]	; 0x80
 8006d0a:	0516      	lsls	r6, r2, #20
 8006d0c:	d50a      	bpl.n	8006d24 <HAL_UART_IRQHandler+0x12c>
 8006d0e:	014d      	lsls	r5, r1, #5
 8006d10:	d508      	bpl.n	8006d24 <HAL_UART_IRQHandler+0x12c>
 8006d12:	f44f 6000 	mov.w	r0, #2048	; 0x800
 8006d16:	6218      	str	r0, [r3, #32]
 8006d18:	f8d4 0080 	ldr.w	r0, [r4, #128]	; 0x80
 8006d1c:	f040 0020 	orr.w	r0, r0, #32
 8006d20:	f8c4 0080 	str.w	r0, [r4, #128]	; 0x80
 8006d24:	f8d4 0080 	ldr.w	r0, [r4, #128]	; 0x80
 8006d28:	2800      	cmp	r0, #0
 8006d2a:	d082      	beq.n	8006c32 <HAL_UART_IRQHandler+0x3a>
 8006d2c:	0690      	lsls	r0, r2, #26
 8006d2e:	d506      	bpl.n	8006d3e <HAL_UART_IRQHandler+0x146>
 8006d30:	068a      	lsls	r2, r1, #26
 8006d32:	d504      	bpl.n	8006d3e <HAL_UART_IRQHandler+0x146>
 8006d34:	6e62      	ldr	r2, [r4, #100]	; 0x64
 8006d36:	b112      	cbz	r2, 8006d3e <HAL_UART_IRQHandler+0x146>
 8006d38:	4620      	mov	r0, r4
 8006d3a:	4790      	blx	r2
 8006d3c:	6823      	ldr	r3, [r4, #0]
 8006d3e:	f8d4 5080 	ldr.w	r5, [r4, #128]	; 0x80
 8006d42:	689a      	ldr	r2, [r3, #8]
 8006d44:	f005 0528 	and.w	r5, r5, #40	; 0x28
 8006d48:	f002 0240 	and.w	r2, r2, #64	; 0x40
 8006d4c:	4315      	orrs	r5, r2
 8006d4e:	f000 80d0 	beq.w	8006ef2 <HAL_UART_IRQHandler+0x2fa>
 8006d52:	e853 2f00 	ldrex	r2, [r3]
 8006d56:	f422 7290 	bic.w	r2, r2, #288	; 0x120
 8006d5a:	e843 2100 	strex	r1, r2, [r3]
 8006d5e:	2900      	cmp	r1, #0
 8006d60:	d1f7      	bne.n	8006d52 <HAL_UART_IRQHandler+0x15a>
 8006d62:	f103 0208 	add.w	r2, r3, #8
 8006d66:	e852 2f00 	ldrex	r2, [r2]
 8006d6a:	f022 0201 	bic.w	r2, r2, #1
 8006d6e:	f103 0008 	add.w	r0, r3, #8
 8006d72:	e840 2100 	strex	r1, r2, [r0]
 8006d76:	2900      	cmp	r1, #0
 8006d78:	d1f3      	bne.n	8006d62 <HAL_UART_IRQHandler+0x16a>
 8006d7a:	6e22      	ldr	r2, [r4, #96]	; 0x60
 8006d7c:	2a01      	cmp	r2, #1
 8006d7e:	d03f      	beq.n	8006e00 <HAL_UART_IRQHandler+0x208>
 8006d80:	2120      	movs	r1, #32
 8006d82:	2200      	movs	r2, #0
 8006d84:	67e1      	str	r1, [r4, #124]	; 0x7c
 8006d86:	6622      	str	r2, [r4, #96]	; 0x60
 8006d88:	6899      	ldr	r1, [r3, #8]
 8006d8a:	6662      	str	r2, [r4, #100]	; 0x64
 8006d8c:	064e      	lsls	r6, r1, #25
 8006d8e:	d548      	bpl.n	8006e22 <HAL_UART_IRQHandler+0x22a>
 8006d90:	f103 0208 	add.w	r2, r3, #8
 8006d94:	e852 2f00 	ldrex	r2, [r2]
 8006d98:	f022 0240 	bic.w	r2, r2, #64	; 0x40
 8006d9c:	f103 0008 	add.w	r0, r3, #8
 8006da0:	e840 2100 	strex	r1, r2, [r0]
 8006da4:	2900      	cmp	r1, #0
 8006da6:	d1f3      	bne.n	8006d90 <HAL_UART_IRQHandler+0x198>
 8006da8:	6f20      	ldr	r0, [r4, #112]	; 0x70
 8006daa:	2800      	cmp	r0, #0
 8006dac:	d039      	beq.n	8006e22 <HAL_UART_IRQHandler+0x22a>
 8006dae:	f646 33e1 	movw	r3, #27617	; 0x6be1
 8006db2:	f6c0 0300 	movt	r3, #2048	; 0x800
 8006db6:	6383      	str	r3, [r0, #56]	; 0x38
 8006db8:	f7fd fd7c 	bl	80048b4 <HAL_DMA_Abort_IT>
 8006dbc:	2800      	cmp	r0, #0
 8006dbe:	f43f af38 	beq.w	8006c32 <HAL_UART_IRQHandler+0x3a>
 8006dc2:	6f20      	ldr	r0, [r4, #112]	; 0x70
 8006dc4:	e8bd 4070 	ldmia.w	sp!, {r4, r5, r6, lr}
 8006dc8:	6b83      	ldr	r3, [r0, #56]	; 0x38
 8006dca:	4718      	bx	r3
 8006dcc:	0756      	lsls	r6, r2, #29
 8006dce:	d58e      	bpl.n	8006cee <HAL_UART_IRQHandler+0xf6>
 8006dd0:	2d00      	cmp	r5, #0
 8006dd2:	d08c      	beq.n	8006cee <HAL_UART_IRQHandler+0xf6>
 8006dd4:	2004      	movs	r0, #4
 8006dd6:	6218      	str	r0, [r3, #32]
 8006dd8:	f8d4 0080 	ldr.w	r0, [r4, #128]	; 0x80
 8006ddc:	f040 0002 	orr.w	r0, r0, #2
 8006de0:	f8c4 0080 	str.w	r0, [r4, #128]	; 0x80
 8006de4:	e783      	b.n	8006cee <HAL_UART_IRQHandler+0xf6>
 8006de6:	6e43      	ldr	r3, [r0, #100]	; 0x64
 8006de8:	2b00      	cmp	r3, #0
 8006dea:	f47f af39 	bne.w	8006c60 <HAL_UART_IRQHandler+0x68>
 8006dee:	e720      	b.n	8006c32 <HAL_UART_IRQHandler+0x3a>
 8006df0:	f44f 1280 	mov.w	r2, #1048576	; 0x100000
 8006df4:	4620      	mov	r0, r4
 8006df6:	621a      	str	r2, [r3, #32]
 8006df8:	e8bd 4070 	ldmia.w	sp!, {r4, r5, r6, lr}
 8006dfc:	f000 bbdc 	b.w	80075b8 <HAL_UARTEx_WakeupCallback>
 8006e00:	e853 2f00 	ldrex	r2, [r3]
 8006e04:	f022 0210 	bic.w	r2, r2, #16
 8006e08:	e843 2100 	strex	r1, r2, [r3]
 8006e0c:	2900      	cmp	r1, #0
 8006e0e:	d0b7      	beq.n	8006d80 <HAL_UART_IRQHandler+0x188>
 8006e10:	e853 2f00 	ldrex	r2, [r3]
 8006e14:	f022 0210 	bic.w	r2, r2, #16
 8006e18:	e843 2100 	strex	r1, r2, [r3]
 8006e1c:	2900      	cmp	r1, #0
 8006e1e:	d1ef      	bne.n	8006e00 <HAL_UART_IRQHandler+0x208>
 8006e20:	e7ae      	b.n	8006d80 <HAL_UART_IRQHandler+0x188>
 8006e22:	4620      	mov	r0, r4
 8006e24:	f7ff fe82 	bl	8006b2c <HAL_UART_ErrorCallback>
 8006e28:	bd70      	pop	{r4, r5, r6, pc}
 8006e2a:	f8b4 105a 	ldrh.w	r1, [r4, #90]	; 0x5a
 8006e2e:	f8b4 205a 	ldrh.w	r2, [r4, #90]	; 0x5a
 8006e32:	b292      	uxth	r2, r2
 8006e34:	b289      	uxth	r1, r1
 8006e36:	2a00      	cmp	r2, #0
 8006e38:	f43f aefb 	beq.w	8006c32 <HAL_UART_IRQHandler+0x3a>
 8006e3c:	f8b4 2058 	ldrh.w	r2, [r4, #88]	; 0x58
 8006e40:	1a51      	subs	r1, r2, r1
 8006e42:	b289      	uxth	r1, r1
 8006e44:	2900      	cmp	r1, #0
 8006e46:	f43f aef4 	beq.w	8006c32 <HAL_UART_IRQHandler+0x3a>
 8006e4a:	e853 2f00 	ldrex	r2, [r3]
 8006e4e:	f422 7290 	bic.w	r2, r2, #288	; 0x120
 8006e52:	e843 2000 	strex	r0, r2, [r3]
 8006e56:	2800      	cmp	r0, #0
 8006e58:	d1f7      	bne.n	8006e4a <HAL_UART_IRQHandler+0x252>
 8006e5a:	f103 0208 	add.w	r2, r3, #8
 8006e5e:	e852 2f00 	ldrex	r2, [r2]
 8006e62:	f022 0201 	bic.w	r2, r2, #1
 8006e66:	f103 0508 	add.w	r5, r3, #8
 8006e6a:	e845 2000 	strex	r0, r2, [r5]
 8006e6e:	2800      	cmp	r0, #0
 8006e70:	d1f3      	bne.n	8006e5a <HAL_UART_IRQHandler+0x262>
 8006e72:	2220      	movs	r2, #32
 8006e74:	67e2      	str	r2, [r4, #124]	; 0x7c
 8006e76:	6660      	str	r0, [r4, #100]	; 0x64
 8006e78:	6620      	str	r0, [r4, #96]	; 0x60
 8006e7a:	e853 2f00 	ldrex	r2, [r3]
 8006e7e:	f022 0210 	bic.w	r2, r2, #16
 8006e82:	e843 2000 	strex	r0, r2, [r3]
 8006e86:	2800      	cmp	r0, #0
 8006e88:	d1f7      	bne.n	8006e7a <HAL_UART_IRQHandler+0x282>
 8006e8a:	4620      	mov	r0, r4
 8006e8c:	f7ff feb2 	bl	8006bf4 <HAL_UARTEx_RxEventCallback>
 8006e90:	bd70      	pop	{r4, r5, r6, pc}
 8006e92:	e853 2f00 	ldrex	r2, [r3]
 8006e96:	f422 7280 	bic.w	r2, r2, #256	; 0x100
 8006e9a:	e843 2100 	strex	r1, r2, [r3]
 8006e9e:	2900      	cmp	r1, #0
 8006ea0:	d1f7      	bne.n	8006e92 <HAL_UART_IRQHandler+0x29a>
 8006ea2:	f103 0208 	add.w	r2, r3, #8
 8006ea6:	e852 2f00 	ldrex	r2, [r2]
 8006eaa:	f022 0201 	bic.w	r2, r2, #1
 8006eae:	f103 0508 	add.w	r5, r3, #8
 8006eb2:	e845 2100 	strex	r1, r2, [r5]
 8006eb6:	2900      	cmp	r1, #0
 8006eb8:	d1f3      	bne.n	8006ea2 <HAL_UART_IRQHandler+0x2aa>
 8006eba:	f103 0208 	add.w	r2, r3, #8
 8006ebe:	e852 2f00 	ldrex	r2, [r2]
 8006ec2:	f022 0240 	bic.w	r2, r2, #64	; 0x40
 8006ec6:	f103 0508 	add.w	r5, r3, #8
 8006eca:	e845 2100 	strex	r1, r2, [r5]
 8006ece:	2900      	cmp	r1, #0
 8006ed0:	d1f3      	bne.n	8006eba <HAL_UART_IRQHandler+0x2c2>
 8006ed2:	2220      	movs	r2, #32
 8006ed4:	67e2      	str	r2, [r4, #124]	; 0x7c
 8006ed6:	6621      	str	r1, [r4, #96]	; 0x60
 8006ed8:	e853 2f00 	ldrex	r2, [r3]
 8006edc:	f022 0210 	bic.w	r2, r2, #16
 8006ee0:	e843 2100 	strex	r1, r2, [r3]
 8006ee4:	2900      	cmp	r1, #0
 8006ee6:	d1f7      	bne.n	8006ed8 <HAL_UART_IRQHandler+0x2e0>
 8006ee8:	f7fd fcbe 	bl	8004868 <HAL_DMA_Abort>
 8006eec:	f8b4 5058 	ldrh.w	r5, [r4, #88]	; 0x58
 8006ef0:	e6d3      	b.n	8006c9a <HAL_UART_IRQHandler+0xa2>
 8006ef2:	4620      	mov	r0, r4
 8006ef4:	f7ff fe1a 	bl	8006b2c <HAL_UART_ErrorCallback>
 8006ef8:	f8c4 5080 	str.w	r5, [r4, #128]	; 0x80
 8006efc:	bd70      	pop	{r4, r5, r6, pc}
 8006efe:	bf00      	nop

08006f00 <UART_DMARxHalfCplt>:
 8006f00:	6a80      	ldr	r0, [r0, #40]	; 0x28
 8006f02:	b508      	push	{r3, lr}
 8006f04:	6e03      	ldr	r3, [r0, #96]	; 0x60
 8006f06:	2b01      	cmp	r3, #1
 8006f08:	d002      	beq.n	8006f10 <UART_DMARxHalfCplt+0x10>
 8006f0a:	f7ff fe0d 	bl	8006b28 <HAL_UART_RxHalfCpltCallback>
 8006f0e:	bd08      	pop	{r3, pc}
 8006f10:	f8b0 1058 	ldrh.w	r1, [r0, #88]	; 0x58
 8006f14:	0849      	lsrs	r1, r1, #1
 8006f16:	f7ff fe6d 	bl	8006bf4 <HAL_UARTEx_RxEventCallback>
 8006f1a:	bd08      	pop	{r3, pc}

08006f1c <UART_DMAReceiveCplt>:
 8006f1c:	b508      	push	{r3, lr}
 8006f1e:	6803      	ldr	r3, [r0, #0]
 8006f20:	6a80      	ldr	r0, [r0, #40]	; 0x28
 8006f22:	681a      	ldr	r2, [r3, #0]
 8006f24:	f012 0220 	ands.w	r2, r2, #32
 8006f28:	d127      	bne.n	8006f7a <UART_DMAReceiveCplt+0x5e>
 8006f2a:	6803      	ldr	r3, [r0, #0]
 8006f2c:	f8a0 205a 	strh.w	r2, [r0, #90]	; 0x5a
 8006f30:	e853 2f00 	ldrex	r2, [r3]
 8006f34:	f422 7280 	bic.w	r2, r2, #256	; 0x100
 8006f38:	e843 2100 	strex	r1, r2, [r3]
 8006f3c:	2900      	cmp	r1, #0
 8006f3e:	d1f7      	bne.n	8006f30 <UART_DMAReceiveCplt+0x14>
 8006f40:	f103 0208 	add.w	r2, r3, #8
 8006f44:	e852 2f00 	ldrex	r2, [r2]
 8006f48:	f022 0201 	bic.w	r2, r2, #1
 8006f4c:	f103 0c08 	add.w	ip, r3, #8
 8006f50:	e84c 2100 	strex	r1, r2, [ip]
 8006f54:	2900      	cmp	r1, #0
 8006f56:	d1f3      	bne.n	8006f40 <UART_DMAReceiveCplt+0x24>
 8006f58:	f103 0208 	add.w	r2, r3, #8
 8006f5c:	e852 2f00 	ldrex	r2, [r2]
 8006f60:	f022 0240 	bic.w	r2, r2, #64	; 0x40
 8006f64:	f103 0c08 	add.w	ip, r3, #8
 8006f68:	e84c 2100 	strex	r1, r2, [ip]
 8006f6c:	2900      	cmp	r1, #0
 8006f6e:	d1f3      	bne.n	8006f58 <UART_DMAReceiveCplt+0x3c>
 8006f70:	2220      	movs	r2, #32
 8006f72:	67c2      	str	r2, [r0, #124]	; 0x7c
 8006f74:	6e02      	ldr	r2, [r0, #96]	; 0x60
 8006f76:	2a01      	cmp	r2, #1
 8006f78:	d005      	beq.n	8006f86 <UART_DMAReceiveCplt+0x6a>
 8006f7a:	6e03      	ldr	r3, [r0, #96]	; 0x60
 8006f7c:	2b01      	cmp	r3, #1
 8006f7e:	d013      	beq.n	8006fa8 <UART_DMAReceiveCplt+0x8c>
 8006f80:	f7fb f9ee 	bl	8002360 <HAL_UART_RxCpltCallback>
 8006f84:	bd08      	pop	{r3, pc}
 8006f86:	e853 2f00 	ldrex	r2, [r3]
 8006f8a:	f022 0210 	bic.w	r2, r2, #16
 8006f8e:	e843 2100 	strex	r1, r2, [r3]
 8006f92:	2900      	cmp	r1, #0
 8006f94:	d0f1      	beq.n	8006f7a <UART_DMAReceiveCplt+0x5e>
 8006f96:	e853 2f00 	ldrex	r2, [r3]
 8006f9a:	f022 0210 	bic.w	r2, r2, #16
 8006f9e:	e843 2100 	strex	r1, r2, [r3]
 8006fa2:	2900      	cmp	r1, #0
 8006fa4:	d1ef      	bne.n	8006f86 <UART_DMAReceiveCplt+0x6a>
 8006fa6:	e7e8      	b.n	8006f7a <UART_DMAReceiveCplt+0x5e>
 8006fa8:	f8b0 1058 	ldrh.w	r1, [r0, #88]	; 0x58
 8006fac:	f7ff fe22 	bl	8006bf4 <HAL_UARTEx_RxEventCallback>
 8006fb0:	bd08      	pop	{r3, pc}
 8006fb2:	bf00      	nop

08006fb4 <UART_SetConfig>:
 8006fb4:	b5f8      	push	{r3, r4, r5, r6, r7, lr}
 8006fb6:	6802      	ldr	r2, [r0, #0]
 8006fb8:	6905      	ldr	r5, [r0, #16]
 8006fba:	6883      	ldr	r3, [r0, #8]
 8006fbc:	6946      	ldr	r6, [r0, #20]
 8006fbe:	4604      	mov	r4, r0
 8006fc0:	432b      	orrs	r3, r5
 8006fc2:	69c0      	ldr	r0, [r0, #28]
 8006fc4:	6815      	ldr	r5, [r2, #0]
 8006fc6:	f646 11f3 	movw	r1, #27123	; 0x69f3
 8006fca:	4333      	orrs	r3, r6
 8006fcc:	f6ce 71ff 	movt	r1, #61439	; 0xefff
 8006fd0:	4029      	ands	r1, r5
 8006fd2:	4303      	orrs	r3, r0
 8006fd4:	430b      	orrs	r3, r1
 8006fd6:	6013      	str	r3, [r2, #0]
 8006fd8:	6853      	ldr	r3, [r2, #4]
 8006fda:	68e6      	ldr	r6, [r4, #12]
 8006fdc:	69a5      	ldr	r5, [r4, #24]
 8006fde:	f44f 4100 	mov.w	r1, #32768	; 0x8000
 8006fe2:	f423 5340 	bic.w	r3, r3, #12288	; 0x3000
 8006fe6:	f2c4 0100 	movt	r1, #16384	; 0x4000
 8006fea:	4333      	orrs	r3, r6
 8006fec:	428a      	cmp	r2, r1
 8006fee:	6053      	str	r3, [r2, #4]
 8006ff0:	f000 80b2 	beq.w	8007158 <UART_SetConfig+0x1a4>
 8006ff4:	6a23      	ldr	r3, [r4, #32]
 8006ff6:	6891      	ldr	r1, [r2, #8]
 8006ff8:	432b      	orrs	r3, r5
 8006ffa:	f44f 5560 	mov.w	r5, #14336	; 0x3800
 8006ffe:	f421 6130 	bic.w	r1, r1, #2816	; 0xb00
 8007002:	f2c4 0501 	movt	r5, #16385	; 0x4001
 8007006:	430b      	orrs	r3, r1
 8007008:	42aa      	cmp	r2, r5
 800700a:	6093      	str	r3, [r2, #8]
 800700c:	d011      	beq.n	8007032 <UART_SetConfig+0x7e>
 800700e:	f44f 4388 	mov.w	r3, #17408	; 0x4400
 8007012:	f2c4 0300 	movt	r3, #16384	; 0x4000
 8007016:	429a      	cmp	r2, r3
 8007018:	d023      	beq.n	8007062 <UART_SetConfig+0xae>
 800701a:	f44f 4390 	mov.w	r3, #18432	; 0x4800
 800701e:	f2c4 0300 	movt	r3, #16384	; 0x4000
 8007022:	429a      	cmp	r2, r3
 8007024:	f000 80d9 	beq.w	80071da <UART_SetConfig+0x226>
 8007028:	2300      	movs	r3, #0
 800702a:	e9c4 3319 	strd	r3, r3, [r4, #100]	; 0x64
 800702e:	2001      	movs	r0, #1
 8007030:	bdf8      	pop	{r3, r4, r5, r6, r7, pc}
 8007032:	f44f 5380 	mov.w	r3, #4096	; 0x1000
 8007036:	f2c4 0302 	movt	r3, #16386	; 0x4002
 800703a:	f8d3 3088 	ldr.w	r3, [r3, #136]	; 0x88
 800703e:	f003 0303 	and.w	r3, r3, #3
 8007042:	3b01      	subs	r3, #1
 8007044:	2b02      	cmp	r3, #2
 8007046:	f240 80e5 	bls.w	8007214 <UART_SetConfig+0x260>
 800704a:	f5b0 4f00 	cmp.w	r0, #32768	; 0x8000
 800704e:	f000 80fb 	beq.w	8007248 <UART_SetConfig+0x294>
 8007052:	f7fe fd45 	bl	8005ae0 <HAL_RCC_GetPCLK2Freq>
 8007056:	bb90      	cbnz	r0, 80070be <UART_SetConfig+0x10a>
 8007058:	2300      	movs	r3, #0
 800705a:	e9c4 3319 	strd	r3, r3, [r4, #100]	; 0x64
 800705e:	2000      	movs	r0, #0
 8007060:	bdf8      	pop	{r3, r4, r5, r6, r7, pc}
 8007062:	f44f 5380 	mov.w	r3, #4096	; 0x1000
 8007066:	f2c4 0302 	movt	r3, #16386	; 0x4002
 800706a:	f64f 6208 	movw	r2, #65032	; 0xfe08
 800706e:	f8d3 3088 	ldr.w	r3, [r3, #136]	; 0x88
 8007072:	f6c0 0200 	movt	r2, #2048	; 0x800
 8007076:	f003 030c 	and.w	r3, r3, #12
 800707a:	5cd3      	ldrb	r3, [r2, r3]
 800707c:	f5b0 4f00 	cmp.w	r0, #32768	; 0x8000
 8007080:	d037      	beq.n	80070f2 <UART_SetConfig+0x13e>
 8007082:	2b08      	cmp	r3, #8
 8007084:	d8d0      	bhi.n	8007028 <UART_SetConfig+0x74>
 8007086:	a201      	add	r2, pc, #4	; (adr r2, 800708c <UART_SetConfig+0xd8>)
 8007088:	f852 f023 	ldr.w	pc, [r2, r3, lsl #2]
 800708c:	0800720f 	.word	0x0800720f
 8007090:	08007053 	.word	0x08007053
 8007094:	080070e9 	.word	0x080070e9
 8007098:	08007029 	.word	0x08007029
 800709c:	08007203 	.word	0x08007203
 80070a0:	08007029 	.word	0x08007029
 80070a4:	08007029 	.word	0x08007029
 80070a8:	08007029 	.word	0x08007029
 80070ac:	080070bb 	.word	0x080070bb
 80070b0:	2b30      	cmp	r3, #48	; 0x30
 80070b2:	d1b9      	bne.n	8007028 <UART_SetConfig+0x74>
 80070b4:	f5b0 4f00 	cmp.w	r0, #32768	; 0x8000
 80070b8:	d032      	beq.n	8007120 <UART_SetConfig+0x16c>
 80070ba:	f44f 4000 	mov.w	r0, #32768	; 0x8000
 80070be:	6863      	ldr	r3, [r4, #4]
 80070c0:	f64f 72ef 	movw	r2, #65519	; 0xffef
 80070c4:	eb00 0053 	add.w	r0, r0, r3, lsr #1
 80070c8:	fbb0 f3f3 	udiv	r3, r0, r3
 80070cc:	f1a3 0110 	sub.w	r1, r3, #16
 80070d0:	4291      	cmp	r1, r2
 80070d2:	d8a9      	bhi.n	8007028 <UART_SetConfig+0x74>
 80070d4:	6822      	ldr	r2, [r4, #0]
 80070d6:	60d3      	str	r3, [r2, #12]
 80070d8:	2300      	movs	r3, #0
 80070da:	e9c4 3319 	strd	r3, r3, [r4, #100]	; 0x64
 80070de:	2000      	movs	r0, #0
 80070e0:	bdf8      	pop	{r3, r4, r5, r6, r7, pc}
 80070e2:	f5b0 4f00 	cmp.w	r0, #32768	; 0x8000
 80070e6:	d032      	beq.n	800714e <UART_SetConfig+0x19a>
 80070e8:	f44f 5010 	mov.w	r0, #9216	; 0x2400
 80070ec:	f2c0 00f4 	movt	r0, #244	; 0xf4
 80070f0:	e7e5      	b.n	80070be <UART_SetConfig+0x10a>
 80070f2:	2b08      	cmp	r3, #8
 80070f4:	d898      	bhi.n	8007028 <UART_SetConfig+0x74>
 80070f6:	a201      	add	r2, pc, #4	; (adr r2, 80070fc <UART_SetConfig+0x148>)
 80070f8:	f852 f023 	ldr.w	pc, [r2, r3, lsl #2]
 80070fc:	08007243 	.word	0x08007243
 8007100:	08007249 	.word	0x08007249
 8007104:	0800714f 	.word	0x0800714f
 8007108:	08007029 	.word	0x08007029
 800710c:	08007235 	.word	0x08007235
 8007110:	08007029 	.word	0x08007029
 8007114:	08007029 	.word	0x08007029
 8007118:	08007029 	.word	0x08007029
 800711c:	08007121 	.word	0x08007121
 8007120:	f44f 3380 	mov.w	r3, #65536	; 0x10000
 8007124:	6862      	ldr	r2, [r4, #4]
 8007126:	f64f 71ef 	movw	r1, #65519	; 0xffef
 800712a:	eb03 0352 	add.w	r3, r3, r2, lsr #1
 800712e:	fbb3 f3f2 	udiv	r3, r3, r2
 8007132:	f1a3 0210 	sub.w	r2, r3, #16
 8007136:	428a      	cmp	r2, r1
 8007138:	f63f af76 	bhi.w	8007028 <UART_SetConfig+0x74>
 800713c:	f023 020f 	bic.w	r2, r3, #15
 8007140:	6821      	ldr	r1, [r4, #0]
 8007142:	b292      	uxth	r2, r2
 8007144:	f3c3 0342 	ubfx	r3, r3, #1, #3
 8007148:	4313      	orrs	r3, r2
 800714a:	60cb      	str	r3, [r1, #12]
 800714c:	e784      	b.n	8007058 <UART_SetConfig+0xa4>
 800714e:	f44f 4390 	mov.w	r3, #18432	; 0x4800
 8007152:	f2c0 13e8 	movt	r3, #488	; 0x1e8
 8007156:	e7e5      	b.n	8007124 <UART_SetConfig+0x170>
 8007158:	6893      	ldr	r3, [r2, #8]
 800715a:	f44f 5180 	mov.w	r1, #4096	; 0x1000
 800715e:	f423 6330 	bic.w	r3, r3, #2816	; 0xb00
 8007162:	432b      	orrs	r3, r5
 8007164:	f2c4 0102 	movt	r1, #16386	; 0x4002
 8007168:	6093      	str	r3, [r2, #8]
 800716a:	f8d1 3088 	ldr.w	r3, [r1, #136]	; 0x88
 800716e:	f403 6340 	and.w	r3, r3, #3072	; 0xc00
 8007172:	f5b3 6f00 	cmp.w	r3, #2048	; 0x800
 8007176:	d058      	beq.n	800722a <UART_SetConfig+0x276>
 8007178:	d809      	bhi.n	800718e <UART_SetConfig+0x1da>
 800717a:	2b00      	cmp	r3, #0
 800717c:	d050      	beq.n	8007220 <UART_SetConfig+0x26c>
 800717e:	f5b3 6f80 	cmp.w	r3, #1024	; 0x400
 8007182:	f47f af51 	bne.w	8007028 <UART_SetConfig+0x74>
 8007186:	f7fd ffe5 	bl	8005154 <HAL_RCC_GetSysClockFreq>
 800718a:	b930      	cbnz	r0, 800719a <UART_SetConfig+0x1e6>
 800718c:	e764      	b.n	8007058 <UART_SetConfig+0xa4>
 800718e:	f5b3 6f40 	cmp.w	r3, #3072	; 0xc00
 8007192:	f47f af49 	bne.w	8007028 <UART_SetConfig+0x74>
 8007196:	f44f 4000 	mov.w	r0, #32768	; 0x8000
 800719a:	6862      	ldr	r2, [r4, #4]
 800719c:	eb02 0342 	add.w	r3, r2, r2, lsl #1
 80071a0:	4283      	cmp	r3, r0
 80071a2:	f63f af41 	bhi.w	8007028 <UART_SetConfig+0x74>
 80071a6:	ebb0 3f02 	cmp.w	r0, r2, lsl #12
 80071aa:	f63f af3d 	bhi.w	8007028 <UART_SetConfig+0x74>
 80071ae:	0856      	lsrs	r6, r2, #1
 80071b0:	f44f 7380 	mov.w	r3, #256	; 0x100
 80071b4:	2700      	movs	r7, #0
 80071b6:	fbe3 6700 	umlal	r6, r7, r3, r0
 80071ba:	4630      	mov	r0, r6
 80071bc:	2300      	movs	r3, #0
 80071be:	4639      	mov	r1, r7
 80071c0:	f7f9 fd62 	bl	8000c88 <__aeabi_uldivmod>
 80071c4:	f64f 42ff 	movw	r2, #64767	; 0xfcff
 80071c8:	f5a0 7140 	sub.w	r1, r0, #768	; 0x300
 80071cc:	f2c0 020f 	movt	r2, #15
 80071d0:	4291      	cmp	r1, r2
 80071d2:	4603      	mov	r3, r0
 80071d4:	f63f af28 	bhi.w	8007028 <UART_SetConfig+0x74>
 80071d8:	e77c      	b.n	80070d4 <UART_SetConfig+0x120>
 80071da:	f44f 5380 	mov.w	r3, #4096	; 0x1000
 80071de:	f2c4 0302 	movt	r3, #16386	; 0x4002
 80071e2:	f8d3 3088 	ldr.w	r3, [r3, #136]	; 0x88
 80071e6:	f003 0330 	and.w	r3, r3, #48	; 0x30
 80071ea:	2b20      	cmp	r3, #32
 80071ec:	f43f af79 	beq.w	80070e2 <UART_SetConfig+0x12e>
 80071f0:	f63f af5e 	bhi.w	80070b0 <UART_SetConfig+0xfc>
 80071f4:	b143      	cbz	r3, 8007208 <UART_SetConfig+0x254>
 80071f6:	2b10      	cmp	r3, #16
 80071f8:	f47f af16 	bne.w	8007028 <UART_SetConfig+0x74>
 80071fc:	f5b0 4f00 	cmp.w	r0, #32768	; 0x8000
 8007200:	d018      	beq.n	8007234 <UART_SetConfig+0x280>
 8007202:	f7fd ffa7 	bl	8005154 <HAL_RCC_GetSysClockFreq>
 8007206:	e726      	b.n	8007056 <UART_SetConfig+0xa2>
 8007208:	f5b0 4f00 	cmp.w	r0, #32768	; 0x8000
 800720c:	d019      	beq.n	8007242 <UART_SetConfig+0x28e>
 800720e:	f7fe fc51 	bl	8005ab4 <HAL_RCC_GetPCLK1Freq>
 8007212:	e720      	b.n	8007056 <UART_SetConfig+0xa2>
 8007214:	f64f 6204 	movw	r2, #65028	; 0xfe04
 8007218:	f6c0 0200 	movt	r2, #2048	; 0x800
 800721c:	5cd3      	ldrb	r3, [r2, r3]
 800721e:	e72d      	b.n	800707c <UART_SetConfig+0xc8>
 8007220:	f7fe fc48 	bl	8005ab4 <HAL_RCC_GetPCLK1Freq>
 8007224:	2800      	cmp	r0, #0
 8007226:	d1b8      	bne.n	800719a <UART_SetConfig+0x1e6>
 8007228:	e716      	b.n	8007058 <UART_SetConfig+0xa4>
 800722a:	f44f 5010 	mov.w	r0, #9216	; 0x2400
 800722e:	f2c0 00f4 	movt	r0, #244	; 0xf4
 8007232:	e7b2      	b.n	800719a <UART_SetConfig+0x1e6>
 8007234:	f7fd ff8e 	bl	8005154 <HAL_RCC_GetSysClockFreq>
 8007238:	2800      	cmp	r0, #0
 800723a:	f43f af0d 	beq.w	8007058 <UART_SetConfig+0xa4>
 800723e:	0043      	lsls	r3, r0, #1
 8007240:	e770      	b.n	8007124 <UART_SetConfig+0x170>
 8007242:	f7fe fc37 	bl	8005ab4 <HAL_RCC_GetPCLK1Freq>
 8007246:	e7f7      	b.n	8007238 <UART_SetConfig+0x284>
 8007248:	f7fe fc4a 	bl	8005ae0 <HAL_RCC_GetPCLK2Freq>
 800724c:	e7f4      	b.n	8007238 <UART_SetConfig+0x284>
 800724e:	bf00      	nop

08007250 <UART_AdvFeatureConfig>:
 8007250:	6a43      	ldr	r3, [r0, #36]	; 0x24
 8007252:	07da      	lsls	r2, r3, #31
 8007254:	b410      	push	{r4}
 8007256:	d506      	bpl.n	8007266 <UART_AdvFeatureConfig+0x16>
 8007258:	6801      	ldr	r1, [r0, #0]
 800725a:	6a84      	ldr	r4, [r0, #40]	; 0x28
 800725c:	684a      	ldr	r2, [r1, #4]
 800725e:	f422 3200 	bic.w	r2, r2, #131072	; 0x20000
 8007262:	4322      	orrs	r2, r4
 8007264:	604a      	str	r2, [r1, #4]
 8007266:	079c      	lsls	r4, r3, #30
 8007268:	d506      	bpl.n	8007278 <UART_AdvFeatureConfig+0x28>
 800726a:	6801      	ldr	r1, [r0, #0]
 800726c:	6ac4      	ldr	r4, [r0, #44]	; 0x2c
 800726e:	684a      	ldr	r2, [r1, #4]
 8007270:	f422 3280 	bic.w	r2, r2, #65536	; 0x10000
 8007274:	4322      	orrs	r2, r4
 8007276:	604a      	str	r2, [r1, #4]
 8007278:	0759      	lsls	r1, r3, #29
 800727a:	d506      	bpl.n	800728a <UART_AdvFeatureConfig+0x3a>
 800727c:	6801      	ldr	r1, [r0, #0]
 800727e:	6b04      	ldr	r4, [r0, #48]	; 0x30
 8007280:	684a      	ldr	r2, [r1, #4]
 8007282:	f422 2280 	bic.w	r2, r2, #262144	; 0x40000
 8007286:	4322      	orrs	r2, r4
 8007288:	604a      	str	r2, [r1, #4]
 800728a:	071a      	lsls	r2, r3, #28
 800728c:	d506      	bpl.n	800729c <UART_AdvFeatureConfig+0x4c>
 800728e:	6801      	ldr	r1, [r0, #0]
 8007290:	6b44      	ldr	r4, [r0, #52]	; 0x34
 8007292:	684a      	ldr	r2, [r1, #4]
 8007294:	f422 4200 	bic.w	r2, r2, #32768	; 0x8000
 8007298:	4322      	orrs	r2, r4
 800729a:	604a      	str	r2, [r1, #4]
 800729c:	06dc      	lsls	r4, r3, #27
 800729e:	d506      	bpl.n	80072ae <UART_AdvFeatureConfig+0x5e>
 80072a0:	6801      	ldr	r1, [r0, #0]
 80072a2:	6b84      	ldr	r4, [r0, #56]	; 0x38
 80072a4:	688a      	ldr	r2, [r1, #8]
 80072a6:	f422 5280 	bic.w	r2, r2, #4096	; 0x1000
 80072aa:	4322      	orrs	r2, r4
 80072ac:	608a      	str	r2, [r1, #8]
 80072ae:	0699      	lsls	r1, r3, #26
 80072b0:	d506      	bpl.n	80072c0 <UART_AdvFeatureConfig+0x70>
 80072b2:	6801      	ldr	r1, [r0, #0]
 80072b4:	6bc4      	ldr	r4, [r0, #60]	; 0x3c
 80072b6:	688a      	ldr	r2, [r1, #8]
 80072b8:	f422 5200 	bic.w	r2, r2, #8192	; 0x2000
 80072bc:	4322      	orrs	r2, r4
 80072be:	608a      	str	r2, [r1, #8]
 80072c0:	065a      	lsls	r2, r3, #25
 80072c2:	d509      	bpl.n	80072d8 <UART_AdvFeatureConfig+0x88>
 80072c4:	6801      	ldr	r1, [r0, #0]
 80072c6:	6c04      	ldr	r4, [r0, #64]	; 0x40
 80072c8:	684a      	ldr	r2, [r1, #4]
 80072ca:	f422 1280 	bic.w	r2, r2, #1048576	; 0x100000
 80072ce:	4322      	orrs	r2, r4
 80072d0:	f5b4 1f80 	cmp.w	r4, #1048576	; 0x100000
 80072d4:	604a      	str	r2, [r1, #4]
 80072d6:	d00b      	beq.n	80072f0 <UART_AdvFeatureConfig+0xa0>
 80072d8:	061b      	lsls	r3, r3, #24
 80072da:	d506      	bpl.n	80072ea <UART_AdvFeatureConfig+0x9a>
 80072dc:	6802      	ldr	r2, [r0, #0]
 80072de:	6c81      	ldr	r1, [r0, #72]	; 0x48
 80072e0:	6853      	ldr	r3, [r2, #4]
 80072e2:	f423 2300 	bic.w	r3, r3, #524288	; 0x80000
 80072e6:	430b      	orrs	r3, r1
 80072e8:	6053      	str	r3, [r2, #4]
 80072ea:	f85d 4b04 	ldr.w	r4, [sp], #4
 80072ee:	4770      	bx	lr
 80072f0:	684a      	ldr	r2, [r1, #4]
 80072f2:	6c44      	ldr	r4, [r0, #68]	; 0x44
 80072f4:	f422 02c0 	bic.w	r2, r2, #6291456	; 0x600000
 80072f8:	4322      	orrs	r2, r4
 80072fa:	604a      	str	r2, [r1, #4]
 80072fc:	e7ec      	b.n	80072d8 <UART_AdvFeatureConfig+0x88>
 80072fe:	bf00      	nop

08007300 <UART_WaitOnFlagUntilTimeout>:
 8007300:	e92d 43f8 	stmdb	sp!, {r3, r4, r5, r6, r7, r8, r9, lr}
 8007304:	f8dd 8020 	ldr.w	r8, [sp, #32]
 8007308:	6804      	ldr	r4, [r0, #0]
 800730a:	4607      	mov	r7, r0
 800730c:	460e      	mov	r6, r1
 800730e:	4615      	mov	r5, r2
 8007310:	4699      	mov	r9, r3
 8007312:	f1b8 3fff 	cmp.w	r8, #4294967295
 8007316:	d10a      	bne.n	800732e <UART_WaitOnFlagUntilTimeout+0x2e>
 8007318:	69e3      	ldr	r3, [r4, #28]
 800731a:	ea36 0303 	bics.w	r3, r6, r3
 800731e:	bf0c      	ite	eq
 8007320:	2301      	moveq	r3, #1
 8007322:	2300      	movne	r3, #0
 8007324:	429d      	cmp	r5, r3
 8007326:	d0f7      	beq.n	8007318 <UART_WaitOnFlagUntilTimeout+0x18>
 8007328:	2000      	movs	r0, #0
 800732a:	e8bd 83f8 	ldmia.w	sp!, {r3, r4, r5, r6, r7, r8, r9, pc}
 800732e:	69e3      	ldr	r3, [r4, #28]
 8007330:	ea36 0303 	bics.w	r3, r6, r3
 8007334:	bf0c      	ite	eq
 8007336:	2301      	moveq	r3, #1
 8007338:	2300      	movne	r3, #0
 800733a:	42ab      	cmp	r3, r5
 800733c:	d1f4      	bne.n	8007328 <UART_WaitOnFlagUntilTimeout+0x28>
 800733e:	f7fc fcd7 	bl	8003cf0 <HAL_GetTick>
 8007342:	eba0 0009 	sub.w	r0, r0, r9
 8007346:	4540      	cmp	r0, r8
 8007348:	d831      	bhi.n	80073ae <UART_WaitOnFlagUntilTimeout+0xae>
 800734a:	f1b8 0f00 	cmp.w	r8, #0
 800734e:	d02e      	beq.n	80073ae <UART_WaitOnFlagUntilTimeout+0xae>
 8007350:	683c      	ldr	r4, [r7, #0]
 8007352:	6823      	ldr	r3, [r4, #0]
 8007354:	0759      	lsls	r1, r3, #29
 8007356:	4622      	mov	r2, r4
 8007358:	d5db      	bpl.n	8007312 <UART_WaitOnFlagUntilTimeout+0x12>
 800735a:	69e3      	ldr	r3, [r4, #28]
 800735c:	051b      	lsls	r3, r3, #20
 800735e:	d5d8      	bpl.n	8007312 <UART_WaitOnFlagUntilTimeout+0x12>
 8007360:	f44f 6300 	mov.w	r3, #2048	; 0x800
 8007364:	6223      	str	r3, [r4, #32]
 8007366:	e854 3f00 	ldrex	r3, [r4]
 800736a:	f423 73d0 	bic.w	r3, r3, #416	; 0x1a0
 800736e:	e844 3100 	strex	r1, r3, [r4]
 8007372:	b139      	cbz	r1, 8007384 <UART_WaitOnFlagUntilTimeout+0x84>
 8007374:	e852 3f00 	ldrex	r3, [r2]
 8007378:	f423 73d0 	bic.w	r3, r3, #416	; 0x1a0
 800737c:	e842 3100 	strex	r1, r3, [r2]
 8007380:	2900      	cmp	r1, #0
 8007382:	d1f7      	bne.n	8007374 <UART_WaitOnFlagUntilTimeout+0x74>
 8007384:	f102 0308 	add.w	r3, r2, #8
 8007388:	e853 3f00 	ldrex	r3, [r3]
 800738c:	f023 0301 	bic.w	r3, r3, #1
 8007390:	f102 0008 	add.w	r0, r2, #8
 8007394:	e840 3100 	strex	r1, r3, [r0]
 8007398:	2900      	cmp	r1, #0
 800739a:	d1f3      	bne.n	8007384 <UART_WaitOnFlagUntilTimeout+0x84>
 800739c:	2320      	movs	r3, #32
 800739e:	67bb      	str	r3, [r7, #120]	; 0x78
 80073a0:	f887 1074 	strb.w	r1, [r7, #116]	; 0x74
 80073a4:	67fb      	str	r3, [r7, #124]	; 0x7c
 80073a6:	2003      	movs	r0, #3
 80073a8:	f8c7 3080 	str.w	r3, [r7, #128]	; 0x80
 80073ac:	e7bd      	b.n	800732a <UART_WaitOnFlagUntilTimeout+0x2a>
 80073ae:	683a      	ldr	r2, [r7, #0]
 80073b0:	e852 3f00 	ldrex	r3, [r2]
 80073b4:	f423 73d0 	bic.w	r3, r3, #416	; 0x1a0
 80073b8:	e842 3100 	strex	r1, r3, [r2]
 80073bc:	2900      	cmp	r1, #0
 80073be:	d1f7      	bne.n	80073b0 <UART_WaitOnFlagUntilTimeout+0xb0>
 80073c0:	f102 0308 	add.w	r3, r2, #8
 80073c4:	e853 3f00 	ldrex	r3, [r3]
 80073c8:	f023 0301 	bic.w	r3, r3, #1
 80073cc:	f102 0008 	add.w	r0, r2, #8
 80073d0:	e840 3100 	strex	r1, r3, [r0]
 80073d4:	2900      	cmp	r1, #0
 80073d6:	d1f3      	bne.n	80073c0 <UART_WaitOnFlagUntilTimeout+0xc0>
 80073d8:	2320      	movs	r3, #32
 80073da:	67bb      	str	r3, [r7, #120]	; 0x78
 80073dc:	f887 1074 	strb.w	r1, [r7, #116]	; 0x74
 80073e0:	2003      	movs	r0, #3
 80073e2:	67fb      	str	r3, [r7, #124]	; 0x7c
 80073e4:	e7a1      	b.n	800732a <UART_WaitOnFlagUntilTimeout+0x2a>
 80073e6:	bf00      	nop

080073e8 <HAL_UART_Init>:
 80073e8:	2800      	cmp	r0, #0
 80073ea:	d062      	beq.n	80074b2 <HAL_UART_Init+0xca>
 80073ec:	b570      	push	{r4, r5, r6, lr}
 80073ee:	6f83      	ldr	r3, [r0, #120]	; 0x78
 80073f0:	b082      	sub	sp, #8
 80073f2:	4604      	mov	r4, r0
 80073f4:	2b00      	cmp	r3, #0
 80073f6:	d049      	beq.n	800748c <HAL_UART_Init+0xa4>
 80073f8:	6822      	ldr	r2, [r4, #0]
 80073fa:	2324      	movs	r3, #36	; 0x24
 80073fc:	67a3      	str	r3, [r4, #120]	; 0x78
 80073fe:	6813      	ldr	r3, [r2, #0]
 8007400:	f023 0301 	bic.w	r3, r3, #1
 8007404:	6013      	str	r3, [r2, #0]
 8007406:	4620      	mov	r0, r4
 8007408:	f7ff fdd4 	bl	8006fb4 <UART_SetConfig>
 800740c:	2801      	cmp	r0, #1
 800740e:	d03a      	beq.n	8007486 <HAL_UART_Init+0x9e>
 8007410:	6a63      	ldr	r3, [r4, #36]	; 0x24
 8007412:	2b00      	cmp	r3, #0
 8007414:	d133      	bne.n	800747e <HAL_UART_Init+0x96>
 8007416:	6823      	ldr	r3, [r4, #0]
 8007418:	685a      	ldr	r2, [r3, #4]
 800741a:	f422 4290 	bic.w	r2, r2, #18432	; 0x4800
 800741e:	605a      	str	r2, [r3, #4]
 8007420:	689a      	ldr	r2, [r3, #8]
 8007422:	f022 022a 	bic.w	r2, r2, #42	; 0x2a
 8007426:	609a      	str	r2, [r3, #8]
 8007428:	6819      	ldr	r1, [r3, #0]
 800742a:	2600      	movs	r6, #0
 800742c:	f041 0101 	orr.w	r1, r1, #1
 8007430:	6019      	str	r1, [r3, #0]
 8007432:	f8c4 6080 	str.w	r6, [r4, #128]	; 0x80
 8007436:	f7fc fc5b 	bl	8003cf0 <HAL_GetTick>
 800743a:	6823      	ldr	r3, [r4, #0]
 800743c:	681a      	ldr	r2, [r3, #0]
 800743e:	0712      	lsls	r2, r2, #28
 8007440:	4605      	mov	r5, r0
 8007442:	d40c      	bmi.n	800745e <HAL_UART_Init+0x76>
 8007444:	681b      	ldr	r3, [r3, #0]
 8007446:	075b      	lsls	r3, r3, #29
 8007448:	d425      	bmi.n	8007496 <HAL_UART_Init+0xae>
 800744a:	2300      	movs	r3, #0
 800744c:	2220      	movs	r2, #32
 800744e:	67a2      	str	r2, [r4, #120]	; 0x78
 8007450:	f884 3074 	strb.w	r3, [r4, #116]	; 0x74
 8007454:	67e2      	str	r2, [r4, #124]	; 0x7c
 8007456:	4618      	mov	r0, r3
 8007458:	6623      	str	r3, [r4, #96]	; 0x60
 800745a:	b002      	add	sp, #8
 800745c:	bd70      	pop	{r4, r5, r6, pc}
 800745e:	f06f 437e 	mvn.w	r3, #4261412864	; 0xfe000000
 8007462:	9300      	str	r3, [sp, #0]
 8007464:	4632      	mov	r2, r6
 8007466:	4603      	mov	r3, r0
 8007468:	f44f 1100 	mov.w	r1, #2097152	; 0x200000
 800746c:	4620      	mov	r0, r4
 800746e:	f7ff ff47 	bl	8007300 <UART_WaitOnFlagUntilTimeout>
 8007472:	b9e0      	cbnz	r0, 80074ae <HAL_UART_Init+0xc6>
 8007474:	6823      	ldr	r3, [r4, #0]
 8007476:	681b      	ldr	r3, [r3, #0]
 8007478:	075b      	lsls	r3, r3, #29
 800747a:	d40c      	bmi.n	8007496 <HAL_UART_Init+0xae>
 800747c:	e7e5      	b.n	800744a <HAL_UART_Init+0x62>
 800747e:	4620      	mov	r0, r4
 8007480:	f7ff fee6 	bl	8007250 <UART_AdvFeatureConfig>
 8007484:	e7c7      	b.n	8007416 <HAL_UART_Init+0x2e>
 8007486:	2001      	movs	r0, #1
 8007488:	b002      	add	sp, #8
 800748a:	bd70      	pop	{r4, r5, r6, pc}
 800748c:	f880 3074 	strb.w	r3, [r0, #116]	; 0x74
 8007490:	f7fc fa64 	bl	800395c <HAL_UART_MspInit>
 8007494:	e7b0      	b.n	80073f8 <HAL_UART_Init+0x10>
 8007496:	f06f 427e 	mvn.w	r2, #4261412864	; 0xfe000000
 800749a:	9200      	str	r2, [sp, #0]
 800749c:	462b      	mov	r3, r5
 800749e:	2200      	movs	r2, #0
 80074a0:	f44f 0180 	mov.w	r1, #4194304	; 0x400000
 80074a4:	4620      	mov	r0, r4
 80074a6:	f7ff ff2b 	bl	8007300 <UART_WaitOnFlagUntilTimeout>
 80074aa:	2800      	cmp	r0, #0
 80074ac:	d0cd      	beq.n	800744a <HAL_UART_Init+0x62>
 80074ae:	2003      	movs	r0, #3
 80074b0:	e7d3      	b.n	800745a <HAL_UART_Init+0x72>
 80074b2:	2001      	movs	r0, #1
 80074b4:	4770      	bx	lr
 80074b6:	bf00      	nop

080074b8 <UART_Start_Receive_DMA>:
 80074b8:	b5f8      	push	{r3, r4, r5, r6, r7, lr}
 80074ba:	4604      	mov	r4, r0
 80074bc:	6f00      	ldr	r0, [r0, #112]	; 0x70
 80074be:	6561      	str	r1, [r4, #84]	; 0x54
 80074c0:	2500      	movs	r5, #0
 80074c2:	2322      	movs	r3, #34	; 0x22
 80074c4:	f8c4 5080 	str.w	r5, [r4, #128]	; 0x80
 80074c8:	f8a4 2058 	strh.w	r2, [r4, #88]	; 0x58
 80074cc:	67e3      	str	r3, [r4, #124]	; 0x7c
 80074ce:	b1b0      	cbz	r0, 80074fe <UART_Start_Receive_DMA+0x46>
 80074d0:	f646 761d 	movw	r6, #28445	; 0x6f1d
 80074d4:	f6c0 0600 	movt	r6, #2048	; 0x800
 80074d8:	f646 7701 	movw	r7, #28417	; 0x6f01
 80074dc:	4613      	mov	r3, r2
 80074de:	62c6      	str	r6, [r0, #44]	; 0x2c
 80074e0:	460a      	mov	r2, r1
 80074e2:	f646 3631 	movw	r6, #27441	; 0x6b31
 80074e6:	6821      	ldr	r1, [r4, #0]
 80074e8:	6385      	str	r5, [r0, #56]	; 0x38
 80074ea:	f6c0 0700 	movt	r7, #2048	; 0x800
 80074ee:	f6c0 0600 	movt	r6, #2048	; 0x800
 80074f2:	6307      	str	r7, [r0, #48]	; 0x30
 80074f4:	6346      	str	r6, [r0, #52]	; 0x34
 80074f6:	3124      	adds	r1, #36	; 0x24
 80074f8:	f7fd f970 	bl	80047dc <HAL_DMA_Start_IT>
 80074fc:	bb40      	cbnz	r0, 8007550 <UART_Start_Receive_DMA+0x98>
 80074fe:	6923      	ldr	r3, [r4, #16]
 8007500:	2200      	movs	r2, #0
 8007502:	f884 2074 	strb.w	r2, [r4, #116]	; 0x74
 8007506:	b14b      	cbz	r3, 800751c <UART_Start_Receive_DMA+0x64>
 8007508:	6823      	ldr	r3, [r4, #0]
 800750a:	e853 2f00 	ldrex	r2, [r3]
 800750e:	f442 7280 	orr.w	r2, r2, #256	; 0x100
 8007512:	e843 2100 	strex	r1, r2, [r3]
 8007516:	2900      	cmp	r1, #0
 8007518:	d1f7      	bne.n	800750a <UART_Start_Receive_DMA+0x52>
 800751a:	e000      	b.n	800751e <UART_Start_Receive_DMA+0x66>
 800751c:	6823      	ldr	r3, [r4, #0]
 800751e:	f103 0208 	add.w	r2, r3, #8
 8007522:	e852 2f00 	ldrex	r2, [r2]
 8007526:	f042 0201 	orr.w	r2, r2, #1
 800752a:	f103 0008 	add.w	r0, r3, #8
 800752e:	e840 2100 	strex	r1, r2, [r0]
 8007532:	2900      	cmp	r1, #0
 8007534:	d1f3      	bne.n	800751e <UART_Start_Receive_DMA+0x66>
 8007536:	f103 0208 	add.w	r2, r3, #8
 800753a:	e852 2f00 	ldrex	r2, [r2]
 800753e:	f042 0240 	orr.w	r2, r2, #64	; 0x40
 8007542:	f103 0108 	add.w	r1, r3, #8
 8007546:	e841 2000 	strex	r0, r2, [r1]
 800754a:	2800      	cmp	r0, #0
 800754c:	d1f3      	bne.n	8007536 <UART_Start_Receive_DMA+0x7e>
 800754e:	bdf8      	pop	{r3, r4, r5, r6, r7, pc}
 8007550:	2210      	movs	r2, #16
 8007552:	2320      	movs	r3, #32
 8007554:	f884 5074 	strb.w	r5, [r4, #116]	; 0x74
 8007558:	f8c4 2080 	str.w	r2, [r4, #128]	; 0x80
 800755c:	2001      	movs	r0, #1
 800755e:	67e3      	str	r3, [r4, #124]	; 0x7c
 8007560:	bdf8      	pop	{r3, r4, r5, r6, r7, pc}
 8007562:	bf00      	nop

08007564 <HAL_UART_Receive_DMA>:
 8007564:	6fc3      	ldr	r3, [r0, #124]	; 0x7c
 8007566:	2b20      	cmp	r3, #32
 8007568:	d123      	bne.n	80075b2 <HAL_UART_Receive_DMA+0x4e>
 800756a:	b301      	cbz	r1, 80075ae <HAL_UART_Receive_DMA+0x4a>
 800756c:	b1fa      	cbz	r2, 80075ae <HAL_UART_Receive_DMA+0x4a>
 800756e:	f890 3074 	ldrb.w	r3, [r0, #116]	; 0x74
 8007572:	2b01      	cmp	r3, #1
 8007574:	d01d      	beq.n	80075b2 <HAL_UART_Receive_DMA+0x4e>
 8007576:	b430      	push	{r4, r5}
 8007578:	f44f 4300 	mov.w	r3, #32768	; 0x8000
 800757c:	6804      	ldr	r4, [r0, #0]
 800757e:	2501      	movs	r5, #1
 8007580:	f2c4 0300 	movt	r3, #16384	; 0x4000
 8007584:	f880 5074 	strb.w	r5, [r0, #116]	; 0x74
 8007588:	429c      	cmp	r4, r3
 800758a:	f04f 0500 	mov.w	r5, #0
 800758e:	6605      	str	r5, [r0, #96]	; 0x60
 8007590:	d00a      	beq.n	80075a8 <HAL_UART_Receive_DMA+0x44>
 8007592:	6863      	ldr	r3, [r4, #4]
 8007594:	021b      	lsls	r3, r3, #8
 8007596:	d507      	bpl.n	80075a8 <HAL_UART_Receive_DMA+0x44>
 8007598:	e854 3f00 	ldrex	r3, [r4]
 800759c:	f043 6380 	orr.w	r3, r3, #67108864	; 0x4000000
 80075a0:	e844 3500 	strex	r5, r3, [r4]
 80075a4:	2d00      	cmp	r5, #0
 80075a6:	d1f7      	bne.n	8007598 <HAL_UART_Receive_DMA+0x34>
 80075a8:	bc30      	pop	{r4, r5}
 80075aa:	f7ff bf85 	b.w	80074b8 <UART_Start_Receive_DMA>
 80075ae:	2001      	movs	r0, #1
 80075b0:	4770      	bx	lr
 80075b2:	2002      	movs	r0, #2
 80075b4:	4770      	bx	lr
 80075b6:	bf00      	nop

080075b8 <HAL_UARTEx_WakeupCallback>:
 80075b8:	4770      	bx	lr
 80075ba:	bf00      	nop

080075bc <TimerCallback>:
 80075bc:	b510      	push	{r4, lr}
 80075be:	f002 f817 	bl	80095f0 <pvTimerGetTimerID>
 80075c2:	b120      	cbz	r0, 80075ce <TimerCallback+0x12>
 80075c4:	e8bd 4010 	ldmia.w	sp!, {r4, lr}
 80075c8:	e9d0 3000 	ldrd	r3, r0, [r0]
 80075cc:	4718      	bx	r3
 80075ce:	bd10      	pop	{r4, pc}

080075d0 <SysTick_Handler>:
 80075d0:	b508      	push	{r3, lr}
 80075d2:	f24e 0310 	movw	r3, #57360	; 0xe010
 80075d6:	f2ce 0300 	movt	r3, #57344	; 0xe000
 80075da:	681b      	ldr	r3, [r3, #0]
 80075dc:	f001 fc6a 	bl	8008eb4 <xTaskGetSchedulerState>
 80075e0:	2801      	cmp	r0, #1
 80075e2:	d100      	bne.n	80075e6 <SysTick_Handler+0x16>
 80075e4:	bd08      	pop	{r3, pc}
 80075e6:	e8bd 4008 	ldmia.w	sp!, {r3, lr}
 80075ea:	f002 b8f3 	b.w	80097d4 <xPortSysTickHandler>
 80075ee:	bf00      	nop

080075f0 <osKernelInitialize>:
 80075f0:	f3ef 8305 	mrs	r3, IPSR
 80075f4:	b943      	cbnz	r3, 8007608 <osKernelInitialize+0x18>
 80075f6:	f241 3328 	movw	r3, #4904	; 0x1328
 80075fa:	f2c2 0300 	movt	r3, #8192	; 0x2000
 80075fe:	6818      	ldr	r0, [r3, #0]
 8007600:	b928      	cbnz	r0, 800760e <osKernelInitialize+0x1e>
 8007602:	2201      	movs	r2, #1
 8007604:	601a      	str	r2, [r3, #0]
 8007606:	4770      	bx	lr
 8007608:	f06f 0005 	mvn.w	r0, #5
 800760c:	4770      	bx	lr
 800760e:	f04f 30ff 	mov.w	r0, #4294967295
 8007612:	4770      	bx	lr

08007614 <osKernelStart>:
 8007614:	b510      	push	{r4, lr}
 8007616:	f3ef 8405 	mrs	r4, IPSR
 800761a:	b9a4      	cbnz	r4, 8007646 <osKernelStart+0x32>
 800761c:	f241 3328 	movw	r3, #4904	; 0x1328
 8007620:	f2c2 0300 	movt	r3, #8192	; 0x2000
 8007624:	681a      	ldr	r2, [r3, #0]
 8007626:	2a01      	cmp	r2, #1
 8007628:	d10a      	bne.n	8007640 <osKernelStart+0x2c>
 800762a:	f44f 426d 	mov.w	r2, #60672	; 0xed00
 800762e:	f2ce 0200 	movt	r2, #57344	; 0xe000
 8007632:	2102      	movs	r1, #2
 8007634:	77d4      	strb	r4, [r2, #31]
 8007636:	6019      	str	r1, [r3, #0]
 8007638:	f001 fa30 	bl	8008a9c <vTaskStartScheduler>
 800763c:	4620      	mov	r0, r4
 800763e:	bd10      	pop	{r4, pc}
 8007640:	f04f 30ff 	mov.w	r0, #4294967295
 8007644:	bd10      	pop	{r4, pc}
 8007646:	f06f 0005 	mvn.w	r0, #5
 800764a:	bd10      	pop	{r4, pc}

0800764c <osThreadNew>:
 800764c:	b5f0      	push	{r4, r5, r6, r7, lr}
 800764e:	b087      	sub	sp, #28
 8007650:	2400      	movs	r4, #0
 8007652:	4615      	mov	r5, r2
 8007654:	9405      	str	r4, [sp, #20]
 8007656:	f3ef 8205 	mrs	r2, IPSR
 800765a:	b9ea      	cbnz	r2, 8007698 <osThreadNew+0x4c>
 800765c:	b358      	cbz	r0, 80076b6 <osThreadNew+0x6a>
 800765e:	b1f5      	cbz	r5, 800769e <osThreadNew+0x52>
 8007660:	69ab      	ldr	r3, [r5, #24]
 8007662:	bb63      	cbnz	r3, 80076be <osThreadNew+0x72>
 8007664:	2318      	movs	r3, #24
 8007666:	686a      	ldr	r2, [r5, #4]
 8007668:	07d2      	lsls	r2, r2, #31
 800766a:	d424      	bmi.n	80076b6 <osThreadNew+0x6a>
 800766c:	696e      	ldr	r6, [r5, #20]
 800766e:	b356      	cbz	r6, 80076c6 <osThreadNew+0x7a>
 8007670:	ea4f 0c96 	mov.w	ip, r6, lsr #2
 8007674:	68ac      	ldr	r4, [r5, #8]
 8007676:	682f      	ldr	r7, [r5, #0]
 8007678:	b354      	cbz	r4, 80076d0 <osThreadNew+0x84>
 800767a:	68ea      	ldr	r2, [r5, #12]
 800767c:	2abf      	cmp	r2, #191	; 0xbf
 800767e:	d91a      	bls.n	80076b6 <osThreadNew+0x6a>
 8007680:	692d      	ldr	r5, [r5, #16]
 8007682:	b1c5      	cbz	r5, 80076b6 <osThreadNew+0x6a>
 8007684:	b1be      	cbz	r6, 80076b6 <osThreadNew+0x6a>
 8007686:	e9cd 5401 	strd	r5, r4, [sp, #4]
 800768a:	9300      	str	r3, [sp, #0]
 800768c:	4662      	mov	r2, ip
 800768e:	460b      	mov	r3, r1
 8007690:	4639      	mov	r1, r7
 8007692:	f001 f939 	bl	8008908 <xTaskCreateStatic>
 8007696:	4604      	mov	r4, r0
 8007698:	4620      	mov	r0, r4
 800769a:	b007      	add	sp, #28
 800769c:	bdf0      	pop	{r4, r5, r6, r7, pc}
 800769e:	f44f 6280 	mov.w	r2, #1024	; 0x400
 80076a2:	2318      	movs	r3, #24
 80076a4:	ac05      	add	r4, sp, #20
 80076a6:	9300      	str	r3, [sp, #0]
 80076a8:	9401      	str	r4, [sp, #4]
 80076aa:	460b      	mov	r3, r1
 80076ac:	4629      	mov	r1, r5
 80076ae:	f001 f963 	bl	8008978 <xTaskCreate>
 80076b2:	2801      	cmp	r0, #1
 80076b4:	d00a      	beq.n	80076cc <osThreadNew+0x80>
 80076b6:	2400      	movs	r4, #0
 80076b8:	4620      	mov	r0, r4
 80076ba:	b007      	add	sp, #28
 80076bc:	bdf0      	pop	{r4, r5, r6, r7, pc}
 80076be:	1e5c      	subs	r4, r3, #1
 80076c0:	2c37      	cmp	r4, #55	; 0x37
 80076c2:	d9d0      	bls.n	8007666 <osThreadNew+0x1a>
 80076c4:	e7f7      	b.n	80076b6 <osThreadNew+0x6a>
 80076c6:	f44f 6c80 	mov.w	ip, #1024	; 0x400
 80076ca:	e7d3      	b.n	8007674 <osThreadNew+0x28>
 80076cc:	9c05      	ldr	r4, [sp, #20]
 80076ce:	e7e3      	b.n	8007698 <osThreadNew+0x4c>
 80076d0:	68ee      	ldr	r6, [r5, #12]
 80076d2:	2e00      	cmp	r6, #0
 80076d4:	d1e0      	bne.n	8007698 <osThreadNew+0x4c>
 80076d6:	692d      	ldr	r5, [r5, #16]
 80076d8:	2d00      	cmp	r5, #0
 80076da:	d1dd      	bne.n	8007698 <osThreadNew+0x4c>
 80076dc:	fa1f f28c 	uxth.w	r2, ip
 80076e0:	463d      	mov	r5, r7
 80076e2:	e7df      	b.n	80076a4 <osThreadNew+0x58>

080076e4 <osDelay>:
 80076e4:	b510      	push	{r4, lr}
 80076e6:	f3ef 8405 	mrs	r4, IPSR
 80076ea:	b92c      	cbnz	r4, 80076f8 <osDelay+0x14>
 80076ec:	b900      	cbnz	r0, 80076f0 <osDelay+0xc>
 80076ee:	bd10      	pop	{r4, pc}
 80076f0:	f001 f976 	bl	80089e0 <vTaskDelay>
 80076f4:	4620      	mov	r0, r4
 80076f6:	bd10      	pop	{r4, pc}
 80076f8:	f06f 0005 	mvn.w	r0, #5
 80076fc:	bd10      	pop	{r4, pc}
 80076fe:	bf00      	nop

08007700 <osTimerNew>:
 8007700:	e92d 41f0 	stmdb	sp!, {r4, r5, r6, r7, r8, lr}
 8007704:	461c      	mov	r4, r3
 8007706:	b082      	sub	sp, #8
 8007708:	f3ef 8305 	mrs	r3, IPSR
 800770c:	b9bb      	cbnz	r3, 800773e <osTimerNew+0x3e>
 800770e:	4605      	mov	r5, r0
 8007710:	b1a8      	cbz	r0, 800773e <osTimerNew+0x3e>
 8007712:	2008      	movs	r0, #8
 8007714:	460e      	mov	r6, r1
 8007716:	4617      	mov	r7, r2
 8007718:	f002 f96e 	bl	80099f8 <pvPortMalloc>
 800771c:	4680      	mov	r8, r0
 800771e:	b170      	cbz	r0, 800773e <osTimerNew+0x3e>
 8007720:	1e32      	subs	r2, r6, #0
 8007722:	e9c0 5700 	strd	r5, r7, [r0]
 8007726:	bf18      	it	ne
 8007728:	2201      	movne	r2, #1
 800772a:	b1fc      	cbz	r4, 800776c <osTimerNew+0x6c>
 800772c:	68a3      	ldr	r3, [r4, #8]
 800772e:	6820      	ldr	r0, [r4, #0]
 8007730:	b1c3      	cbz	r3, 8007764 <osTimerNew+0x64>
 8007732:	68e1      	ldr	r1, [r4, #12]
 8007734:	292b      	cmp	r1, #43	; 0x2b
 8007736:	d806      	bhi.n	8007746 <osTimerNew+0x46>
 8007738:	4640      	mov	r0, r8
 800773a:	f002 fa2b 	bl	8009b94 <vPortFree>
 800773e:	2000      	movs	r0, #0
 8007740:	b002      	add	sp, #8
 8007742:	e8bd 81f0 	ldmia.w	sp!, {r4, r5, r6, r7, r8, pc}
 8007746:	f247 51bd 	movw	r1, #30141	; 0x75bd
 800774a:	f6c0 0100 	movt	r1, #2048	; 0x800
 800774e:	e9cd 1300 	strd	r1, r3, [sp]
 8007752:	4643      	mov	r3, r8
 8007754:	2101      	movs	r1, #1
 8007756:	f001 fe7f 	bl	8009458 <xTimerCreateStatic>
 800775a:	2800      	cmp	r0, #0
 800775c:	d0ec      	beq.n	8007738 <osTimerNew+0x38>
 800775e:	b002      	add	sp, #8
 8007760:	e8bd 81f0 	ldmia.w	sp!, {r4, r5, r6, r7, r8, pc}
 8007764:	68e3      	ldr	r3, [r4, #12]
 8007766:	2b00      	cmp	r3, #0
 8007768:	d1e6      	bne.n	8007738 <osTimerNew+0x38>
 800776a:	4604      	mov	r4, r0
 800776c:	f247 53bd 	movw	r3, #30141	; 0x75bd
 8007770:	f6c0 0300 	movt	r3, #2048	; 0x800
 8007774:	9300      	str	r3, [sp, #0]
 8007776:	4620      	mov	r0, r4
 8007778:	4643      	mov	r3, r8
 800777a:	2101      	movs	r1, #1
 800777c:	f001 fdfe 	bl	800937c <xTimerCreate>
 8007780:	2800      	cmp	r0, #0
 8007782:	d1ec      	bne.n	800775e <osTimerNew+0x5e>
 8007784:	e7d8      	b.n	8007738 <osTimerNew+0x38>
 8007786:	bf00      	nop

08007788 <osTimerStart>:
 8007788:	f3ef 8305 	mrs	r3, IPSR
 800778c:	b973      	cbnz	r3, 80077ac <osTimerStart+0x24>
 800778e:	b510      	push	{r4, lr}
 8007790:	b082      	sub	sp, #8
 8007792:	b170      	cbz	r0, 80077b2 <osTimerStart+0x2a>
 8007794:	460a      	mov	r2, r1
 8007796:	9300      	str	r3, [sp, #0]
 8007798:	2104      	movs	r1, #4
 800779a:	f001 fedd 	bl	8009558 <xTimerGenericCommand>
 800779e:	2801      	cmp	r0, #1
 80077a0:	bf0c      	ite	eq
 80077a2:	2000      	moveq	r0, #0
 80077a4:	f06f 0002 	mvnne.w	r0, #2
 80077a8:	b002      	add	sp, #8
 80077aa:	bd10      	pop	{r4, pc}
 80077ac:	f06f 0005 	mvn.w	r0, #5
 80077b0:	4770      	bx	lr
 80077b2:	f06f 0003 	mvn.w	r0, #3
 80077b6:	e7f7      	b.n	80077a8 <osTimerStart+0x20>

080077b8 <osTimerStop>:
 80077b8:	b530      	push	{r4, r5, lr}
 80077ba:	b083      	sub	sp, #12
 80077bc:	f3ef 8505 	mrs	r5, IPSR
 80077c0:	b9a5      	cbnz	r5, 80077ec <osTimerStop+0x34>
 80077c2:	4604      	mov	r4, r0
 80077c4:	b1a8      	cbz	r0, 80077f2 <osTimerStop+0x3a>
 80077c6:	f001 fef9 	bl	80095bc <xTimerIsTimerActive>
 80077ca:	b160      	cbz	r0, 80077e6 <osTimerStop+0x2e>
 80077cc:	9500      	str	r5, [sp, #0]
 80077ce:	4620      	mov	r0, r4
 80077d0:	462b      	mov	r3, r5
 80077d2:	462a      	mov	r2, r5
 80077d4:	2103      	movs	r1, #3
 80077d6:	f001 febf 	bl	8009558 <xTimerGenericCommand>
 80077da:	3801      	subs	r0, #1
 80077dc:	bf18      	it	ne
 80077de:	f04f 30ff 	movne.w	r0, #4294967295
 80077e2:	b003      	add	sp, #12
 80077e4:	bd30      	pop	{r4, r5, pc}
 80077e6:	f06f 0002 	mvn.w	r0, #2
 80077ea:	e7fa      	b.n	80077e2 <osTimerStop+0x2a>
 80077ec:	f06f 0005 	mvn.w	r0, #5
 80077f0:	e7f7      	b.n	80077e2 <osTimerStop+0x2a>
 80077f2:	f06f 0003 	mvn.w	r0, #3
 80077f6:	e7f4      	b.n	80077e2 <osTimerStop+0x2a>

080077f8 <vApplicationGetIdleTaskMemory>:
 80077f8:	b430      	push	{r4, r5}
 80077fa:	f240 2368 	movw	r3, #616	; 0x268
 80077fe:	f241 2468 	movw	r4, #4712	; 0x1268
 8007802:	f2c2 0400 	movt	r4, #8192	; 0x2000
 8007806:	f44f 6580 	mov.w	r5, #1024	; 0x400
 800780a:	f2c2 0300 	movt	r3, #8192	; 0x2000
 800780e:	6004      	str	r4, [r0, #0]
 8007810:	600b      	str	r3, [r1, #0]
 8007812:	6015      	str	r5, [r2, #0]
 8007814:	bc30      	pop	{r4, r5}
 8007816:	4770      	bx	lr

08007818 <vApplicationGetTimerTaskMemory>:
 8007818:	b430      	push	{r4, r5}
 800781a:	f241 332c 	movw	r3, #4908	; 0x132c
 800781e:	f243 342c 	movw	r4, #13100	; 0x332c
 8007822:	f2c2 0400 	movt	r4, #8192	; 0x2000
 8007826:	f44f 6500 	mov.w	r5, #2048	; 0x800
 800782a:	f2c2 0300 	movt	r3, #8192	; 0x2000
 800782e:	6004      	str	r4, [r0, #0]
 8007830:	600b      	str	r3, [r1, #0]
 8007832:	6015      	str	r5, [r2, #0]
 8007834:	bc30      	pop	{r4, r5}
 8007836:	4770      	bx	lr

08007838 <vListInitialise>:
 8007838:	f100 0308 	add.w	r3, r0, #8
 800783c:	f04f 31ff 	mov.w	r1, #4294967295
 8007840:	2200      	movs	r2, #0
 8007842:	e9c0 3303 	strd	r3, r3, [r0, #12]
 8007846:	6081      	str	r1, [r0, #8]
 8007848:	6002      	str	r2, [r0, #0]
 800784a:	6043      	str	r3, [r0, #4]
 800784c:	4770      	bx	lr
 800784e:	bf00      	nop

08007850 <vListInitialiseItem>:
 8007850:	2300      	movs	r3, #0
 8007852:	6103      	str	r3, [r0, #16]
 8007854:	4770      	bx	lr
 8007856:	bf00      	nop

08007858 <vListInsertEnd>:
 8007858:	6843      	ldr	r3, [r0, #4]
 800785a:	6802      	ldr	r2, [r0, #0]
 800785c:	b410      	push	{r4}
 800785e:	689c      	ldr	r4, [r3, #8]
 8007860:	608c      	str	r4, [r1, #8]
 8007862:	689c      	ldr	r4, [r3, #8]
 8007864:	604b      	str	r3, [r1, #4]
 8007866:	3201      	adds	r2, #1
 8007868:	6061      	str	r1, [r4, #4]
 800786a:	6099      	str	r1, [r3, #8]
 800786c:	f85d 4b04 	ldr.w	r4, [sp], #4
 8007870:	6108      	str	r0, [r1, #16]
 8007872:	6002      	str	r2, [r0, #0]
 8007874:	4770      	bx	lr
 8007876:	bf00      	nop

08007878 <vListInsert>:
 8007878:	b430      	push	{r4, r5}
 800787a:	680d      	ldr	r5, [r1, #0]
 800787c:	1c6b      	adds	r3, r5, #1
 800787e:	d010      	beq.n	80078a2 <vListInsert+0x2a>
 8007880:	f100 0308 	add.w	r3, r0, #8
 8007884:	461c      	mov	r4, r3
 8007886:	685b      	ldr	r3, [r3, #4]
 8007888:	681a      	ldr	r2, [r3, #0]
 800788a:	42aa      	cmp	r2, r5
 800788c:	d9fa      	bls.n	8007884 <vListInsert+0xc>
 800788e:	6802      	ldr	r2, [r0, #0]
 8007890:	604b      	str	r3, [r1, #4]
 8007892:	3201      	adds	r2, #1
 8007894:	6099      	str	r1, [r3, #8]
 8007896:	608c      	str	r4, [r1, #8]
 8007898:	6061      	str	r1, [r4, #4]
 800789a:	6108      	str	r0, [r1, #16]
 800789c:	bc30      	pop	{r4, r5}
 800789e:	6002      	str	r2, [r0, #0]
 80078a0:	4770      	bx	lr
 80078a2:	6904      	ldr	r4, [r0, #16]
 80078a4:	6863      	ldr	r3, [r4, #4]
 80078a6:	e7f2      	b.n	800788e <vListInsert+0x16>

080078a8 <uxListRemove>:
 80078a8:	6903      	ldr	r3, [r0, #16]
 80078aa:	b410      	push	{r4}
 80078ac:	e9d0 1201 	ldrd	r1, r2, [r0, #4]
 80078b0:	685c      	ldr	r4, [r3, #4]
 80078b2:	608a      	str	r2, [r1, #8]
 80078b4:	4284      	cmp	r4, r0
 80078b6:	6051      	str	r1, [r2, #4]
 80078b8:	bf08      	it	eq
 80078ba:	605a      	streq	r2, [r3, #4]
 80078bc:	681a      	ldr	r2, [r3, #0]
 80078be:	f85d 4b04 	ldr.w	r4, [sp], #4
 80078c2:	2100      	movs	r1, #0
 80078c4:	3a01      	subs	r2, #1
 80078c6:	6101      	str	r1, [r0, #16]
 80078c8:	601a      	str	r2, [r3, #0]
 80078ca:	6818      	ldr	r0, [r3, #0]
 80078cc:	4770      	bx	lr
 80078ce:	bf00      	nop

080078d0 <prvCopyDataToQueue>:
 80078d0:	b570      	push	{r4, r5, r6, lr}
 80078d2:	4604      	mov	r4, r0
 80078d4:	6c00      	ldr	r0, [r0, #64]	; 0x40
 80078d6:	6ba6      	ldr	r6, [r4, #56]	; 0x38
 80078d8:	b920      	cbnz	r0, 80078e4 <prvCopyDataToQueue+0x14>
 80078da:	6825      	ldr	r5, [r4, #0]
 80078dc:	b35d      	cbz	r5, 8007936 <prvCopyDataToQueue+0x66>
 80078de:	3601      	adds	r6, #1
 80078e0:	63a6      	str	r6, [r4, #56]	; 0x38
 80078e2:	bd70      	pop	{r4, r5, r6, pc}
 80078e4:	4615      	mov	r5, r2
 80078e6:	4602      	mov	r2, r0
 80078e8:	b985      	cbnz	r5, 800790c <prvCopyDataToQueue+0x3c>
 80078ea:	6860      	ldr	r0, [r4, #4]
 80078ec:	f002 fad7 	bl	8009e9e <memcpy>
 80078f0:	6863      	ldr	r3, [r4, #4]
 80078f2:	6c21      	ldr	r1, [r4, #64]	; 0x40
 80078f4:	68a2      	ldr	r2, [r4, #8]
 80078f6:	440b      	add	r3, r1
 80078f8:	4293      	cmp	r3, r2
 80078fa:	6063      	str	r3, [r4, #4]
 80078fc:	f106 0601 	add.w	r6, r6, #1
 8007900:	bf24      	itt	cs
 8007902:	6823      	ldrcs	r3, [r4, #0]
 8007904:	6063      	strcs	r3, [r4, #4]
 8007906:	4628      	mov	r0, r5
 8007908:	63a6      	str	r6, [r4, #56]	; 0x38
 800790a:	bd70      	pop	{r4, r5, r6, pc}
 800790c:	68e0      	ldr	r0, [r4, #12]
 800790e:	f002 fac6 	bl	8009e9e <memcpy>
 8007912:	6c22      	ldr	r2, [r4, #64]	; 0x40
 8007914:	68e3      	ldr	r3, [r4, #12]
 8007916:	6821      	ldr	r1, [r4, #0]
 8007918:	1a9b      	subs	r3, r3, r2
 800791a:	428b      	cmp	r3, r1
 800791c:	60e3      	str	r3, [r4, #12]
 800791e:	f1c2 0200 	rsb	r2, r2, #0
 8007922:	d202      	bcs.n	800792a <prvCopyDataToQueue+0x5a>
 8007924:	68a3      	ldr	r3, [r4, #8]
 8007926:	441a      	add	r2, r3
 8007928:	60e2      	str	r2, [r4, #12]
 800792a:	2d02      	cmp	r5, #2
 800792c:	d008      	beq.n	8007940 <prvCopyDataToQueue+0x70>
 800792e:	3601      	adds	r6, #1
 8007930:	2000      	movs	r0, #0
 8007932:	63a6      	str	r6, [r4, #56]	; 0x38
 8007934:	bd70      	pop	{r4, r5, r6, pc}
 8007936:	68a0      	ldr	r0, [r4, #8]
 8007938:	f001 face 	bl	8008ed8 <xTaskPriorityDisinherit>
 800793c:	60a5      	str	r5, [r4, #8]
 800793e:	e7ce      	b.n	80078de <prvCopyDataToQueue+0xe>
 8007940:	2e01      	cmp	r6, #1
 8007942:	bf38      	it	cc
 8007944:	2601      	movcc	r6, #1
 8007946:	2000      	movs	r0, #0
 8007948:	e7ca      	b.n	80078e0 <prvCopyDataToQueue+0x10>
 800794a:	bf00      	nop

0800794c <xQueueGenericCreateStatic>:
 800794c:	b530      	push	{r4, r5, lr}
 800794e:	b083      	sub	sp, #12
 8007950:	f89d 5018 	ldrb.w	r5, [sp, #24]
 8007954:	b940      	cbnz	r0, 8007968 <xQueueGenericCreateStatic+0x1c>
 8007956:	f04f 0350 	mov.w	r3, #80	; 0x50
 800795a:	f383 8811 	msr	BASEPRI, r3
 800795e:	f3bf 8f6f 	isb	sy
 8007962:	f3bf 8f4f 	dsb	sy
 8007966:	e7fe      	b.n	8007966 <xQueueGenericCreateStatic+0x1a>
 8007968:	461c      	mov	r4, r3
 800796a:	b1e3      	cbz	r3, 80079a6 <xQueueGenericCreateStatic+0x5a>
 800796c:	b172      	cbz	r2, 800798c <xQueueGenericCreateStatic+0x40>
 800796e:	b319      	cbz	r1, 80079b8 <xQueueGenericCreateStatic+0x6c>
 8007970:	2350      	movs	r3, #80	; 0x50
 8007972:	9301      	str	r3, [sp, #4]
 8007974:	9b01      	ldr	r3, [sp, #4]
 8007976:	2b50      	cmp	r3, #80	; 0x50
 8007978:	d027      	beq.n	80079ca <xQueueGenericCreateStatic+0x7e>
 800797a:	f04f 0350 	mov.w	r3, #80	; 0x50
 800797e:	f383 8811 	msr	BASEPRI, r3
 8007982:	f3bf 8f6f 	isb	sy
 8007986:	f3bf 8f4f 	dsb	sy
 800798a:	e7fe      	b.n	800798a <xQueueGenericCreateStatic+0x3e>
 800798c:	2900      	cmp	r1, #0
 800798e:	d146      	bne.n	8007a1e <xQueueGenericCreateStatic+0xd2>
 8007990:	2350      	movs	r3, #80	; 0x50
 8007992:	9301      	str	r3, [sp, #4]
 8007994:	9b01      	ldr	r3, [sp, #4]
 8007996:	2b50      	cmp	r3, #80	; 0x50
 8007998:	d1ef      	bne.n	800797a <xQueueGenericCreateStatic+0x2e>
 800799a:	2301      	movs	r3, #1
 800799c:	9a01      	ldr	r2, [sp, #4]
 800799e:	f884 3046 	strb.w	r3, [r4, #70]	; 0x46
 80079a2:	4622      	mov	r2, r4
 80079a4:	e015      	b.n	80079d2 <xQueueGenericCreateStatic+0x86>
 80079a6:	f04f 0350 	mov.w	r3, #80	; 0x50
 80079aa:	f383 8811 	msr	BASEPRI, r3
 80079ae:	f3bf 8f6f 	isb	sy
 80079b2:	f3bf 8f4f 	dsb	sy
 80079b6:	e7fe      	b.n	80079b6 <xQueueGenericCreateStatic+0x6a>
 80079b8:	f04f 0350 	mov.w	r3, #80	; 0x50
 80079bc:	f383 8811 	msr	BASEPRI, r3
 80079c0:	f3bf 8f6f 	isb	sy
 80079c4:	f3bf 8f4f 	dsb	sy
 80079c8:	e7fe      	b.n	80079c8 <xQueueGenericCreateStatic+0x7c>
 80079ca:	9b01      	ldr	r3, [sp, #4]
 80079cc:	2301      	movs	r3, #1
 80079ce:	f884 3046 	strb.w	r3, [r4, #70]	; 0x46
 80079d2:	e9c4 010f 	strd	r0, r1, [r4, #60]	; 0x3c
 80079d6:	6022      	str	r2, [r4, #0]
 80079d8:	f001 fe8c 	bl	80096f4 <vPortEnterCritical>
 80079dc:	e9d4 130f 	ldrd	r1, r3, [r4, #60]	; 0x3c
 80079e0:	6822      	ldr	r2, [r4, #0]
 80079e2:	6062      	str	r2, [r4, #4]
 80079e4:	fb01 f103 	mul.w	r1, r1, r3
 80079e8:	1acb      	subs	r3, r1, r3
 80079ea:	4413      	add	r3, r2
 80079ec:	2000      	movs	r0, #0
 80079ee:	440a      	add	r2, r1
 80079f0:	21ff      	movs	r1, #255	; 0xff
 80079f2:	63a0      	str	r0, [r4, #56]	; 0x38
 80079f4:	e9c4 2302 	strd	r2, r3, [r4, #8]
 80079f8:	f884 1044 	strb.w	r1, [r4, #68]	; 0x44
 80079fc:	f104 0010 	add.w	r0, r4, #16
 8007a00:	f884 1045 	strb.w	r1, [r4, #69]	; 0x45
 8007a04:	f7ff ff18 	bl	8007838 <vListInitialise>
 8007a08:	f104 0024 	add.w	r0, r4, #36	; 0x24
 8007a0c:	f7ff ff14 	bl	8007838 <vListInitialise>
 8007a10:	f001 fe94 	bl	800973c <vPortExitCritical>
 8007a14:	4620      	mov	r0, r4
 8007a16:	f884 504c 	strb.w	r5, [r4, #76]	; 0x4c
 8007a1a:	b003      	add	sp, #12
 8007a1c:	bd30      	pop	{r4, r5, pc}
 8007a1e:	f04f 0350 	mov.w	r3, #80	; 0x50
 8007a22:	f383 8811 	msr	BASEPRI, r3
 8007a26:	f3bf 8f6f 	isb	sy
 8007a2a:	f3bf 8f4f 	dsb	sy
 8007a2e:	e7fe      	b.n	8007a2e <xQueueGenericCreateStatic+0xe2>

08007a30 <xQueueGenericSend>:
 8007a30:	e92d 47f0 	stmdb	sp!, {r4, r5, r6, r7, r8, r9, sl, lr}
 8007a34:	b084      	sub	sp, #16
 8007a36:	9201      	str	r2, [sp, #4]
 8007a38:	2800      	cmp	r0, #0
 8007a3a:	f000 80ae 	beq.w	8007b9a <xQueueGenericSend+0x16a>
 8007a3e:	4688      	mov	r8, r1
 8007a40:	461f      	mov	r7, r3
 8007a42:	4604      	mov	r4, r0
 8007a44:	2900      	cmp	r1, #0
 8007a46:	f000 809b 	beq.w	8007b80 <xQueueGenericSend+0x150>
 8007a4a:	2f02      	cmp	r7, #2
 8007a4c:	d10b      	bne.n	8007a66 <xQueueGenericSend+0x36>
 8007a4e:	6be3      	ldr	r3, [r4, #60]	; 0x3c
 8007a50:	2b01      	cmp	r3, #1
 8007a52:	d008      	beq.n	8007a66 <xQueueGenericSend+0x36>
 8007a54:	f04f 0350 	mov.w	r3, #80	; 0x50
 8007a58:	f383 8811 	msr	BASEPRI, r3
 8007a5c:	f3bf 8f6f 	isb	sy
 8007a60:	f3bf 8f4f 	dsb	sy
 8007a64:	e7fe      	b.n	8007a64 <xQueueGenericSend+0x34>
 8007a66:	f001 fa25 	bl	8008eb4 <xTaskGetSchedulerState>
 8007a6a:	4682      	mov	sl, r0
 8007a6c:	2800      	cmp	r0, #0
 8007a6e:	f000 809d 	beq.w	8007bac <xQueueGenericSend+0x17c>
 8007a72:	f04f 0a00 	mov.w	sl, #0
 8007a76:	f64e 5904 	movw	r9, #60676	; 0xed04
 8007a7a:	f2ce 0900 	movt	r9, #57344	; 0xe000
 8007a7e:	f104 0624 	add.w	r6, r4, #36	; 0x24
 8007a82:	f001 fe37 	bl	80096f4 <vPortEnterCritical>
 8007a86:	6ba2      	ldr	r2, [r4, #56]	; 0x38
 8007a88:	6be3      	ldr	r3, [r4, #60]	; 0x3c
 8007a8a:	429a      	cmp	r2, r3
 8007a8c:	f0c0 80f4 	bcc.w	8007c78 <xQueueGenericSend+0x248>
 8007a90:	2f02      	cmp	r7, #2
 8007a92:	f000 80f1 	beq.w	8007c78 <xQueueGenericSend+0x248>
 8007a96:	9d01      	ldr	r5, [sp, #4]
 8007a98:	2d00      	cmp	r5, #0
 8007a9a:	f000 814d 	beq.w	8007d38 <xQueueGenericSend+0x308>
 8007a9e:	ad02      	add	r5, sp, #8
 8007aa0:	f1ba 0f00 	cmp.w	sl, #0
 8007aa4:	f000 80e4 	beq.w	8007c70 <xQueueGenericSend+0x240>
 8007aa8:	f001 fe48 	bl	800973c <vPortExitCritical>
 8007aac:	f001 f878 	bl	8008ba0 <vTaskSuspendAll>
 8007ab0:	f001 fe20 	bl	80096f4 <vPortEnterCritical>
 8007ab4:	f894 3044 	ldrb.w	r3, [r4, #68]	; 0x44
 8007ab8:	2bff      	cmp	r3, #255	; 0xff
 8007aba:	bf04      	itt	eq
 8007abc:	2300      	moveq	r3, #0
 8007abe:	f884 3044 	strbeq.w	r3, [r4, #68]	; 0x44
 8007ac2:	f894 3045 	ldrb.w	r3, [r4, #69]	; 0x45
 8007ac6:	2bff      	cmp	r3, #255	; 0xff
 8007ac8:	bf04      	itt	eq
 8007aca:	2300      	moveq	r3, #0
 8007acc:	f884 3045 	strbeq.w	r3, [r4, #69]	; 0x45
 8007ad0:	f001 fe34 	bl	800973c <vPortExitCritical>
 8007ad4:	4628      	mov	r0, r5
 8007ad6:	a901      	add	r1, sp, #4
 8007ad8:	f001 f99c 	bl	8008e14 <xTaskCheckForTimeOut>
 8007adc:	2800      	cmp	r0, #0
 8007ade:	f040 80eb 	bne.w	8007cb8 <xQueueGenericSend+0x288>
 8007ae2:	f001 fe07 	bl	80096f4 <vPortEnterCritical>
 8007ae6:	6ba2      	ldr	r2, [r4, #56]	; 0x38
 8007ae8:	6be3      	ldr	r3, [r4, #60]	; 0x3c
 8007aea:	429a      	cmp	r2, r3
 8007aec:	d06b      	beq.n	8007bc6 <xQueueGenericSend+0x196>
 8007aee:	f001 fe25 	bl	800973c <vPortExitCritical>
 8007af2:	f001 fdff 	bl	80096f4 <vPortEnterCritical>
 8007af6:	f894 5045 	ldrb.w	r5, [r4, #69]	; 0x45
 8007afa:	b26d      	sxtb	r5, r5
 8007afc:	2d00      	cmp	r5, #0
 8007afe:	dc05      	bgt.n	8007b0c <xQueueGenericSend+0xdc>
 8007b00:	e012      	b.n	8007b28 <xQueueGenericSend+0xf8>
 8007b02:	1e6b      	subs	r3, r5, #1
 8007b04:	f013 0fff 	tst.w	r3, #255	; 0xff
 8007b08:	b25d      	sxtb	r5, r3
 8007b0a:	d00d      	beq.n	8007b28 <xQueueGenericSend+0xf8>
 8007b0c:	6a63      	ldr	r3, [r4, #36]	; 0x24
 8007b0e:	4630      	mov	r0, r6
 8007b10:	b153      	cbz	r3, 8007b28 <xQueueGenericSend+0xf8>
 8007b12:	f001 f921 	bl	8008d58 <xTaskRemoveFromEventList>
 8007b16:	2800      	cmp	r0, #0
 8007b18:	d0f3      	beq.n	8007b02 <xQueueGenericSend+0xd2>
 8007b1a:	f001 f9c3 	bl	8008ea4 <vTaskMissedYield>
 8007b1e:	1e6b      	subs	r3, r5, #1
 8007b20:	f013 0fff 	tst.w	r3, #255	; 0xff
 8007b24:	b25d      	sxtb	r5, r3
 8007b26:	d1f1      	bne.n	8007b0c <xQueueGenericSend+0xdc>
 8007b28:	23ff      	movs	r3, #255	; 0xff
 8007b2a:	f884 3045 	strb.w	r3, [r4, #69]	; 0x45
 8007b2e:	f001 fe05 	bl	800973c <vPortExitCritical>
 8007b32:	f001 fddf 	bl	80096f4 <vPortEnterCritical>
 8007b36:	f894 5044 	ldrb.w	r5, [r4, #68]	; 0x44
 8007b3a:	b26d      	sxtb	r5, r5
 8007b3c:	2d00      	cmp	r5, #0
 8007b3e:	dd15      	ble.n	8007b6c <xQueueGenericSend+0x13c>
 8007b40:	f104 0a10 	add.w	sl, r4, #16
 8007b44:	e004      	b.n	8007b50 <xQueueGenericSend+0x120>
 8007b46:	1e6b      	subs	r3, r5, #1
 8007b48:	f013 0fff 	tst.w	r3, #255	; 0xff
 8007b4c:	b25d      	sxtb	r5, r3
 8007b4e:	d00d      	beq.n	8007b6c <xQueueGenericSend+0x13c>
 8007b50:	6923      	ldr	r3, [r4, #16]
 8007b52:	4650      	mov	r0, sl
 8007b54:	b153      	cbz	r3, 8007b6c <xQueueGenericSend+0x13c>
 8007b56:	f001 f8ff 	bl	8008d58 <xTaskRemoveFromEventList>
 8007b5a:	2800      	cmp	r0, #0
 8007b5c:	d0f3      	beq.n	8007b46 <xQueueGenericSend+0x116>
 8007b5e:	f001 f9a1 	bl	8008ea4 <vTaskMissedYield>
 8007b62:	1e6b      	subs	r3, r5, #1
 8007b64:	f013 0fff 	tst.w	r3, #255	; 0xff
 8007b68:	b25d      	sxtb	r5, r3
 8007b6a:	d1f1      	bne.n	8007b50 <xQueueGenericSend+0x120>
 8007b6c:	23ff      	movs	r3, #255	; 0xff
 8007b6e:	f884 3044 	strb.w	r3, [r4, #68]	; 0x44
 8007b72:	f001 fde3 	bl	800973c <vPortExitCritical>
 8007b76:	f001 f81b 	bl	8008bb0 <xTaskResumeAll>
 8007b7a:	f04f 0a01 	mov.w	sl, #1
 8007b7e:	e780      	b.n	8007a82 <xQueueGenericSend+0x52>
 8007b80:	6c03      	ldr	r3, [r0, #64]	; 0x40
 8007b82:	2b00      	cmp	r3, #0
 8007b84:	f43f af61 	beq.w	8007a4a <xQueueGenericSend+0x1a>
 8007b88:	f04f 0350 	mov.w	r3, #80	; 0x50
 8007b8c:	f383 8811 	msr	BASEPRI, r3
 8007b90:	f3bf 8f6f 	isb	sy
 8007b94:	f3bf 8f4f 	dsb	sy
 8007b98:	e7fe      	b.n	8007b98 <xQueueGenericSend+0x168>
 8007b9a:	f04f 0350 	mov.w	r3, #80	; 0x50
 8007b9e:	f383 8811 	msr	BASEPRI, r3
 8007ba2:	f3bf 8f6f 	isb	sy
 8007ba6:	f3bf 8f4f 	dsb	sy
 8007baa:	e7fe      	b.n	8007baa <xQueueGenericSend+0x17a>
 8007bac:	9b01      	ldr	r3, [sp, #4]
 8007bae:	2b00      	cmp	r3, #0
 8007bb0:	f43f af61 	beq.w	8007a76 <xQueueGenericSend+0x46>
 8007bb4:	f04f 0350 	mov.w	r3, #80	; 0x50
 8007bb8:	f383 8811 	msr	BASEPRI, r3
 8007bbc:	f3bf 8f6f 	isb	sy
 8007bc0:	f3bf 8f4f 	dsb	sy
 8007bc4:	e7fe      	b.n	8007bc4 <xQueueGenericSend+0x194>
 8007bc6:	f104 0a10 	add.w	sl, r4, #16
 8007bca:	f001 fdb7 	bl	800973c <vPortExitCritical>
 8007bce:	9901      	ldr	r1, [sp, #4]
 8007bd0:	4650      	mov	r0, sl
 8007bd2:	f001 f827 	bl	8008c24 <vTaskPlaceOnEventList>
 8007bd6:	f001 fd8d 	bl	80096f4 <vPortEnterCritical>
 8007bda:	f894 5045 	ldrb.w	r5, [r4, #69]	; 0x45
 8007bde:	b26d      	sxtb	r5, r5
 8007be0:	2d00      	cmp	r5, #0
 8007be2:	dc05      	bgt.n	8007bf0 <xQueueGenericSend+0x1c0>
 8007be4:	e012      	b.n	8007c0c <xQueueGenericSend+0x1dc>
 8007be6:	1e6b      	subs	r3, r5, #1
 8007be8:	f013 0fff 	tst.w	r3, #255	; 0xff
 8007bec:	b25d      	sxtb	r5, r3
 8007bee:	d00d      	beq.n	8007c0c <xQueueGenericSend+0x1dc>
 8007bf0:	6a63      	ldr	r3, [r4, #36]	; 0x24
 8007bf2:	4630      	mov	r0, r6
 8007bf4:	b153      	cbz	r3, 8007c0c <xQueueGenericSend+0x1dc>
 8007bf6:	f001 f8af 	bl	8008d58 <xTaskRemoveFromEventList>
 8007bfa:	2800      	cmp	r0, #0
 8007bfc:	d0f3      	beq.n	8007be6 <xQueueGenericSend+0x1b6>
 8007bfe:	f001 f951 	bl	8008ea4 <vTaskMissedYield>
 8007c02:	1e6b      	subs	r3, r5, #1
 8007c04:	f013 0fff 	tst.w	r3, #255	; 0xff
 8007c08:	b25d      	sxtb	r5, r3
 8007c0a:	d1f1      	bne.n	8007bf0 <xQueueGenericSend+0x1c0>
 8007c0c:	23ff      	movs	r3, #255	; 0xff
 8007c0e:	f884 3045 	strb.w	r3, [r4, #69]	; 0x45
 8007c12:	f001 fd93 	bl	800973c <vPortExitCritical>
 8007c16:	f001 fd6d 	bl	80096f4 <vPortEnterCritical>
 8007c1a:	f894 5044 	ldrb.w	r5, [r4, #68]	; 0x44
 8007c1e:	b26d      	sxtb	r5, r5
 8007c20:	2d00      	cmp	r5, #0
 8007c22:	dc05      	bgt.n	8007c30 <xQueueGenericSend+0x200>
 8007c24:	e012      	b.n	8007c4c <xQueueGenericSend+0x21c>
 8007c26:	1e6b      	subs	r3, r5, #1
 8007c28:	f013 0fff 	tst.w	r3, #255	; 0xff
 8007c2c:	b25d      	sxtb	r5, r3
 8007c2e:	d00d      	beq.n	8007c4c <xQueueGenericSend+0x21c>
 8007c30:	6923      	ldr	r3, [r4, #16]
 8007c32:	4650      	mov	r0, sl
 8007c34:	b153      	cbz	r3, 8007c4c <xQueueGenericSend+0x21c>
 8007c36:	f001 f88f 	bl	8008d58 <xTaskRemoveFromEventList>
 8007c3a:	2800      	cmp	r0, #0
 8007c3c:	d0f3      	beq.n	8007c26 <xQueueGenericSend+0x1f6>
 8007c3e:	f001 f931 	bl	8008ea4 <vTaskMissedYield>
 8007c42:	1e6b      	subs	r3, r5, #1
 8007c44:	f013 0fff 	tst.w	r3, #255	; 0xff
 8007c48:	b25d      	sxtb	r5, r3
 8007c4a:	d1f1      	bne.n	8007c30 <xQueueGenericSend+0x200>
 8007c4c:	23ff      	movs	r3, #255	; 0xff
 8007c4e:	f884 3044 	strb.w	r3, [r4, #68]	; 0x44
 8007c52:	f001 fd73 	bl	800973c <vPortExitCritical>
 8007c56:	f000 ffab 	bl	8008bb0 <xTaskResumeAll>
 8007c5a:	2800      	cmp	r0, #0
 8007c5c:	d18d      	bne.n	8007b7a <xQueueGenericSend+0x14a>
 8007c5e:	f04f 5380 	mov.w	r3, #268435456	; 0x10000000
 8007c62:	f8c9 3000 	str.w	r3, [r9]
 8007c66:	f3bf 8f4f 	dsb	sy
 8007c6a:	f3bf 8f6f 	isb	sy
 8007c6e:	e784      	b.n	8007b7a <xQueueGenericSend+0x14a>
 8007c70:	4628      	mov	r0, r5
 8007c72:	f001 f8c1 	bl	8008df8 <vTaskInternalSetTimeOutState>
 8007c76:	e717      	b.n	8007aa8 <xQueueGenericSend+0x78>
 8007c78:	463a      	mov	r2, r7
 8007c7a:	4641      	mov	r1, r8
 8007c7c:	4620      	mov	r0, r4
 8007c7e:	f7ff fe27 	bl	80078d0 <prvCopyDataToQueue>
 8007c82:	6a63      	ldr	r3, [r4, #36]	; 0x24
 8007c84:	b98b      	cbnz	r3, 8007caa <xQueueGenericSend+0x27a>
 8007c86:	b150      	cbz	r0, 8007c9e <xQueueGenericSend+0x26e>
 8007c88:	f64e 5304 	movw	r3, #60676	; 0xed04
 8007c8c:	f2ce 0300 	movt	r3, #57344	; 0xe000
 8007c90:	f04f 5280 	mov.w	r2, #268435456	; 0x10000000
 8007c94:	601a      	str	r2, [r3, #0]
 8007c96:	f3bf 8f4f 	dsb	sy
 8007c9a:	f3bf 8f6f 	isb	sy
 8007c9e:	f001 fd4d 	bl	800973c <vPortExitCritical>
 8007ca2:	2001      	movs	r0, #1
 8007ca4:	b004      	add	sp, #16
 8007ca6:	e8bd 87f0 	ldmia.w	sp!, {r4, r5, r6, r7, r8, r9, sl, pc}
 8007caa:	f104 0024 	add.w	r0, r4, #36	; 0x24
 8007cae:	f001 f853 	bl	8008d58 <xTaskRemoveFromEventList>
 8007cb2:	2800      	cmp	r0, #0
 8007cb4:	d0f3      	beq.n	8007c9e <xQueueGenericSend+0x26e>
 8007cb6:	e7e7      	b.n	8007c88 <xQueueGenericSend+0x258>
 8007cb8:	f001 fd1c 	bl	80096f4 <vPortEnterCritical>
 8007cbc:	f894 5045 	ldrb.w	r5, [r4, #69]	; 0x45
 8007cc0:	b26d      	sxtb	r5, r5
 8007cc2:	2d00      	cmp	r5, #0
 8007cc4:	dd11      	ble.n	8007cea <xQueueGenericSend+0x2ba>
 8007cc6:	f104 0624 	add.w	r6, r4, #36	; 0x24
 8007cca:	e004      	b.n	8007cd6 <xQueueGenericSend+0x2a6>
 8007ccc:	1e6b      	subs	r3, r5, #1
 8007cce:	f013 0fff 	tst.w	r3, #255	; 0xff
 8007cd2:	b25d      	sxtb	r5, r3
 8007cd4:	d009      	beq.n	8007cea <xQueueGenericSend+0x2ba>
 8007cd6:	6a63      	ldr	r3, [r4, #36]	; 0x24
 8007cd8:	4630      	mov	r0, r6
 8007cda:	b133      	cbz	r3, 8007cea <xQueueGenericSend+0x2ba>
 8007cdc:	f001 f83c 	bl	8008d58 <xTaskRemoveFromEventList>
 8007ce0:	2800      	cmp	r0, #0
 8007ce2:	d0f3      	beq.n	8007ccc <xQueueGenericSend+0x29c>
 8007ce4:	f001 f8de 	bl	8008ea4 <vTaskMissedYield>
 8007ce8:	e7f0      	b.n	8007ccc <xQueueGenericSend+0x29c>
 8007cea:	23ff      	movs	r3, #255	; 0xff
 8007cec:	f884 3045 	strb.w	r3, [r4, #69]	; 0x45
 8007cf0:	f001 fd24 	bl	800973c <vPortExitCritical>
 8007cf4:	f001 fcfe 	bl	80096f4 <vPortEnterCritical>
 8007cf8:	f894 5044 	ldrb.w	r5, [r4, #68]	; 0x44
 8007cfc:	b26d      	sxtb	r5, r5
 8007cfe:	2d00      	cmp	r5, #0
 8007d00:	dd11      	ble.n	8007d26 <xQueueGenericSend+0x2f6>
 8007d02:	f104 0610 	add.w	r6, r4, #16
 8007d06:	e004      	b.n	8007d12 <xQueueGenericSend+0x2e2>
 8007d08:	1e6b      	subs	r3, r5, #1
 8007d0a:	f013 0fff 	tst.w	r3, #255	; 0xff
 8007d0e:	b25d      	sxtb	r5, r3
 8007d10:	d009      	beq.n	8007d26 <xQueueGenericSend+0x2f6>
 8007d12:	6923      	ldr	r3, [r4, #16]
 8007d14:	4630      	mov	r0, r6
 8007d16:	b133      	cbz	r3, 8007d26 <xQueueGenericSend+0x2f6>
 8007d18:	f001 f81e 	bl	8008d58 <xTaskRemoveFromEventList>
 8007d1c:	2800      	cmp	r0, #0
 8007d1e:	d0f3      	beq.n	8007d08 <xQueueGenericSend+0x2d8>
 8007d20:	f001 f8c0 	bl	8008ea4 <vTaskMissedYield>
 8007d24:	e7f0      	b.n	8007d08 <xQueueGenericSend+0x2d8>
 8007d26:	23ff      	movs	r3, #255	; 0xff
 8007d28:	f884 3044 	strb.w	r3, [r4, #68]	; 0x44
 8007d2c:	f001 fd06 	bl	800973c <vPortExitCritical>
 8007d30:	f000 ff3e 	bl	8008bb0 <xTaskResumeAll>
 8007d34:	2000      	movs	r0, #0
 8007d36:	e7b5      	b.n	8007ca4 <xQueueGenericSend+0x274>
 8007d38:	f001 fd00 	bl	800973c <vPortExitCritical>
 8007d3c:	4628      	mov	r0, r5
 8007d3e:	e7b1      	b.n	8007ca4 <xQueueGenericSend+0x274>

08007d40 <xQueueGenericSendFromISR>:
 8007d40:	e92d 43f8 	stmdb	sp!, {r3, r4, r5, r6, r7, r8, r9, lr}
 8007d44:	2800      	cmp	r0, #0
 8007d46:	d035      	beq.n	8007db4 <xQueueGenericSendFromISR+0x74>
 8007d48:	4689      	mov	r9, r1
 8007d4a:	4690      	mov	r8, r2
 8007d4c:	461f      	mov	r7, r3
 8007d4e:	4604      	mov	r4, r0
 8007d50:	b321      	cbz	r1, 8007d9c <xQueueGenericSendFromISR+0x5c>
 8007d52:	2f02      	cmp	r7, #2
 8007d54:	d10b      	bne.n	8007d6e <xQueueGenericSendFromISR+0x2e>
 8007d56:	6be3      	ldr	r3, [r4, #60]	; 0x3c
 8007d58:	2b01      	cmp	r3, #1
 8007d5a:	d008      	beq.n	8007d6e <xQueueGenericSendFromISR+0x2e>
 8007d5c:	f04f 0350 	mov.w	r3, #80	; 0x50
 8007d60:	f383 8811 	msr	BASEPRI, r3
 8007d64:	f3bf 8f6f 	isb	sy
 8007d68:	f3bf 8f4f 	dsb	sy
 8007d6c:	e7fe      	b.n	8007d6c <xQueueGenericSendFromISR+0x2c>
 8007d6e:	f001 fe11 	bl	8009994 <vPortValidateInterruptPriority>
 8007d72:	f3ef 8611 	mrs	r6, BASEPRI
 8007d76:	f04f 0350 	mov.w	r3, #80	; 0x50
 8007d7a:	f383 8811 	msr	BASEPRI, r3
 8007d7e:	f3bf 8f6f 	isb	sy
 8007d82:	f3bf 8f4f 	dsb	sy
 8007d86:	6ba2      	ldr	r2, [r4, #56]	; 0x38
 8007d88:	6be3      	ldr	r3, [r4, #60]	; 0x3c
 8007d8a:	429a      	cmp	r2, r3
 8007d8c:	d31b      	bcc.n	8007dc6 <xQueueGenericSendFromISR+0x86>
 8007d8e:	2f02      	cmp	r7, #2
 8007d90:	d019      	beq.n	8007dc6 <xQueueGenericSendFromISR+0x86>
 8007d92:	2000      	movs	r0, #0
 8007d94:	f386 8811 	msr	BASEPRI, r6
 8007d98:	e8bd 83f8 	ldmia.w	sp!, {r3, r4, r5, r6, r7, r8, r9, pc}
 8007d9c:	6c03      	ldr	r3, [r0, #64]	; 0x40
 8007d9e:	2b00      	cmp	r3, #0
 8007da0:	d0d7      	beq.n	8007d52 <xQueueGenericSendFromISR+0x12>
 8007da2:	f04f 0350 	mov.w	r3, #80	; 0x50
 8007da6:	f383 8811 	msr	BASEPRI, r3
 8007daa:	f3bf 8f6f 	isb	sy
 8007dae:	f3bf 8f4f 	dsb	sy
 8007db2:	e7fe      	b.n	8007db2 <xQueueGenericSendFromISR+0x72>
 8007db4:	f04f 0350 	mov.w	r3, #80	; 0x50
 8007db8:	f383 8811 	msr	BASEPRI, r3
 8007dbc:	f3bf 8f6f 	isb	sy
 8007dc0:	f3bf 8f4f 	dsb	sy
 8007dc4:	e7fe      	b.n	8007dc4 <xQueueGenericSendFromISR+0x84>
 8007dc6:	f894 5045 	ldrb.w	r5, [r4, #69]	; 0x45
 8007dca:	6ba3      	ldr	r3, [r4, #56]	; 0x38
 8007dcc:	463a      	mov	r2, r7
 8007dce:	4649      	mov	r1, r9
 8007dd0:	b26d      	sxtb	r5, r5
 8007dd2:	4620      	mov	r0, r4
 8007dd4:	f7ff fd7c 	bl	80078d0 <prvCopyDataToQueue>
 8007dd8:	1c6b      	adds	r3, r5, #1
 8007dda:	d008      	beq.n	8007dee <xQueueGenericSendFromISR+0xae>
 8007ddc:	1c6b      	adds	r3, r5, #1
 8007dde:	b25b      	sxtb	r3, r3
 8007de0:	f884 3045 	strb.w	r3, [r4, #69]	; 0x45
 8007de4:	2001      	movs	r0, #1
 8007de6:	f386 8811 	msr	BASEPRI, r6
 8007dea:	e8bd 83f8 	ldmia.w	sp!, {r3, r4, r5, r6, r7, r8, r9, pc}
 8007dee:	6a63      	ldr	r3, [r4, #36]	; 0x24
 8007df0:	2b00      	cmp	r3, #0
 8007df2:	d0f7      	beq.n	8007de4 <xQueueGenericSendFromISR+0xa4>
 8007df4:	f104 0024 	add.w	r0, r4, #36	; 0x24
 8007df8:	f000 ffae 	bl	8008d58 <xTaskRemoveFromEventList>
 8007dfc:	2800      	cmp	r0, #0
 8007dfe:	d0f1      	beq.n	8007de4 <xQueueGenericSendFromISR+0xa4>
 8007e00:	f1b8 0f00 	cmp.w	r8, #0
 8007e04:	d0ee      	beq.n	8007de4 <xQueueGenericSendFromISR+0xa4>
 8007e06:	2001      	movs	r0, #1
 8007e08:	f8c8 0000 	str.w	r0, [r8]
 8007e0c:	e7c2      	b.n	8007d94 <xQueueGenericSendFromISR+0x54>
 8007e0e:	bf00      	nop

08007e10 <xQueueReceive>:
 8007e10:	e92d 43f0 	stmdb	sp!, {r4, r5, r6, r7, r8, r9, lr}
 8007e14:	b085      	sub	sp, #20
 8007e16:	9201      	str	r2, [sp, #4]
 8007e18:	2800      	cmp	r0, #0
 8007e1a:	f000 80f7 	beq.w	800800c <xQueueReceive+0x1fc>
 8007e1e:	460e      	mov	r6, r1
 8007e20:	4604      	mov	r4, r0
 8007e22:	2900      	cmp	r1, #0
 8007e24:	f000 808c 	beq.w	8007f40 <xQueueReceive+0x130>
 8007e28:	f001 f844 	bl	8008eb4 <xTaskGetSchedulerState>
 8007e2c:	2800      	cmp	r0, #0
 8007e2e:	d07b      	beq.n	8007f28 <xQueueReceive+0x118>
 8007e30:	f001 fc60 	bl	80096f4 <vPortEnterCritical>
 8007e34:	6ba5      	ldr	r5, [r4, #56]	; 0x38
 8007e36:	2d00      	cmp	r5, #0
 8007e38:	f040 814a 	bne.w	80080d0 <xQueueReceive+0x2c0>
 8007e3c:	9b01      	ldr	r3, [sp, #4]
 8007e3e:	2b00      	cmp	r3, #0
 8007e40:	f000 80de 	beq.w	8008000 <xQueueReceive+0x1f0>
 8007e44:	a802      	add	r0, sp, #8
 8007e46:	f000 ffd7 	bl	8008df8 <vTaskInternalSetTimeOutState>
 8007e4a:	f64e 5804 	movw	r8, #60676	; 0xed04
 8007e4e:	f2ce 0800 	movt	r8, #57344	; 0xe000
 8007e52:	f104 0724 	add.w	r7, r4, #36	; 0x24
 8007e56:	f001 fc71 	bl	800973c <vPortExitCritical>
 8007e5a:	f000 fea1 	bl	8008ba0 <vTaskSuspendAll>
 8007e5e:	f001 fc49 	bl	80096f4 <vPortEnterCritical>
 8007e62:	f894 3044 	ldrb.w	r3, [r4, #68]	; 0x44
 8007e66:	2bff      	cmp	r3, #255	; 0xff
 8007e68:	bf04      	itt	eq
 8007e6a:	2300      	moveq	r3, #0
 8007e6c:	f884 3044 	strbeq.w	r3, [r4, #68]	; 0x44
 8007e70:	f894 3045 	ldrb.w	r3, [r4, #69]	; 0x45
 8007e74:	2bff      	cmp	r3, #255	; 0xff
 8007e76:	bf04      	itt	eq
 8007e78:	2300      	moveq	r3, #0
 8007e7a:	f884 3045 	strbeq.w	r3, [r4, #69]	; 0x45
 8007e7e:	f001 fc5d 	bl	800973c <vPortExitCritical>
 8007e82:	a901      	add	r1, sp, #4
 8007e84:	a802      	add	r0, sp, #8
 8007e86:	f000 ffc5 	bl	8008e14 <xTaskCheckForTimeOut>
 8007e8a:	2800      	cmp	r0, #0
 8007e8c:	d165      	bne.n	8007f5a <xQueueReceive+0x14a>
 8007e8e:	f001 fc31 	bl	80096f4 <vPortEnterCritical>
 8007e92:	6ba3      	ldr	r3, [r4, #56]	; 0x38
 8007e94:	2b00      	cmp	r3, #0
 8007e96:	f000 80c2 	beq.w	800801e <xQueueReceive+0x20e>
 8007e9a:	f001 fc4f 	bl	800973c <vPortExitCritical>
 8007e9e:	f001 fc29 	bl	80096f4 <vPortEnterCritical>
 8007ea2:	f894 5045 	ldrb.w	r5, [r4, #69]	; 0x45
 8007ea6:	b26d      	sxtb	r5, r5
 8007ea8:	2d00      	cmp	r5, #0
 8007eaa:	dc05      	bgt.n	8007eb8 <xQueueReceive+0xa8>
 8007eac:	e012      	b.n	8007ed4 <xQueueReceive+0xc4>
 8007eae:	1e6b      	subs	r3, r5, #1
 8007eb0:	f013 0fff 	tst.w	r3, #255	; 0xff
 8007eb4:	b25d      	sxtb	r5, r3
 8007eb6:	d00d      	beq.n	8007ed4 <xQueueReceive+0xc4>
 8007eb8:	6a63      	ldr	r3, [r4, #36]	; 0x24
 8007eba:	4638      	mov	r0, r7
 8007ebc:	b153      	cbz	r3, 8007ed4 <xQueueReceive+0xc4>
 8007ebe:	f000 ff4b 	bl	8008d58 <xTaskRemoveFromEventList>
 8007ec2:	2800      	cmp	r0, #0
 8007ec4:	d0f3      	beq.n	8007eae <xQueueReceive+0x9e>
 8007ec6:	f000 ffed 	bl	8008ea4 <vTaskMissedYield>
 8007eca:	1e6b      	subs	r3, r5, #1
 8007ecc:	f013 0fff 	tst.w	r3, #255	; 0xff
 8007ed0:	b25d      	sxtb	r5, r3
 8007ed2:	d1f1      	bne.n	8007eb8 <xQueueReceive+0xa8>
 8007ed4:	23ff      	movs	r3, #255	; 0xff
 8007ed6:	f884 3045 	strb.w	r3, [r4, #69]	; 0x45
 8007eda:	f001 fc2f 	bl	800973c <vPortExitCritical>
 8007ede:	f001 fc09 	bl	80096f4 <vPortEnterCritical>
 8007ee2:	f894 5044 	ldrb.w	r5, [r4, #68]	; 0x44
 8007ee6:	b26d      	sxtb	r5, r5
 8007ee8:	2d00      	cmp	r5, #0
 8007eea:	dd15      	ble.n	8007f18 <xQueueReceive+0x108>
 8007eec:	f104 0910 	add.w	r9, r4, #16
 8007ef0:	e004      	b.n	8007efc <xQueueReceive+0xec>
 8007ef2:	1e6b      	subs	r3, r5, #1
 8007ef4:	f013 0fff 	tst.w	r3, #255	; 0xff
 8007ef8:	b25d      	sxtb	r5, r3
 8007efa:	d00d      	beq.n	8007f18 <xQueueReceive+0x108>
 8007efc:	6923      	ldr	r3, [r4, #16]
 8007efe:	4648      	mov	r0, r9
 8007f00:	b153      	cbz	r3, 8007f18 <xQueueReceive+0x108>
 8007f02:	f000 ff29 	bl	8008d58 <xTaskRemoveFromEventList>
 8007f06:	2800      	cmp	r0, #0
 8007f08:	d0f3      	beq.n	8007ef2 <xQueueReceive+0xe2>
 8007f0a:	f000 ffcb 	bl	8008ea4 <vTaskMissedYield>
 8007f0e:	1e6b      	subs	r3, r5, #1
 8007f10:	f013 0fff 	tst.w	r3, #255	; 0xff
 8007f14:	b25d      	sxtb	r5, r3
 8007f16:	d1f1      	bne.n	8007efc <xQueueReceive+0xec>
 8007f18:	23ff      	movs	r3, #255	; 0xff
 8007f1a:	f884 3044 	strb.w	r3, [r4, #68]	; 0x44
 8007f1e:	f001 fc0d 	bl	800973c <vPortExitCritical>
 8007f22:	f000 fe45 	bl	8008bb0 <xTaskResumeAll>
 8007f26:	e062      	b.n	8007fee <xQueueReceive+0x1de>
 8007f28:	9b01      	ldr	r3, [sp, #4]
 8007f2a:	2b00      	cmp	r3, #0
 8007f2c:	d080      	beq.n	8007e30 <xQueueReceive+0x20>
 8007f2e:	f04f 0350 	mov.w	r3, #80	; 0x50
 8007f32:	f383 8811 	msr	BASEPRI, r3
 8007f36:	f3bf 8f6f 	isb	sy
 8007f3a:	f3bf 8f4f 	dsb	sy
 8007f3e:	e7fe      	b.n	8007f3e <xQueueReceive+0x12e>
 8007f40:	6c03      	ldr	r3, [r0, #64]	; 0x40
 8007f42:	2b00      	cmp	r3, #0
 8007f44:	f43f af70 	beq.w	8007e28 <xQueueReceive+0x18>
 8007f48:	f04f 0350 	mov.w	r3, #80	; 0x50
 8007f4c:	f383 8811 	msr	BASEPRI, r3
 8007f50:	f3bf 8f6f 	isb	sy
 8007f54:	f3bf 8f4f 	dsb	sy
 8007f58:	e7fe      	b.n	8007f58 <xQueueReceive+0x148>
 8007f5a:	f001 fbcb 	bl	80096f4 <vPortEnterCritical>
 8007f5e:	f894 5045 	ldrb.w	r5, [r4, #69]	; 0x45
 8007f62:	b26d      	sxtb	r5, r5
 8007f64:	2d00      	cmp	r5, #0
 8007f66:	dc05      	bgt.n	8007f74 <xQueueReceive+0x164>
 8007f68:	e012      	b.n	8007f90 <xQueueReceive+0x180>
 8007f6a:	1e6b      	subs	r3, r5, #1
 8007f6c:	f013 0fff 	tst.w	r3, #255	; 0xff
 8007f70:	b25d      	sxtb	r5, r3
 8007f72:	d00d      	beq.n	8007f90 <xQueueReceive+0x180>
 8007f74:	6a63      	ldr	r3, [r4, #36]	; 0x24
 8007f76:	4638      	mov	r0, r7
 8007f78:	b153      	cbz	r3, 8007f90 <xQueueReceive+0x180>
 8007f7a:	f000 feed 	bl	8008d58 <xTaskRemoveFromEventList>
 8007f7e:	2800      	cmp	r0, #0
 8007f80:	d0f3      	beq.n	8007f6a <xQueueReceive+0x15a>
 8007f82:	f000 ff8f 	bl	8008ea4 <vTaskMissedYield>
 8007f86:	1e6b      	subs	r3, r5, #1
 8007f88:	f013 0fff 	tst.w	r3, #255	; 0xff
 8007f8c:	b25d      	sxtb	r5, r3
 8007f8e:	d1f1      	bne.n	8007f74 <xQueueReceive+0x164>
 8007f90:	23ff      	movs	r3, #255	; 0xff
 8007f92:	f884 3045 	strb.w	r3, [r4, #69]	; 0x45
 8007f96:	f001 fbd1 	bl	800973c <vPortExitCritical>
 8007f9a:	f001 fbab 	bl	80096f4 <vPortEnterCritical>
 8007f9e:	f894 5044 	ldrb.w	r5, [r4, #68]	; 0x44
 8007fa2:	b26d      	sxtb	r5, r5
 8007fa4:	2d00      	cmp	r5, #0
 8007fa6:	dd15      	ble.n	8007fd4 <xQueueReceive+0x1c4>
 8007fa8:	f104 0910 	add.w	r9, r4, #16
 8007fac:	e004      	b.n	8007fb8 <xQueueReceive+0x1a8>
 8007fae:	1e6b      	subs	r3, r5, #1
 8007fb0:	f013 0fff 	tst.w	r3, #255	; 0xff
 8007fb4:	b25d      	sxtb	r5, r3
 8007fb6:	d00d      	beq.n	8007fd4 <xQueueReceive+0x1c4>
 8007fb8:	6923      	ldr	r3, [r4, #16]
 8007fba:	4648      	mov	r0, r9
 8007fbc:	b153      	cbz	r3, 8007fd4 <xQueueReceive+0x1c4>
 8007fbe:	f000 fecb 	bl	8008d58 <xTaskRemoveFromEventList>
 8007fc2:	2800      	cmp	r0, #0
 8007fc4:	d0f3      	beq.n	8007fae <xQueueReceive+0x19e>
 8007fc6:	f000 ff6d 	bl	8008ea4 <vTaskMissedYield>
 8007fca:	1e6b      	subs	r3, r5, #1
 8007fcc:	f013 0fff 	tst.w	r3, #255	; 0xff
 8007fd0:	b25d      	sxtb	r5, r3
 8007fd2:	d1f1      	bne.n	8007fb8 <xQueueReceive+0x1a8>
 8007fd4:	23ff      	movs	r3, #255	; 0xff
 8007fd6:	f884 3044 	strb.w	r3, [r4, #68]	; 0x44
 8007fda:	f001 fbaf 	bl	800973c <vPortExitCritical>
 8007fde:	f000 fde7 	bl	8008bb0 <xTaskResumeAll>
 8007fe2:	f001 fb87 	bl	80096f4 <vPortEnterCritical>
 8007fe6:	6ba3      	ldr	r3, [r4, #56]	; 0x38
 8007fe8:	b153      	cbz	r3, 8008000 <xQueueReceive+0x1f0>
 8007fea:	f001 fba7 	bl	800973c <vPortExitCritical>
 8007fee:	f001 fb81 	bl	80096f4 <vPortEnterCritical>
 8007ff2:	6ba5      	ldr	r5, [r4, #56]	; 0x38
 8007ff4:	2d00      	cmp	r5, #0
 8007ff6:	d16b      	bne.n	80080d0 <xQueueReceive+0x2c0>
 8007ff8:	9b01      	ldr	r3, [sp, #4]
 8007ffa:	2b00      	cmp	r3, #0
 8007ffc:	f47f af2b 	bne.w	8007e56 <xQueueReceive+0x46>
 8008000:	f001 fb9c 	bl	800973c <vPortExitCritical>
 8008004:	2000      	movs	r0, #0
 8008006:	b005      	add	sp, #20
 8008008:	e8bd 83f0 	ldmia.w	sp!, {r4, r5, r6, r7, r8, r9, pc}
 800800c:	f04f 0350 	mov.w	r3, #80	; 0x50
 8008010:	f383 8811 	msr	BASEPRI, r3
 8008014:	f3bf 8f6f 	isb	sy
 8008018:	f3bf 8f4f 	dsb	sy
 800801c:	e7fe      	b.n	800801c <xQueueReceive+0x20c>
 800801e:	f001 fb8d 	bl	800973c <vPortExitCritical>
 8008022:	9901      	ldr	r1, [sp, #4]
 8008024:	4638      	mov	r0, r7
 8008026:	f000 fdfd 	bl	8008c24 <vTaskPlaceOnEventList>
 800802a:	f001 fb63 	bl	80096f4 <vPortEnterCritical>
 800802e:	f894 5045 	ldrb.w	r5, [r4, #69]	; 0x45
 8008032:	b26d      	sxtb	r5, r5
 8008034:	2d00      	cmp	r5, #0
 8008036:	dc05      	bgt.n	8008044 <xQueueReceive+0x234>
 8008038:	e012      	b.n	8008060 <xQueueReceive+0x250>
 800803a:	1e6b      	subs	r3, r5, #1
 800803c:	f013 0fff 	tst.w	r3, #255	; 0xff
 8008040:	b25d      	sxtb	r5, r3
 8008042:	d00d      	beq.n	8008060 <xQueueReceive+0x250>
 8008044:	6a63      	ldr	r3, [r4, #36]	; 0x24
 8008046:	4638      	mov	r0, r7
 8008048:	b153      	cbz	r3, 8008060 <xQueueReceive+0x250>
 800804a:	f000 fe85 	bl	8008d58 <xTaskRemoveFromEventList>
 800804e:	2800      	cmp	r0, #0
 8008050:	d0f3      	beq.n	800803a <xQueueReceive+0x22a>
 8008052:	f000 ff27 	bl	8008ea4 <vTaskMissedYield>
 8008056:	1e6b      	subs	r3, r5, #1
 8008058:	f013 0fff 	tst.w	r3, #255	; 0xff
 800805c:	b25d      	sxtb	r5, r3
 800805e:	d1f1      	bne.n	8008044 <xQueueReceive+0x234>
 8008060:	23ff      	movs	r3, #255	; 0xff
 8008062:	f884 3045 	strb.w	r3, [r4, #69]	; 0x45
 8008066:	f001 fb69 	bl	800973c <vPortExitCritical>
 800806a:	f001 fb43 	bl	80096f4 <vPortEnterCritical>
 800806e:	f894 5044 	ldrb.w	r5, [r4, #68]	; 0x44
 8008072:	b26d      	sxtb	r5, r5
 8008074:	2d00      	cmp	r5, #0
 8008076:	dd15      	ble.n	80080a4 <xQueueReceive+0x294>
 8008078:	f104 0910 	add.w	r9, r4, #16
 800807c:	e004      	b.n	8008088 <xQueueReceive+0x278>
 800807e:	1e6b      	subs	r3, r5, #1
 8008080:	f013 0fff 	tst.w	r3, #255	; 0xff
 8008084:	b25d      	sxtb	r5, r3
 8008086:	d00d      	beq.n	80080a4 <xQueueReceive+0x294>
 8008088:	6923      	ldr	r3, [r4, #16]
 800808a:	4648      	mov	r0, r9
 800808c:	b153      	cbz	r3, 80080a4 <xQueueReceive+0x294>
 800808e:	f000 fe63 	bl	8008d58 <xTaskRemoveFromEventList>
 8008092:	2800      	cmp	r0, #0
 8008094:	d0f3      	beq.n	800807e <xQueueReceive+0x26e>
 8008096:	f000 ff05 	bl	8008ea4 <vTaskMissedYield>
 800809a:	1e6b      	subs	r3, r5, #1
 800809c:	f013 0fff 	tst.w	r3, #255	; 0xff
 80080a0:	b25d      	sxtb	r5, r3
 80080a2:	d1f1      	bne.n	8008088 <xQueueReceive+0x278>
 80080a4:	23ff      	movs	r3, #255	; 0xff
 80080a6:	f884 3044 	strb.w	r3, [r4, #68]	; 0x44
 80080aa:	f001 fb47 	bl	800973c <vPortExitCritical>
 80080ae:	f000 fd7f 	bl	8008bb0 <xTaskResumeAll>
 80080b2:	2800      	cmp	r0, #0
 80080b4:	d19b      	bne.n	8007fee <xQueueReceive+0x1de>
 80080b6:	f04f 5380 	mov.w	r3, #268435456	; 0x10000000
 80080ba:	f8c8 3000 	str.w	r3, [r8]
 80080be:	f3bf 8f4f 	dsb	sy
 80080c2:	f3bf 8f6f 	isb	sy
 80080c6:	f001 fb15 	bl	80096f4 <vPortEnterCritical>
 80080ca:	6ba5      	ldr	r5, [r4, #56]	; 0x38
 80080cc:	2d00      	cmp	r5, #0
 80080ce:	d093      	beq.n	8007ff8 <xQueueReceive+0x1e8>
 80080d0:	6c22      	ldr	r2, [r4, #64]	; 0x40
 80080d2:	b152      	cbz	r2, 80080ea <xQueueReceive+0x2da>
 80080d4:	e9d4 0302 	ldrd	r0, r3, [r4, #8]
 80080d8:	1899      	adds	r1, r3, r2
 80080da:	4281      	cmp	r1, r0
 80080dc:	60e1      	str	r1, [r4, #12]
 80080de:	bf24      	itt	cs
 80080e0:	6821      	ldrcs	r1, [r4, #0]
 80080e2:	60e1      	strcs	r1, [r4, #12]
 80080e4:	4630      	mov	r0, r6
 80080e6:	f001 feda 	bl	8009e9e <memcpy>
 80080ea:	3d01      	subs	r5, #1
 80080ec:	63a5      	str	r5, [r4, #56]	; 0x38
 80080ee:	6923      	ldr	r3, [r4, #16]
 80080f0:	b91b      	cbnz	r3, 80080fa <xQueueReceive+0x2ea>
 80080f2:	f001 fb23 	bl	800973c <vPortExitCritical>
 80080f6:	2001      	movs	r0, #1
 80080f8:	e785      	b.n	8008006 <xQueueReceive+0x1f6>
 80080fa:	f104 0010 	add.w	r0, r4, #16
 80080fe:	f000 fe2b 	bl	8008d58 <xTaskRemoveFromEventList>
 8008102:	2800      	cmp	r0, #0
 8008104:	d0f5      	beq.n	80080f2 <xQueueReceive+0x2e2>
 8008106:	f64e 5304 	movw	r3, #60676	; 0xed04
 800810a:	f2ce 0300 	movt	r3, #57344	; 0xe000
 800810e:	f04f 5280 	mov.w	r2, #268435456	; 0x10000000
 8008112:	601a      	str	r2, [r3, #0]
 8008114:	f3bf 8f4f 	dsb	sy
 8008118:	f3bf 8f6f 	isb	sy
 800811c:	e7e9      	b.n	80080f2 <xQueueReceive+0x2e2>
 800811e:	bf00      	nop

08008120 <vQueueAddToRegistry>:
 8008120:	f246 3308 	movw	r3, #25352	; 0x6308
 8008124:	f2c2 0300 	movt	r3, #8192	; 0x2000
 8008128:	681a      	ldr	r2, [r3, #0]
 800812a:	b17a      	cbz	r2, 800814c <vQueueAddToRegistry+0x2c>
 800812c:	689a      	ldr	r2, [r3, #8]
 800812e:	b1b2      	cbz	r2, 800815e <vQueueAddToRegistry+0x3e>
 8008130:	691a      	ldr	r2, [r3, #16]
 8008132:	b1b2      	cbz	r2, 8008162 <vQueueAddToRegistry+0x42>
 8008134:	699a      	ldr	r2, [r3, #24]
 8008136:	b1b2      	cbz	r2, 8008166 <vQueueAddToRegistry+0x46>
 8008138:	6a1a      	ldr	r2, [r3, #32]
 800813a:	b1b2      	cbz	r2, 800816a <vQueueAddToRegistry+0x4a>
 800813c:	6a9a      	ldr	r2, [r3, #40]	; 0x28
 800813e:	b1b2      	cbz	r2, 800816e <vQueueAddToRegistry+0x4e>
 8008140:	6b1a      	ldr	r2, [r3, #48]	; 0x30
 8008142:	b112      	cbz	r2, 800814a <vQueueAddToRegistry+0x2a>
 8008144:	6b9a      	ldr	r2, [r3, #56]	; 0x38
 8008146:	b1a2      	cbz	r2, 8008172 <vQueueAddToRegistry+0x52>
 8008148:	4770      	bx	lr
 800814a:	2206      	movs	r2, #6
 800814c:	b410      	push	{r4}
 800814e:	eb03 04c2 	add.w	r4, r3, r2, lsl #3
 8008152:	f843 1032 	str.w	r1, [r3, r2, lsl #3]
 8008156:	6060      	str	r0, [r4, #4]
 8008158:	f85d 4b04 	ldr.w	r4, [sp], #4
 800815c:	4770      	bx	lr
 800815e:	2201      	movs	r2, #1
 8008160:	e7f4      	b.n	800814c <vQueueAddToRegistry+0x2c>
 8008162:	2202      	movs	r2, #2
 8008164:	e7f2      	b.n	800814c <vQueueAddToRegistry+0x2c>
 8008166:	2203      	movs	r2, #3
 8008168:	e7f0      	b.n	800814c <vQueueAddToRegistry+0x2c>
 800816a:	2204      	movs	r2, #4
 800816c:	e7ee      	b.n	800814c <vQueueAddToRegistry+0x2c>
 800816e:	2205      	movs	r2, #5
 8008170:	e7ec      	b.n	800814c <vQueueAddToRegistry+0x2c>
 8008172:	2207      	movs	r2, #7
 8008174:	e7ea      	b.n	800814c <vQueueAddToRegistry+0x2c>
 8008176:	bf00      	nop

08008178 <vQueueWaitForMessageRestricted>:
 8008178:	b570      	push	{r4, r5, r6, lr}
 800817a:	4604      	mov	r4, r0
 800817c:	460e      	mov	r6, r1
 800817e:	4615      	mov	r5, r2
 8008180:	f001 fab8 	bl	80096f4 <vPortEnterCritical>
 8008184:	f894 3044 	ldrb.w	r3, [r4, #68]	; 0x44
 8008188:	2bff      	cmp	r3, #255	; 0xff
 800818a:	bf04      	itt	eq
 800818c:	2300      	moveq	r3, #0
 800818e:	f884 3044 	strbeq.w	r3, [r4, #68]	; 0x44
 8008192:	f894 3045 	ldrb.w	r3, [r4, #69]	; 0x45
 8008196:	2bff      	cmp	r3, #255	; 0xff
 8008198:	bf04      	itt	eq
 800819a:	2300      	moveq	r3, #0
 800819c:	f884 3045 	strbeq.w	r3, [r4, #69]	; 0x45
 80081a0:	f001 facc 	bl	800973c <vPortExitCritical>
 80081a4:	6ba3      	ldr	r3, [r4, #56]	; 0x38
 80081a6:	2b00      	cmp	r3, #0
 80081a8:	d045      	beq.n	8008236 <vQueueWaitForMessageRestricted+0xbe>
 80081aa:	f001 faa3 	bl	80096f4 <vPortEnterCritical>
 80081ae:	f894 5045 	ldrb.w	r5, [r4, #69]	; 0x45
 80081b2:	b26d      	sxtb	r5, r5
 80081b4:	2d00      	cmp	r5, #0
 80081b6:	dd15      	ble.n	80081e4 <vQueueWaitForMessageRestricted+0x6c>
 80081b8:	f104 0624 	add.w	r6, r4, #36	; 0x24
 80081bc:	e004      	b.n	80081c8 <vQueueWaitForMessageRestricted+0x50>
 80081be:	1e6b      	subs	r3, r5, #1
 80081c0:	f013 0fff 	tst.w	r3, #255	; 0xff
 80081c4:	b25d      	sxtb	r5, r3
 80081c6:	d00d      	beq.n	80081e4 <vQueueWaitForMessageRestricted+0x6c>
 80081c8:	6a63      	ldr	r3, [r4, #36]	; 0x24
 80081ca:	4630      	mov	r0, r6
 80081cc:	b153      	cbz	r3, 80081e4 <vQueueWaitForMessageRestricted+0x6c>
 80081ce:	f000 fdc3 	bl	8008d58 <xTaskRemoveFromEventList>
 80081d2:	2800      	cmp	r0, #0
 80081d4:	d0f3      	beq.n	80081be <vQueueWaitForMessageRestricted+0x46>
 80081d6:	f000 fe65 	bl	8008ea4 <vTaskMissedYield>
 80081da:	1e6b      	subs	r3, r5, #1
 80081dc:	f013 0fff 	tst.w	r3, #255	; 0xff
 80081e0:	b25d      	sxtb	r5, r3
 80081e2:	d1f1      	bne.n	80081c8 <vQueueWaitForMessageRestricted+0x50>
 80081e4:	23ff      	movs	r3, #255	; 0xff
 80081e6:	f884 3045 	strb.w	r3, [r4, #69]	; 0x45
 80081ea:	f001 faa7 	bl	800973c <vPortExitCritical>
 80081ee:	f001 fa81 	bl	80096f4 <vPortEnterCritical>
 80081f2:	f894 5044 	ldrb.w	r5, [r4, #68]	; 0x44
 80081f6:	b26d      	sxtb	r5, r5
 80081f8:	2d00      	cmp	r5, #0
 80081fa:	dd15      	ble.n	8008228 <vQueueWaitForMessageRestricted+0xb0>
 80081fc:	f104 0610 	add.w	r6, r4, #16
 8008200:	e004      	b.n	800820c <vQueueWaitForMessageRestricted+0x94>
 8008202:	1e6b      	subs	r3, r5, #1
 8008204:	f013 0fff 	tst.w	r3, #255	; 0xff
 8008208:	b25d      	sxtb	r5, r3
 800820a:	d00d      	beq.n	8008228 <vQueueWaitForMessageRestricted+0xb0>
 800820c:	6923      	ldr	r3, [r4, #16]
 800820e:	4630      	mov	r0, r6
 8008210:	b153      	cbz	r3, 8008228 <vQueueWaitForMessageRestricted+0xb0>
 8008212:	f000 fda1 	bl	8008d58 <xTaskRemoveFromEventList>
 8008216:	2800      	cmp	r0, #0
 8008218:	d0f3      	beq.n	8008202 <vQueueWaitForMessageRestricted+0x8a>
 800821a:	f000 fe43 	bl	8008ea4 <vTaskMissedYield>
 800821e:	1e6b      	subs	r3, r5, #1
 8008220:	f013 0fff 	tst.w	r3, #255	; 0xff
 8008224:	b25d      	sxtb	r5, r3
 8008226:	d1f1      	bne.n	800820c <vQueueWaitForMessageRestricted+0x94>
 8008228:	23ff      	movs	r3, #255	; 0xff
 800822a:	f884 3044 	strb.w	r3, [r4, #68]	; 0x44
 800822e:	e8bd 4070 	ldmia.w	sp!, {r4, r5, r6, lr}
 8008232:	f001 ba83 	b.w	800973c <vPortExitCritical>
 8008236:	462a      	mov	r2, r5
 8008238:	4631      	mov	r1, r6
 800823a:	f104 0024 	add.w	r0, r4, #36	; 0x24
 800823e:	f000 fd3b 	bl	8008cb8 <vTaskPlaceOnEventListRestricted>
 8008242:	e7b2      	b.n	80081aa <vQueueWaitForMessageRestricted+0x32>

08008244 <prvAddNewTaskToReadyList>:
 8008244:	e92d 41f0 	stmdb	sp!, {r4, r5, r6, r7, r8, lr}
 8008248:	4604      	mov	r4, r0
 800824a:	f001 fa53 	bl	80096f4 <vPortEnterCritical>
 800824e:	f643 035c 	movw	r3, #14428	; 0x385c
 8008252:	f2c2 0300 	movt	r3, #8192	; 0x2000
 8008256:	f243 35ec 	movw	r5, #13292	; 0x33ec
 800825a:	681a      	ldr	r2, [r3, #0]
 800825c:	f2c2 0500 	movt	r5, #8192	; 0x2000
 8008260:	3201      	adds	r2, #1
 8008262:	601a      	str	r2, [r3, #0]
 8008264:	682a      	ldr	r2, [r5, #0]
 8008266:	2a00      	cmp	r2, #0
 8008268:	d044      	beq.n	80082f4 <prvAddNewTaskToReadyList+0xb0>
 800826a:	f643 06b8 	movw	r6, #14520	; 0x38b8
 800826e:	f2c2 0600 	movt	r6, #8192	; 0x2000
 8008272:	6833      	ldr	r3, [r6, #0]
 8008274:	b39b      	cbz	r3, 80082de <prvAddNewTaskToReadyList+0x9a>
 8008276:	f243 37f8 	movw	r7, #13304	; 0x33f8
 800827a:	6ae0      	ldr	r0, [r4, #44]	; 0x2c
 800827c:	f2c2 0700 	movt	r7, #8192	; 0x2000
 8008280:	f643 016c 	movw	r1, #14444	; 0x386c
 8008284:	f2c2 0100 	movt	r1, #8192	; 0x2000
 8008288:	f643 0268 	movw	r2, #14440	; 0x3868
 800828c:	f2c2 0200 	movt	r2, #8192	; 0x2000
 8008290:	f8d1 c000 	ldr.w	ip, [r1]
 8008294:	6813      	ldr	r3, [r2, #0]
 8008296:	4584      	cmp	ip, r0
 8008298:	f103 0301 	add.w	r3, r3, #1
 800829c:	bf38      	it	cc
 800829e:	6008      	strcc	r0, [r1, #0]
 80082a0:	eb00 0080 	add.w	r0, r0, r0, lsl #2
 80082a4:	6463      	str	r3, [r4, #68]	; 0x44
 80082a6:	eb07 0080 	add.w	r0, r7, r0, lsl #2
 80082aa:	1d21      	adds	r1, r4, #4
 80082ac:	6013      	str	r3, [r2, #0]
 80082ae:	f7ff fad3 	bl	8007858 <vListInsertEnd>
 80082b2:	f001 fa43 	bl	800973c <vPortExitCritical>
 80082b6:	6833      	ldr	r3, [r6, #0]
 80082b8:	b17b      	cbz	r3, 80082da <prvAddNewTaskToReadyList+0x96>
 80082ba:	682a      	ldr	r2, [r5, #0]
 80082bc:	6ae3      	ldr	r3, [r4, #44]	; 0x2c
 80082be:	6ad2      	ldr	r2, [r2, #44]	; 0x2c
 80082c0:	429a      	cmp	r2, r3
 80082c2:	d20a      	bcs.n	80082da <prvAddNewTaskToReadyList+0x96>
 80082c4:	f64e 5304 	movw	r3, #60676	; 0xed04
 80082c8:	f2ce 0300 	movt	r3, #57344	; 0xe000
 80082cc:	f04f 5280 	mov.w	r2, #268435456	; 0x10000000
 80082d0:	601a      	str	r2, [r3, #0]
 80082d2:	f3bf 8f4f 	dsb	sy
 80082d6:	f3bf 8f6f 	isb	sy
 80082da:	e8bd 81f0 	ldmia.w	sp!, {r4, r5, r6, r7, r8, pc}
 80082de:	682b      	ldr	r3, [r5, #0]
 80082e0:	6ae0      	ldr	r0, [r4, #44]	; 0x2c
 80082e2:	6adb      	ldr	r3, [r3, #44]	; 0x2c
 80082e4:	f243 37f8 	movw	r7, #13304	; 0x33f8
 80082e8:	4283      	cmp	r3, r0
 80082ea:	bf98      	it	ls
 80082ec:	602c      	strls	r4, [r5, #0]
 80082ee:	f2c2 0700 	movt	r7, #8192	; 0x2000
 80082f2:	e7c5      	b.n	8008280 <prvAddNewTaskToReadyList+0x3c>
 80082f4:	602c      	str	r4, [r5, #0]
 80082f6:	681b      	ldr	r3, [r3, #0]
 80082f8:	2b01      	cmp	r3, #1
 80082fa:	f243 37f8 	movw	r7, #13304	; 0x33f8
 80082fe:	d007      	beq.n	8008310 <prvAddNewTaskToReadyList+0xcc>
 8008300:	f643 06b8 	movw	r6, #14520	; 0x38b8
 8008304:	6ae0      	ldr	r0, [r4, #44]	; 0x2c
 8008306:	f2c2 0700 	movt	r7, #8192	; 0x2000
 800830a:	f2c2 0600 	movt	r6, #8192	; 0x2000
 800830e:	e7b7      	b.n	8008280 <prvAddNewTaskToReadyList+0x3c>
 8008310:	f2c2 0700 	movt	r7, #8192	; 0x2000
 8008314:	463e      	mov	r6, r7
 8008316:	f507 688c 	add.w	r8, r7, #1120	; 0x460
 800831a:	4630      	mov	r0, r6
 800831c:	3614      	adds	r6, #20
 800831e:	f7ff fa8b 	bl	8007838 <vListInitialise>
 8008322:	45b0      	cmp	r8, r6
 8008324:	d1f9      	bne.n	800831a <prvAddNewTaskToReadyList+0xd6>
 8008326:	f643 0670 	movw	r6, #14448	; 0x3870
 800832a:	f2c2 0600 	movt	r6, #8192	; 0x2000
 800832e:	f643 0884 	movw	r8, #14468	; 0x3884
 8008332:	4630      	mov	r0, r6
 8008334:	f2c2 0800 	movt	r8, #8192	; 0x2000
 8008338:	f7ff fa7e 	bl	8007838 <vListInitialise>
 800833c:	4640      	mov	r0, r8
 800833e:	f7ff fa7b 	bl	8007838 <vListInitialise>
 8008342:	f643 00a4 	movw	r0, #14500	; 0x38a4
 8008346:	f2c2 0000 	movt	r0, #8192	; 0x2000
 800834a:	f7ff fa75 	bl	8007838 <vListInitialise>
 800834e:	f643 00d0 	movw	r0, #14544	; 0x38d0
 8008352:	f2c2 0000 	movt	r0, #8192	; 0x2000
 8008356:	f7ff fa6f 	bl	8007838 <vListInitialise>
 800835a:	f643 00bc 	movw	r0, #14524	; 0x38bc
 800835e:	f2c2 0000 	movt	r0, #8192	; 0x2000
 8008362:	f7ff fa69 	bl	8007838 <vListInitialise>
 8008366:	f243 32f0 	movw	r2, #13296	; 0x33f0
 800836a:	f243 33f4 	movw	r3, #13300	; 0x33f4
 800836e:	f2c2 0200 	movt	r2, #8192	; 0x2000
 8008372:	f2c2 0300 	movt	r3, #8192	; 0x2000
 8008376:	6016      	str	r6, [r2, #0]
 8008378:	f643 06b8 	movw	r6, #14520	; 0x38b8
 800837c:	6ae0      	ldr	r0, [r4, #44]	; 0x2c
 800837e:	f8c3 8000 	str.w	r8, [r3]
 8008382:	f2c2 0600 	movt	r6, #8192	; 0x2000
 8008386:	e77b      	b.n	8008280 <prvAddNewTaskToReadyList+0x3c>

08008388 <prvInitialiseNewTask.isra.0>:
 8008388:	e92d 47f0 	stmdb	sp!, {r4, r5, r6, r7, r8, r9, sl, lr}
 800838c:	9c0a      	ldr	r4, [sp, #40]	; 0x28
 800838e:	ea4f 0a82 	mov.w	sl, r2, lsl #2
 8008392:	4652      	mov	r2, sl
 8008394:	4607      	mov	r7, r0
 8008396:	460d      	mov	r5, r1
 8008398:	6b20      	ldr	r0, [r4, #48]	; 0x30
 800839a:	21a5      	movs	r1, #165	; 0xa5
 800839c:	4698      	mov	r8, r3
 800839e:	e9dd 6908 	ldrd	r6, r9, [sp, #32]
 80083a2:	f001 fd8a 	bl	8009eba <memset>
 80083a6:	6b23      	ldr	r3, [r4, #48]	; 0x30
 80083a8:	f1aa 0a04 	sub.w	sl, sl, #4
 80083ac:	449a      	add	sl, r3
 80083ae:	f02a 0a07 	bic.w	sl, sl, #7
 80083b2:	2d00      	cmp	r5, #0
 80083b4:	f000 8092 	beq.w	80084dc <prvInitialiseNewTask.isra.0+0x154>
 80083b8:	782b      	ldrb	r3, [r5, #0]
 80083ba:	f884 3034 	strb.w	r3, [r4, #52]	; 0x34
 80083be:	782b      	ldrb	r3, [r5, #0]
 80083c0:	2b00      	cmp	r3, #0
 80083c2:	d04d      	beq.n	8008460 <prvInitialiseNewTask.isra.0+0xd8>
 80083c4:	786b      	ldrb	r3, [r5, #1]
 80083c6:	f884 3035 	strb.w	r3, [r4, #53]	; 0x35
 80083ca:	786b      	ldrb	r3, [r5, #1]
 80083cc:	2b00      	cmp	r3, #0
 80083ce:	d047      	beq.n	8008460 <prvInitialiseNewTask.isra.0+0xd8>
 80083d0:	78ab      	ldrb	r3, [r5, #2]
 80083d2:	f884 3036 	strb.w	r3, [r4, #54]	; 0x36
 80083d6:	78ab      	ldrb	r3, [r5, #2]
 80083d8:	2b00      	cmp	r3, #0
 80083da:	d041      	beq.n	8008460 <prvInitialiseNewTask.isra.0+0xd8>
 80083dc:	78eb      	ldrb	r3, [r5, #3]
 80083de:	f884 3037 	strb.w	r3, [r4, #55]	; 0x37
 80083e2:	78eb      	ldrb	r3, [r5, #3]
 80083e4:	2b00      	cmp	r3, #0
 80083e6:	d03b      	beq.n	8008460 <prvInitialiseNewTask.isra.0+0xd8>
 80083e8:	792b      	ldrb	r3, [r5, #4]
 80083ea:	f884 3038 	strb.w	r3, [r4, #56]	; 0x38
 80083ee:	792b      	ldrb	r3, [r5, #4]
 80083f0:	2b00      	cmp	r3, #0
 80083f2:	d035      	beq.n	8008460 <prvInitialiseNewTask.isra.0+0xd8>
 80083f4:	796b      	ldrb	r3, [r5, #5]
 80083f6:	f884 3039 	strb.w	r3, [r4, #57]	; 0x39
 80083fa:	796b      	ldrb	r3, [r5, #5]
 80083fc:	2b00      	cmp	r3, #0
 80083fe:	d02f      	beq.n	8008460 <prvInitialiseNewTask.isra.0+0xd8>
 8008400:	79ab      	ldrb	r3, [r5, #6]
 8008402:	f884 303a 	strb.w	r3, [r4, #58]	; 0x3a
 8008406:	79ab      	ldrb	r3, [r5, #6]
 8008408:	b353      	cbz	r3, 8008460 <prvInitialiseNewTask.isra.0+0xd8>
 800840a:	79eb      	ldrb	r3, [r5, #7]
 800840c:	f884 303b 	strb.w	r3, [r4, #59]	; 0x3b
 8008410:	79eb      	ldrb	r3, [r5, #7]
 8008412:	b32b      	cbz	r3, 8008460 <prvInitialiseNewTask.isra.0+0xd8>
 8008414:	7a2b      	ldrb	r3, [r5, #8]
 8008416:	f884 303c 	strb.w	r3, [r4, #60]	; 0x3c
 800841a:	7a2b      	ldrb	r3, [r5, #8]
 800841c:	b303      	cbz	r3, 8008460 <prvInitialiseNewTask.isra.0+0xd8>
 800841e:	7a6b      	ldrb	r3, [r5, #9]
 8008420:	f884 303d 	strb.w	r3, [r4, #61]	; 0x3d
 8008424:	7a6b      	ldrb	r3, [r5, #9]
 8008426:	b1db      	cbz	r3, 8008460 <prvInitialiseNewTask.isra.0+0xd8>
 8008428:	7aab      	ldrb	r3, [r5, #10]
 800842a:	f884 303e 	strb.w	r3, [r4, #62]	; 0x3e
 800842e:	7aab      	ldrb	r3, [r5, #10]
 8008430:	b1b3      	cbz	r3, 8008460 <prvInitialiseNewTask.isra.0+0xd8>
 8008432:	7aeb      	ldrb	r3, [r5, #11]
 8008434:	f884 303f 	strb.w	r3, [r4, #63]	; 0x3f
 8008438:	7aeb      	ldrb	r3, [r5, #11]
 800843a:	b18b      	cbz	r3, 8008460 <prvInitialiseNewTask.isra.0+0xd8>
 800843c:	7b2b      	ldrb	r3, [r5, #12]
 800843e:	f884 3040 	strb.w	r3, [r4, #64]	; 0x40
 8008442:	7b2b      	ldrb	r3, [r5, #12]
 8008444:	b163      	cbz	r3, 8008460 <prvInitialiseNewTask.isra.0+0xd8>
 8008446:	7b6b      	ldrb	r3, [r5, #13]
 8008448:	f884 3041 	strb.w	r3, [r4, #65]	; 0x41
 800844c:	7b6b      	ldrb	r3, [r5, #13]
 800844e:	b13b      	cbz	r3, 8008460 <prvInitialiseNewTask.isra.0+0xd8>
 8008450:	7bab      	ldrb	r3, [r5, #14]
 8008452:	f884 3042 	strb.w	r3, [r4, #66]	; 0x42
 8008456:	7bab      	ldrb	r3, [r5, #14]
 8008458:	b113      	cbz	r3, 8008460 <prvInitialiseNewTask.isra.0+0xd8>
 800845a:	7beb      	ldrb	r3, [r5, #15]
 800845c:	f884 3043 	strb.w	r3, [r4, #67]	; 0x43
 8008460:	2300      	movs	r3, #0
 8008462:	f884 3043 	strb.w	r3, [r4, #67]	; 0x43
 8008466:	2e37      	cmp	r6, #55	; 0x37
 8008468:	4635      	mov	r5, r6
 800846a:	bf28      	it	cs
 800846c:	2537      	movcs	r5, #55	; 0x37
 800846e:	2600      	movs	r6, #0
 8008470:	e9c4 5613 	strd	r5, r6, [r4, #76]	; 0x4c
 8008474:	62e5      	str	r5, [r4, #44]	; 0x2c
 8008476:	1d20      	adds	r0, r4, #4
 8008478:	f7ff f9ea 	bl	8007850 <vListInitialiseItem>
 800847c:	f1c5 0538 	rsb	r5, r5, #56	; 0x38
 8008480:	f104 0018 	add.w	r0, r4, #24
 8008484:	f7ff f9e4 	bl	8007850 <vListInitialiseItem>
 8008488:	f8c4 60b8 	str.w	r6, [r4, #184]	; 0xb8
 800848c:	4631      	mov	r1, r6
 800848e:	61a5      	str	r5, [r4, #24]
 8008490:	6566      	str	r6, [r4, #84]	; 0x54
 8008492:	f884 60bc 	strb.w	r6, [r4, #188]	; 0xbc
 8008496:	2260      	movs	r2, #96	; 0x60
 8008498:	6124      	str	r4, [r4, #16]
 800849a:	6264      	str	r4, [r4, #36]	; 0x24
 800849c:	f104 0058 	add.w	r0, r4, #88	; 0x58
 80084a0:	f001 fd0b 	bl	8009eba <memset>
 80084a4:	f64f 6650 	movw	r6, #65104	; 0xfe50
 80084a8:	f64f 6570 	movw	r5, #65136	; 0xfe70
 80084ac:	f64f 6330 	movw	r3, #65072	; 0xfe30
 80084b0:	f6c0 0300 	movt	r3, #2048	; 0x800
 80084b4:	f6c0 0600 	movt	r6, #2048	; 0x800
 80084b8:	f6c0 0500 	movt	r5, #2048	; 0x800
 80084bc:	e9c4 6517 	strd	r6, r5, [r4, #92]	; 0x5c
 80084c0:	4642      	mov	r2, r8
 80084c2:	4639      	mov	r1, r7
 80084c4:	4650      	mov	r0, sl
 80084c6:	6663      	str	r3, [r4, #100]	; 0x64
 80084c8:	f001 f8e6 	bl	8009698 <pxPortInitialiseStack>
 80084cc:	6020      	str	r0, [r4, #0]
 80084ce:	f1b9 0f00 	cmp.w	r9, #0
 80084d2:	d001      	beq.n	80084d8 <prvInitialiseNewTask.isra.0+0x150>
 80084d4:	f8c9 4000 	str.w	r4, [r9]
 80084d8:	e8bd 87f0 	ldmia.w	sp!, {r4, r5, r6, r7, r8, r9, sl, pc}
 80084dc:	f884 5034 	strb.w	r5, [r4, #52]	; 0x34
 80084e0:	e7c1      	b.n	8008466 <prvInitialiseNewTask.isra.0+0xde>
 80084e2:	bf00      	nop

080084e4 <vTaskSwitchContext.part.0>:
 80084e4:	b538      	push	{r3, r4, r5, lr}
 80084e6:	f643 03e8 	movw	r3, #14568	; 0x38e8
 80084ea:	f2c2 0300 	movt	r3, #8192	; 0x2000
 80084ee:	2200      	movs	r2, #0
 80084f0:	601a      	str	r2, [r3, #0]
 80084f2:	f7f8 fd7d 	bl	8000ff0 <getRunTimeCounterValue>
 80084f6:	f643 0258 	movw	r2, #14424	; 0x3858
 80084fa:	f2c2 0200 	movt	r2, #8192	; 0x2000
 80084fe:	f243 34ec 	movw	r4, #13292	; 0x33ec
 8008502:	6815      	ldr	r5, [r2, #0]
 8008504:	42a8      	cmp	r0, r5
 8008506:	f2c2 0400 	movt	r4, #8192	; 0x2000
 800850a:	d904      	bls.n	8008516 <vTaskSwitchContext.part.0+0x32>
 800850c:	6821      	ldr	r1, [r4, #0]
 800850e:	6d4b      	ldr	r3, [r1, #84]	; 0x54
 8008510:	1b5b      	subs	r3, r3, r5
 8008512:	4403      	add	r3, r0
 8008514:	654b      	str	r3, [r1, #84]	; 0x54
 8008516:	6821      	ldr	r1, [r4, #0]
 8008518:	6823      	ldr	r3, [r4, #0]
 800851a:	6809      	ldr	r1, [r1, #0]
 800851c:	6b1b      	ldr	r3, [r3, #48]	; 0x30
 800851e:	6010      	str	r0, [r2, #0]
 8008520:	4299      	cmp	r1, r3
 8008522:	d92e      	bls.n	8008582 <vTaskSwitchContext.part.0+0x9e>
 8008524:	f643 006c 	movw	r0, #14444	; 0x386c
 8008528:	f2c2 0000 	movt	r0, #8192	; 0x2000
 800852c:	f243 32f8 	movw	r2, #13304	; 0x33f8
 8008530:	6803      	ldr	r3, [r0, #0]
 8008532:	eb03 0583 	add.w	r5, r3, r3, lsl #2
 8008536:	00ad      	lsls	r5, r5, #2
 8008538:	f2c2 0200 	movt	r2, #8192	; 0x2000
 800853c:	0099      	lsls	r1, r3, #2
 800853e:	5955      	ldr	r5, [r2, r5]
 8008540:	b945      	cbnz	r5, 8008554 <vTaskSwitchContext.part.0+0x70>
 8008542:	b323      	cbz	r3, 800858e <vTaskSwitchContext.part.0+0xaa>
 8008544:	3b01      	subs	r3, #1
 8008546:	eb03 0583 	add.w	r5, r3, r3, lsl #2
 800854a:	0099      	lsls	r1, r3, #2
 800854c:	f852 5025 	ldr.w	r5, [r2, r5, lsl #2]
 8008550:	2d00      	cmp	r5, #0
 8008552:	d0f6      	beq.n	8008542 <vTaskSwitchContext.part.0+0x5e>
 8008554:	4419      	add	r1, r3
 8008556:	eb02 0581 	add.w	r5, r2, r1, lsl #2
 800855a:	462a      	mov	r2, r5
 800855c:	6869      	ldr	r1, [r5, #4]
 800855e:	6849      	ldr	r1, [r1, #4]
 8008560:	6069      	str	r1, [r5, #4]
 8008562:	3208      	adds	r2, #8
 8008564:	4291      	cmp	r1, r2
 8008566:	bf04      	itt	eq
 8008568:	6849      	ldreq	r1, [r1, #4]
 800856a:	6069      	streq	r1, [r5, #4]
 800856c:	68ca      	ldr	r2, [r1, #12]
 800856e:	6022      	str	r2, [r4, #0]
 8008570:	6003      	str	r3, [r0, #0]
 8008572:	6822      	ldr	r2, [r4, #0]
 8008574:	f240 0340 	movw	r3, #64	; 0x40
 8008578:	f2c2 0300 	movt	r3, #8192	; 0x2000
 800857c:	3258      	adds	r2, #88	; 0x58
 800857e:	601a      	str	r2, [r3, #0]
 8008580:	bd38      	pop	{r3, r4, r5, pc}
 8008582:	6820      	ldr	r0, [r4, #0]
 8008584:	6821      	ldr	r1, [r4, #0]
 8008586:	3134      	adds	r1, #52	; 0x34
 8008588:	f7f8 fd34 	bl	8000ff4 <vApplicationStackOverflowHook>
 800858c:	e7ca      	b.n	8008524 <vTaskSwitchContext.part.0+0x40>
 800858e:	f04f 0350 	mov.w	r3, #80	; 0x50
 8008592:	f383 8811 	msr	BASEPRI, r3
 8008596:	f3bf 8f6f 	isb	sy
 800859a:	f3bf 8f4f 	dsb	sy
 800859e:	e7fe      	b.n	800859e <vTaskSwitchContext.part.0+0xba>

080085a0 <prvIdleTask>:
 80085a0:	b580      	push	{r7, lr}
 80085a2:	f643 0460 	movw	r4, #14432	; 0x3860
 80085a6:	f643 08d0 	movw	r8, #14544	; 0x38d0
 80085aa:	f643 065c 	movw	r6, #14428	; 0x385c
 80085ae:	f243 37f8 	movw	r7, #13304	; 0x33f8
 80085b2:	f64e 5a04 	movw	sl, #60676	; 0xed04
 80085b6:	f2c2 0400 	movt	r4, #8192	; 0x2000
 80085ba:	f2c2 0800 	movt	r8, #8192	; 0x2000
 80085be:	f2c2 0600 	movt	r6, #8192	; 0x2000
 80085c2:	f2c2 0700 	movt	r7, #8192	; 0x2000
 80085c6:	f2ce 0a00 	movt	sl, #57344	; 0xe000
 80085ca:	f04f 5980 	mov.w	r9, #268435456	; 0x10000000
 80085ce:	6823      	ldr	r3, [r4, #0]
 80085d0:	b363      	cbz	r3, 800862c <prvIdleTask+0x8c>
 80085d2:	f001 f88f 	bl	80096f4 <vPortEnterCritical>
 80085d6:	f8d8 300c 	ldr.w	r3, [r8, #12]
 80085da:	68dd      	ldr	r5, [r3, #12]
 80085dc:	1d28      	adds	r0, r5, #4
 80085de:	f7ff f963 	bl	80078a8 <uxListRemove>
 80085e2:	6833      	ldr	r3, [r6, #0]
 80085e4:	3b01      	subs	r3, #1
 80085e6:	6033      	str	r3, [r6, #0]
 80085e8:	6823      	ldr	r3, [r4, #0]
 80085ea:	3b01      	subs	r3, #1
 80085ec:	6023      	str	r3, [r4, #0]
 80085ee:	f001 f8a5 	bl	800973c <vPortExitCritical>
 80085f2:	f105 0058 	add.w	r0, r5, #88	; 0x58
 80085f6:	f002 fb4b 	bl	800ac90 <_reclaim_reent>
 80085fa:	f895 30bd 	ldrb.w	r3, [r5, #189]	; 0xbd
 80085fe:	b163      	cbz	r3, 800861a <prvIdleTask+0x7a>
 8008600:	2b01      	cmp	r3, #1
 8008602:	d01d      	beq.n	8008640 <prvIdleTask+0xa0>
 8008604:	2b02      	cmp	r3, #2
 8008606:	d0e2      	beq.n	80085ce <prvIdleTask+0x2e>
 8008608:	f04f 0350 	mov.w	r3, #80	; 0x50
 800860c:	f383 8811 	msr	BASEPRI, r3
 8008610:	f3bf 8f6f 	isb	sy
 8008614:	f3bf 8f4f 	dsb	sy
 8008618:	e7fe      	b.n	8008618 <prvIdleTask+0x78>
 800861a:	6b28      	ldr	r0, [r5, #48]	; 0x30
 800861c:	f001 faba 	bl	8009b94 <vPortFree>
 8008620:	4628      	mov	r0, r5
 8008622:	f001 fab7 	bl	8009b94 <vPortFree>
 8008626:	6823      	ldr	r3, [r4, #0]
 8008628:	2b00      	cmp	r3, #0
 800862a:	d1d2      	bne.n	80085d2 <prvIdleTask+0x32>
 800862c:	683b      	ldr	r3, [r7, #0]
 800862e:	2b01      	cmp	r3, #1
 8008630:	d9cd      	bls.n	80085ce <prvIdleTask+0x2e>
 8008632:	f8ca 9000 	str.w	r9, [sl]
 8008636:	f3bf 8f4f 	dsb	sy
 800863a:	f3bf 8f6f 	isb	sy
 800863e:	e7c6      	b.n	80085ce <prvIdleTask+0x2e>
 8008640:	4628      	mov	r0, r5
 8008642:	f001 faa7 	bl	8009b94 <vPortFree>
 8008646:	e7c2      	b.n	80085ce <prvIdleTask+0x2e>

08008648 <xTaskIncrementTick.part.0>:
 8008648:	f643 03e4 	movw	r3, #14564	; 0x38e4
 800864c:	e92d 4ff0 	stmdb	sp!, {r4, r5, r6, r7, r8, r9, sl, fp, lr}
 8008650:	f2c2 0300 	movt	r3, #8192	; 0x2000
 8008654:	b083      	sub	sp, #12
 8008656:	681a      	ldr	r2, [r3, #0]
 8008658:	f102 0801 	add.w	r8, r2, #1
 800865c:	f8c3 8000 	str.w	r8, [r3]
 8008660:	f1b8 0f00 	cmp.w	r8, #0
 8008664:	d052      	beq.n	800870c <xTaskIncrementTick.part.0+0xc4>
 8008666:	f643 0498 	movw	r4, #14488	; 0x3898
 800866a:	f2c2 0400 	movt	r4, #8192	; 0x2000
 800866e:	6823      	ldr	r3, [r4, #0]
 8008670:	4598      	cmp	r8, r3
 8008672:	d35b      	bcc.n	800872c <xTaskIncrementTick.part.0+0xe4>
 8008674:	f243 3af0 	movw	sl, #13296	; 0x33f0
 8008678:	f2c2 0a00 	movt	sl, #8192	; 0x2000
 800867c:	f243 36f8 	movw	r6, #13304	; 0x33f8
 8008680:	f8da 3000 	ldr.w	r3, [sl]
 8008684:	681d      	ldr	r5, [r3, #0]
 8008686:	f243 37ec 	movw	r7, #13292	; 0x33ec
 800868a:	2d00      	cmp	r5, #0
 800868c:	f000 8090 	beq.w	80087b0 <xTaskIncrementTick.part.0+0x168>
 8008690:	f643 0b6c 	movw	fp, #14444	; 0x386c
 8008694:	f2c2 0600 	movt	r6, #8192	; 0x2000
 8008698:	f2c2 0700 	movt	r7, #8192	; 0x2000
 800869c:	f2c2 0b00 	movt	fp, #8192	; 0x2000
 80086a0:	2500      	movs	r5, #0
 80086a2:	e025      	b.n	80086f0 <xTaskIncrementTick.part.0+0xa8>
 80086a4:	9101      	str	r1, [sp, #4]
 80086a6:	f7ff f8ff 	bl	80078a8 <uxListRemove>
 80086aa:	f8d9 3028 	ldr.w	r3, [r9, #40]	; 0x28
 80086ae:	9901      	ldr	r1, [sp, #4]
 80086b0:	f109 0018 	add.w	r0, r9, #24
 80086b4:	b113      	cbz	r3, 80086bc <xTaskIncrementTick.part.0+0x74>
 80086b6:	f7ff f8f7 	bl	80078a8 <uxListRemove>
 80086ba:	9901      	ldr	r1, [sp, #4]
 80086bc:	f8d9 302c 	ldr.w	r3, [r9, #44]	; 0x2c
 80086c0:	f8db 2000 	ldr.w	r2, [fp]
 80086c4:	eb03 0083 	add.w	r0, r3, r3, lsl #2
 80086c8:	4293      	cmp	r3, r2
 80086ca:	eb06 0080 	add.w	r0, r6, r0, lsl #2
 80086ce:	bf88      	it	hi
 80086d0:	f8cb 3000 	strhi.w	r3, [fp]
 80086d4:	f7ff f8c0 	bl	8007858 <vListInsertEnd>
 80086d8:	683a      	ldr	r2, [r7, #0]
 80086da:	f8da 3000 	ldr.w	r3, [sl]
 80086de:	f8d9 102c 	ldr.w	r1, [r9, #44]	; 0x2c
 80086e2:	6ad2      	ldr	r2, [r2, #44]	; 0x2c
 80086e4:	681b      	ldr	r3, [r3, #0]
 80086e6:	4291      	cmp	r1, r2
 80086e8:	bf28      	it	cs
 80086ea:	2501      	movcs	r5, #1
 80086ec:	2b00      	cmp	r3, #0
 80086ee:	d063      	beq.n	80087b8 <xTaskIncrementTick.part.0+0x170>
 80086f0:	f8da 3000 	ldr.w	r3, [sl]
 80086f4:	68db      	ldr	r3, [r3, #12]
 80086f6:	f8d3 900c 	ldr.w	r9, [r3, #12]
 80086fa:	f8d9 3004 	ldr.w	r3, [r9, #4]
 80086fe:	f109 0104 	add.w	r1, r9, #4
 8008702:	4598      	cmp	r8, r3
 8008704:	4608      	mov	r0, r1
 8008706:	d2cd      	bcs.n	80086a4 <xTaskIncrementTick.part.0+0x5c>
 8008708:	6023      	str	r3, [r4, #0]
 800870a:	e018      	b.n	800873e <xTaskIncrementTick.part.0+0xf6>
 800870c:	f243 33f0 	movw	r3, #13296	; 0x33f0
 8008710:	f2c2 0300 	movt	r3, #8192	; 0x2000
 8008714:	681a      	ldr	r2, [r3, #0]
 8008716:	6812      	ldr	r2, [r2, #0]
 8008718:	b332      	cbz	r2, 8008768 <xTaskIncrementTick.part.0+0x120>
 800871a:	f04f 0350 	mov.w	r3, #80	; 0x50
 800871e:	f383 8811 	msr	BASEPRI, r3
 8008722:	f3bf 8f6f 	isb	sy
 8008726:	f3bf 8f4f 	dsb	sy
 800872a:	e7fe      	b.n	800872a <xTaskIncrementTick.part.0+0xe2>
 800872c:	f243 36f8 	movw	r6, #13304	; 0x33f8
 8008730:	f243 37ec 	movw	r7, #13292	; 0x33ec
 8008734:	f2c2 0600 	movt	r6, #8192	; 0x2000
 8008738:	f2c2 0700 	movt	r7, #8192	; 0x2000
 800873c:	2500      	movs	r5, #0
 800873e:	683b      	ldr	r3, [r7, #0]
 8008740:	6adb      	ldr	r3, [r3, #44]	; 0x2c
 8008742:	eb03 0383 	add.w	r3, r3, r3, lsl #2
 8008746:	009b      	lsls	r3, r3, #2
 8008748:	f643 02e8 	movw	r2, #14568	; 0x38e8
 800874c:	f2c2 0200 	movt	r2, #8192	; 0x2000
 8008750:	58f1      	ldr	r1, [r6, r3]
 8008752:	6813      	ldr	r3, [r2, #0]
 8008754:	2902      	cmp	r1, #2
 8008756:	bf28      	it	cs
 8008758:	2501      	movcs	r5, #1
 800875a:	2b00      	cmp	r3, #0
 800875c:	bf0c      	ite	eq
 800875e:	4628      	moveq	r0, r5
 8008760:	2001      	movne	r0, #1
 8008762:	b003      	add	sp, #12
 8008764:	e8bd 8ff0 	ldmia.w	sp!, {r4, r5, r6, r7, r8, r9, sl, fp, pc}
 8008768:	f243 31f4 	movw	r1, #13300	; 0x33f4
 800876c:	f2c2 0100 	movt	r1, #8192	; 0x2000
 8008770:	f643 029c 	movw	r2, #14492	; 0x389c
 8008774:	6818      	ldr	r0, [r3, #0]
 8008776:	680c      	ldr	r4, [r1, #0]
 8008778:	601c      	str	r4, [r3, #0]
 800877a:	f2c2 0200 	movt	r2, #8192	; 0x2000
 800877e:	6008      	str	r0, [r1, #0]
 8008780:	6811      	ldr	r1, [r2, #0]
 8008782:	3101      	adds	r1, #1
 8008784:	6011      	str	r1, [r2, #0]
 8008786:	681a      	ldr	r2, [r3, #0]
 8008788:	6812      	ldr	r2, [r2, #0]
 800878a:	b93a      	cbnz	r2, 800879c <xTaskIncrementTick.part.0+0x154>
 800878c:	f643 0498 	movw	r4, #14488	; 0x3898
 8008790:	f2c2 0400 	movt	r4, #8192	; 0x2000
 8008794:	f04f 33ff 	mov.w	r3, #4294967295
 8008798:	6023      	str	r3, [r4, #0]
 800879a:	e768      	b.n	800866e <xTaskIncrementTick.part.0+0x26>
 800879c:	681b      	ldr	r3, [r3, #0]
 800879e:	68db      	ldr	r3, [r3, #12]
 80087a0:	f643 0498 	movw	r4, #14488	; 0x3898
 80087a4:	68db      	ldr	r3, [r3, #12]
 80087a6:	f2c2 0400 	movt	r4, #8192	; 0x2000
 80087aa:	685b      	ldr	r3, [r3, #4]
 80087ac:	6023      	str	r3, [r4, #0]
 80087ae:	e75e      	b.n	800866e <xTaskIncrementTick.part.0+0x26>
 80087b0:	f2c2 0600 	movt	r6, #8192	; 0x2000
 80087b4:	f2c2 0700 	movt	r7, #8192	; 0x2000
 80087b8:	f04f 33ff 	mov.w	r3, #4294967295
 80087bc:	6023      	str	r3, [r4, #0]
 80087be:	e7be      	b.n	800873e <xTaskIncrementTick.part.0+0xf6>

080087c0 <xTaskResumeAll.part.0>:
 80087c0:	e92d 4ff0 	stmdb	sp!, {r4, r5, r6, r7, r8, r9, sl, fp, lr}
 80087c4:	f643 0564 	movw	r5, #14436	; 0x3864
 80087c8:	f2c2 0500 	movt	r5, #8192	; 0x2000
 80087cc:	b083      	sub	sp, #12
 80087ce:	f000 ff91 	bl	80096f4 <vPortEnterCritical>
 80087d2:	682b      	ldr	r3, [r5, #0]
 80087d4:	3b01      	subs	r3, #1
 80087d6:	602b      	str	r3, [r5, #0]
 80087d8:	682b      	ldr	r3, [r5, #0]
 80087da:	2b00      	cmp	r3, #0
 80087dc:	d17b      	bne.n	80088d6 <xTaskResumeAll.part.0+0x116>
 80087de:	f643 035c 	movw	r3, #14428	; 0x385c
 80087e2:	f2c2 0300 	movt	r3, #8192	; 0x2000
 80087e6:	681b      	ldr	r3, [r3, #0]
 80087e8:	2b00      	cmp	r3, #0
 80087ea:	d074      	beq.n	80088d6 <xTaskResumeAll.part.0+0x116>
 80087ec:	f643 06a4 	movw	r6, #14500	; 0x38a4
 80087f0:	f2c2 0600 	movt	r6, #8192	; 0x2000
 80087f4:	6833      	ldr	r3, [r6, #0]
 80087f6:	2b00      	cmp	r3, #0
 80087f8:	f000 8081 	beq.w	80088fe <xTaskResumeAll.part.0+0x13e>
 80087fc:	f643 076c 	movw	r7, #14444	; 0x386c
 8008800:	f243 39f8 	movw	r9, #13304	; 0x33f8
 8008804:	f243 38ec 	movw	r8, #13292	; 0x33ec
 8008808:	f643 0ae8 	movw	sl, #14568	; 0x38e8
 800880c:	f2c2 0700 	movt	r7, #8192	; 0x2000
 8008810:	f2c2 0900 	movt	r9, #8192	; 0x2000
 8008814:	f2c2 0800 	movt	r8, #8192	; 0x2000
 8008818:	f2c2 0a00 	movt	sl, #8192	; 0x2000
 800881c:	68f3      	ldr	r3, [r6, #12]
 800881e:	68dc      	ldr	r4, [r3, #12]
 8008820:	f104 0b04 	add.w	fp, r4, #4
 8008824:	f104 0018 	add.w	r0, r4, #24
 8008828:	f7ff f83e 	bl	80078a8 <uxListRemove>
 800882c:	4658      	mov	r0, fp
 800882e:	f7ff f83b 	bl	80078a8 <uxListRemove>
 8008832:	6ae3      	ldr	r3, [r4, #44]	; 0x2c
 8008834:	683a      	ldr	r2, [r7, #0]
 8008836:	eb03 0083 	add.w	r0, r3, r3, lsl #2
 800883a:	4293      	cmp	r3, r2
 800883c:	4659      	mov	r1, fp
 800883e:	eb09 0080 	add.w	r0, r9, r0, lsl #2
 8008842:	bf88      	it	hi
 8008844:	603b      	strhi	r3, [r7, #0]
 8008846:	f7ff f807 	bl	8007858 <vListInsertEnd>
 800884a:	f8d8 3000 	ldr.w	r3, [r8]
 800884e:	6ae2      	ldr	r2, [r4, #44]	; 0x2c
 8008850:	6adb      	ldr	r3, [r3, #44]	; 0x2c
 8008852:	429a      	cmp	r2, r3
 8008854:	d347      	bcc.n	80088e6 <xTaskResumeAll.part.0+0x126>
 8008856:	2301      	movs	r3, #1
 8008858:	f8ca 3000 	str.w	r3, [sl]
 800885c:	6833      	ldr	r3, [r6, #0]
 800885e:	2b00      	cmp	r3, #0
 8008860:	d1dc      	bne.n	800881c <xTaskResumeAll.part.0+0x5c>
 8008862:	f243 33f0 	movw	r3, #13296	; 0x33f0
 8008866:	f2c2 0300 	movt	r3, #8192	; 0x2000
 800886a:	681a      	ldr	r2, [r3, #0]
 800886c:	6812      	ldr	r2, [r2, #0]
 800886e:	2a00      	cmp	r2, #0
 8008870:	d03d      	beq.n	80088ee <xTaskResumeAll.part.0+0x12e>
 8008872:	681b      	ldr	r3, [r3, #0]
 8008874:	68da      	ldr	r2, [r3, #12]
 8008876:	f643 0398 	movw	r3, #14488	; 0x3898
 800887a:	68d2      	ldr	r2, [r2, #12]
 800887c:	f2c2 0300 	movt	r3, #8192	; 0x2000
 8008880:	6852      	ldr	r2, [r2, #4]
 8008882:	601a      	str	r2, [r3, #0]
 8008884:	f643 06a0 	movw	r6, #14496	; 0x38a0
 8008888:	f2c2 0600 	movt	r6, #8192	; 0x2000
 800888c:	6834      	ldr	r4, [r6, #0]
 800888e:	b194      	cbz	r4, 80088b6 <xTaskResumeAll.part.0+0xf6>
 8008890:	2701      	movs	r7, #1
 8008892:	e006      	b.n	80088a2 <xTaskResumeAll.part.0+0xe2>
 8008894:	f7ff fed8 	bl	8008648 <xTaskIncrementTick.part.0>
 8008898:	b108      	cbz	r0, 800889e <xTaskResumeAll.part.0+0xde>
 800889a:	f8ca 7000 	str.w	r7, [sl]
 800889e:	3c01      	subs	r4, #1
 80088a0:	d008      	beq.n	80088b4 <xTaskResumeAll.part.0+0xf4>
 80088a2:	682b      	ldr	r3, [r5, #0]
 80088a4:	2b00      	cmp	r3, #0
 80088a6:	d0f5      	beq.n	8008894 <xTaskResumeAll.part.0+0xd4>
 80088a8:	6833      	ldr	r3, [r6, #0]
 80088aa:	3c01      	subs	r4, #1
 80088ac:	f103 0301 	add.w	r3, r3, #1
 80088b0:	6033      	str	r3, [r6, #0]
 80088b2:	d1f6      	bne.n	80088a2 <xTaskResumeAll.part.0+0xe2>
 80088b4:	6034      	str	r4, [r6, #0]
 80088b6:	f8da 3000 	ldr.w	r3, [sl]
 80088ba:	b163      	cbz	r3, 80088d6 <xTaskResumeAll.part.0+0x116>
 80088bc:	f64e 5304 	movw	r3, #60676	; 0xed04
 80088c0:	f2ce 0300 	movt	r3, #57344	; 0xe000
 80088c4:	f04f 5280 	mov.w	r2, #268435456	; 0x10000000
 80088c8:	601a      	str	r2, [r3, #0]
 80088ca:	f3bf 8f4f 	dsb	sy
 80088ce:	f3bf 8f6f 	isb	sy
 80088d2:	2001      	movs	r0, #1
 80088d4:	e000      	b.n	80088d8 <xTaskResumeAll.part.0+0x118>
 80088d6:	2000      	movs	r0, #0
 80088d8:	9001      	str	r0, [sp, #4]
 80088da:	f000 ff2f 	bl	800973c <vPortExitCritical>
 80088de:	9801      	ldr	r0, [sp, #4]
 80088e0:	b003      	add	sp, #12
 80088e2:	e8bd 8ff0 	ldmia.w	sp!, {r4, r5, r6, r7, r8, r9, sl, fp, pc}
 80088e6:	6833      	ldr	r3, [r6, #0]
 80088e8:	2b00      	cmp	r3, #0
 80088ea:	d197      	bne.n	800881c <xTaskResumeAll.part.0+0x5c>
 80088ec:	e7b9      	b.n	8008862 <xTaskResumeAll.part.0+0xa2>
 80088ee:	f643 0398 	movw	r3, #14488	; 0x3898
 80088f2:	f2c2 0300 	movt	r3, #8192	; 0x2000
 80088f6:	f04f 32ff 	mov.w	r2, #4294967295
 80088fa:	601a      	str	r2, [r3, #0]
 80088fc:	e7c2      	b.n	8008884 <xTaskResumeAll.part.0+0xc4>
 80088fe:	f643 0ae8 	movw	sl, #14568	; 0x38e8
 8008902:	f2c2 0a00 	movt	sl, #8192	; 0x2000
 8008906:	e7bd      	b.n	8008884 <xTaskResumeAll.part.0+0xc4>

08008908 <xTaskCreateStatic>:
 8008908:	b5f0      	push	{r4, r5, r6, r7, lr}
 800890a:	b087      	sub	sp, #28
 800890c:	e9dd 650c 	ldrd	r6, r5, [sp, #48]	; 0x30
 8008910:	9c0e      	ldr	r4, [sp, #56]	; 0x38
 8008912:	b1bd      	cbz	r5, 8008944 <xTaskCreateStatic+0x3c>
 8008914:	b16c      	cbz	r4, 8008932 <xTaskCreateStatic+0x2a>
 8008916:	27c0      	movs	r7, #192	; 0xc0
 8008918:	9705      	str	r7, [sp, #20]
 800891a:	9f05      	ldr	r7, [sp, #20]
 800891c:	2fc0      	cmp	r7, #192	; 0xc0
 800891e:	d01a      	beq.n	8008956 <xTaskCreateStatic+0x4e>
 8008920:	f04f 0350 	mov.w	r3, #80	; 0x50
 8008924:	f383 8811 	msr	BASEPRI, r3
 8008928:	f3bf 8f6f 	isb	sy
 800892c:	f3bf 8f4f 	dsb	sy
 8008930:	e7fe      	b.n	8008930 <xTaskCreateStatic+0x28>
 8008932:	f04f 0350 	mov.w	r3, #80	; 0x50
 8008936:	f383 8811 	msr	BASEPRI, r3
 800893a:	f3bf 8f6f 	isb	sy
 800893e:	f3bf 8f4f 	dsb	sy
 8008942:	e7fe      	b.n	8008942 <xTaskCreateStatic+0x3a>
 8008944:	f04f 0350 	mov.w	r3, #80	; 0x50
 8008948:	f383 8811 	msr	BASEPRI, r3
 800894c:	f3bf 8f6f 	isb	sy
 8008950:	f3bf 8f4f 	dsb	sy
 8008954:	e7fe      	b.n	8008954 <xTaskCreateStatic+0x4c>
 8008956:	6325      	str	r5, [r4, #48]	; 0x30
 8008958:	2702      	movs	r7, #2
 800895a:	ad04      	add	r5, sp, #16
 800895c:	9402      	str	r4, [sp, #8]
 800895e:	9600      	str	r6, [sp, #0]
 8008960:	f884 70bd 	strb.w	r7, [r4, #189]	; 0xbd
 8008964:	9501      	str	r5, [sp, #4]
 8008966:	9d05      	ldr	r5, [sp, #20]
 8008968:	f7ff fd0e 	bl	8008388 <prvInitialiseNewTask.isra.0>
 800896c:	4620      	mov	r0, r4
 800896e:	f7ff fc69 	bl	8008244 <prvAddNewTaskToReadyList>
 8008972:	9804      	ldr	r0, [sp, #16]
 8008974:	b007      	add	sp, #28
 8008976:	bdf0      	pop	{r4, r5, r6, r7, pc}

08008978 <xTaskCreate>:
 8008978:	e92d 43f0 	stmdb	sp!, {r4, r5, r6, r7, r8, r9, lr}
 800897c:	4607      	mov	r7, r0
 800897e:	b085      	sub	sp, #20
 8008980:	0090      	lsls	r0, r2, #2
 8008982:	4615      	mov	r5, r2
 8008984:	4688      	mov	r8, r1
 8008986:	4699      	mov	r9, r3
 8008988:	f001 f836 	bl	80099f8 <pvPortMalloc>
 800898c:	b1e0      	cbz	r0, 80089c8 <xTaskCreate+0x50>
 800898e:	4604      	mov	r4, r0
 8008990:	20c0      	movs	r0, #192	; 0xc0
 8008992:	f001 f831 	bl	80099f8 <pvPortMalloc>
 8008996:	4606      	mov	r6, r0
 8008998:	b1d8      	cbz	r0, 80089d2 <xTaskCreate+0x5a>
 800899a:	6304      	str	r4, [r0, #48]	; 0x30
 800899c:	f04f 0c00 	mov.w	ip, #0
 80089a0:	9c0d      	ldr	r4, [sp, #52]	; 0x34
 80089a2:	f886 c0bd 	strb.w	ip, [r6, #189]	; 0xbd
 80089a6:	9401      	str	r4, [sp, #4]
 80089a8:	9c0c      	ldr	r4, [sp, #48]	; 0x30
 80089aa:	9602      	str	r6, [sp, #8]
 80089ac:	464b      	mov	r3, r9
 80089ae:	462a      	mov	r2, r5
 80089b0:	4641      	mov	r1, r8
 80089b2:	4638      	mov	r0, r7
 80089b4:	9400      	str	r4, [sp, #0]
 80089b6:	f7ff fce7 	bl	8008388 <prvInitialiseNewTask.isra.0>
 80089ba:	4630      	mov	r0, r6
 80089bc:	f7ff fc42 	bl	8008244 <prvAddNewTaskToReadyList>
 80089c0:	2001      	movs	r0, #1
 80089c2:	b005      	add	sp, #20
 80089c4:	e8bd 83f0 	ldmia.w	sp!, {r4, r5, r6, r7, r8, r9, pc}
 80089c8:	f04f 30ff 	mov.w	r0, #4294967295
 80089cc:	b005      	add	sp, #20
 80089ce:	e8bd 83f0 	ldmia.w	sp!, {r4, r5, r6, r7, r8, r9, pc}
 80089d2:	4620      	mov	r0, r4
 80089d4:	f001 f8de 	bl	8009b94 <vPortFree>
 80089d8:	f04f 30ff 	mov.w	r0, #4294967295
 80089dc:	e7f1      	b.n	80089c2 <xTaskCreate+0x4a>
 80089de:	bf00      	nop

080089e0 <vTaskDelay>:
 80089e0:	b5f8      	push	{r3, r4, r5, r6, r7, lr}
 80089e2:	b958      	cbnz	r0, 80089fc <vTaskDelay+0x1c>
 80089e4:	f64e 5304 	movw	r3, #60676	; 0xed04
 80089e8:	f2ce 0300 	movt	r3, #57344	; 0xe000
 80089ec:	f04f 5280 	mov.w	r2, #268435456	; 0x10000000
 80089f0:	601a      	str	r2, [r3, #0]
 80089f2:	f3bf 8f4f 	dsb	sy
 80089f6:	f3bf 8f6f 	isb	sy
 80089fa:	bdf8      	pop	{r3, r4, r5, r6, r7, pc}
 80089fc:	f643 0564 	movw	r5, #14436	; 0x3864
 8008a00:	f2c2 0500 	movt	r5, #8192	; 0x2000
 8008a04:	682b      	ldr	r3, [r5, #0]
 8008a06:	b143      	cbz	r3, 8008a1a <vTaskDelay+0x3a>
 8008a08:	f04f 0350 	mov.w	r3, #80	; 0x50
 8008a0c:	f383 8811 	msr	BASEPRI, r3
 8008a10:	f3bf 8f6f 	isb	sy
 8008a14:	f3bf 8f4f 	dsb	sy
 8008a18:	e7fe      	b.n	8008a18 <vTaskDelay+0x38>
 8008a1a:	682b      	ldr	r3, [r5, #0]
 8008a1c:	3301      	adds	r3, #1
 8008a1e:	4604      	mov	r4, r0
 8008a20:	602b      	str	r3, [r5, #0]
 8008a22:	f643 03e4 	movw	r3, #14564	; 0x38e4
 8008a26:	f243 36ec 	movw	r6, #13292	; 0x33ec
 8008a2a:	f2c2 0300 	movt	r3, #8192	; 0x2000
 8008a2e:	f2c2 0600 	movt	r6, #8192	; 0x2000
 8008a32:	681f      	ldr	r7, [r3, #0]
 8008a34:	6830      	ldr	r0, [r6, #0]
 8008a36:	3004      	adds	r0, #4
 8008a38:	f7fe ff36 	bl	80078a8 <uxListRemove>
 8008a3c:	6833      	ldr	r3, [r6, #0]
 8008a3e:	19e4      	adds	r4, r4, r7
 8008a40:	605c      	str	r4, [r3, #4]
 8008a42:	d318      	bcc.n	8008a76 <vTaskDelay+0x96>
 8008a44:	f243 33f4 	movw	r3, #13300	; 0x33f4
 8008a48:	f2c2 0300 	movt	r3, #8192	; 0x2000
 8008a4c:	6818      	ldr	r0, [r3, #0]
 8008a4e:	6831      	ldr	r1, [r6, #0]
 8008a50:	3104      	adds	r1, #4
 8008a52:	f7fe ff11 	bl	8007878 <vListInsert>
 8008a56:	682b      	ldr	r3, [r5, #0]
 8008a58:	b943      	cbnz	r3, 8008a6c <vTaskDelay+0x8c>
 8008a5a:	f04f 0350 	mov.w	r3, #80	; 0x50
 8008a5e:	f383 8811 	msr	BASEPRI, r3
 8008a62:	f3bf 8f6f 	isb	sy
 8008a66:	f3bf 8f4f 	dsb	sy
 8008a6a:	e7fe      	b.n	8008a6a <vTaskDelay+0x8a>
 8008a6c:	f7ff fea8 	bl	80087c0 <xTaskResumeAll.part.0>
 8008a70:	2800      	cmp	r0, #0
 8008a72:	d0b7      	beq.n	80089e4 <vTaskDelay+0x4>
 8008a74:	bdf8      	pop	{r3, r4, r5, r6, r7, pc}
 8008a76:	f243 33f0 	movw	r3, #13296	; 0x33f0
 8008a7a:	f2c2 0300 	movt	r3, #8192	; 0x2000
 8008a7e:	6818      	ldr	r0, [r3, #0]
 8008a80:	6831      	ldr	r1, [r6, #0]
 8008a82:	3104      	adds	r1, #4
 8008a84:	f7fe fef8 	bl	8007878 <vListInsert>
 8008a88:	f643 0398 	movw	r3, #14488	; 0x3898
 8008a8c:	f2c2 0300 	movt	r3, #8192	; 0x2000
 8008a90:	681a      	ldr	r2, [r3, #0]
 8008a92:	4294      	cmp	r4, r2
 8008a94:	bf38      	it	cc
 8008a96:	601c      	strcc	r4, [r3, #0]
 8008a98:	e7dd      	b.n	8008a56 <vTaskDelay+0x76>
 8008a9a:	bf00      	nop

08008a9c <vTaskStartScheduler>:
 8008a9c:	b5f0      	push	{r4, r5, r6, r7, lr}
 8008a9e:	b08b      	sub	sp, #44	; 0x2c
 8008aa0:	2400      	movs	r4, #0
 8008aa2:	aa07      	add	r2, sp, #28
 8008aa4:	a906      	add	r1, sp, #24
 8008aa6:	a805      	add	r0, sp, #20
 8008aa8:	e9cd 4405 	strd	r4, r4, [sp, #20]
 8008aac:	f7fe fea4 	bl	80077f8 <vApplicationGetIdleTaskMemory>
 8008ab0:	9b06      	ldr	r3, [sp, #24]
 8008ab2:	b1cb      	cbz	r3, 8008ae8 <vTaskStartScheduler+0x4c>
 8008ab4:	9d05      	ldr	r5, [sp, #20]
 8008ab6:	b175      	cbz	r5, 8008ad6 <vTaskStartScheduler+0x3a>
 8008ab8:	22c0      	movs	r2, #192	; 0xc0
 8008aba:	9209      	str	r2, [sp, #36]	; 0x24
 8008abc:	9909      	ldr	r1, [sp, #36]	; 0x24
 8008abe:	9a07      	ldr	r2, [sp, #28]
 8008ac0:	29c0      	cmp	r1, #192	; 0xc0
 8008ac2:	d01a      	beq.n	8008afa <vTaskStartScheduler+0x5e>
 8008ac4:	f04f 0350 	mov.w	r3, #80	; 0x50
 8008ac8:	f383 8811 	msr	BASEPRI, r3
 8008acc:	f3bf 8f6f 	isb	sy
 8008ad0:	f3bf 8f4f 	dsb	sy
 8008ad4:	e7fe      	b.n	8008ad4 <vTaskStartScheduler+0x38>
 8008ad6:	f04f 0350 	mov.w	r3, #80	; 0x50
 8008ada:	f383 8811 	msr	BASEPRI, r3
 8008ade:	f3bf 8f6f 	isb	sy
 8008ae2:	f3bf 8f4f 	dsb	sy
 8008ae6:	e7fe      	b.n	8008ae6 <vTaskStartScheduler+0x4a>
 8008ae8:	f04f 0350 	mov.w	r3, #80	; 0x50
 8008aec:	f383 8811 	msr	BASEPRI, r3
 8008af0:	f3bf 8f6f 	isb	sy
 8008af4:	f3bf 8f4f 	dsb	sy
 8008af8:	e7fe      	b.n	8008af8 <vTaskStartScheduler+0x5c>
 8008afa:	ae08      	add	r6, sp, #32
 8008afc:	2702      	movs	r7, #2
 8008afe:	f64f 6118 	movw	r1, #65048	; 0xfe18
 8008b02:	f248 50a1 	movw	r0, #34209	; 0x85a1
 8008b06:	632b      	str	r3, [r5, #48]	; 0x30
 8008b08:	f885 70bd 	strb.w	r7, [r5, #189]	; 0xbd
 8008b0c:	4623      	mov	r3, r4
 8008b0e:	e9cd 4600 	strd	r4, r6, [sp]
 8008b12:	f6c0 0100 	movt	r1, #2048	; 0x800
 8008b16:	f6c0 0000 	movt	r0, #2048	; 0x800
 8008b1a:	9502      	str	r5, [sp, #8]
 8008b1c:	9e09      	ldr	r6, [sp, #36]	; 0x24
 8008b1e:	f7ff fc33 	bl	8008388 <prvInitialiseNewTask.isra.0>
 8008b22:	4628      	mov	r0, r5
 8008b24:	f7ff fb8e 	bl	8008244 <prvAddNewTaskToReadyList>
 8008b28:	9b08      	ldr	r3, [sp, #32]
 8008b2a:	b35b      	cbz	r3, 8008b84 <vTaskStartScheduler+0xe8>
 8008b2c:	f000 fbbc 	bl	80092a8 <xTimerCreateTimerTask>
 8008b30:	2801      	cmp	r0, #1
 8008b32:	d129      	bne.n	8008b88 <vTaskStartScheduler+0xec>
 8008b34:	f04f 0350 	mov.w	r3, #80	; 0x50
 8008b38:	f383 8811 	msr	BASEPRI, r3
 8008b3c:	f3bf 8f6f 	isb	sy
 8008b40:	f3bf 8f4f 	dsb	sy
 8008b44:	f243 32ec 	movw	r2, #13292	; 0x33ec
 8008b48:	f643 0398 	movw	r3, #14488	; 0x3898
 8008b4c:	f2c2 0200 	movt	r2, #8192	; 0x2000
 8008b50:	f2c2 0300 	movt	r3, #8192	; 0x2000
 8008b54:	f04f 36ff 	mov.w	r6, #4294967295
 8008b58:	6811      	ldr	r1, [r2, #0]
 8008b5a:	601e      	str	r6, [r3, #0]
 8008b5c:	f643 05b8 	movw	r5, #14520	; 0x38b8
 8008b60:	f240 0240 	movw	r2, #64	; 0x40
 8008b64:	f643 03e4 	movw	r3, #14564	; 0x38e4
 8008b68:	f2c2 0200 	movt	r2, #8192	; 0x2000
 8008b6c:	f2c2 0300 	movt	r3, #8192	; 0x2000
 8008b70:	f2c2 0500 	movt	r5, #8192	; 0x2000
 8008b74:	3158      	adds	r1, #88	; 0x58
 8008b76:	6028      	str	r0, [r5, #0]
 8008b78:	6011      	str	r1, [r2, #0]
 8008b7a:	601c      	str	r4, [r3, #0]
 8008b7c:	f7f8 fa36 	bl	8000fec <configureTimerForRunTimeStats>
 8008b80:	f000 fe60 	bl	8009844 <xPortStartScheduler>
 8008b84:	b00b      	add	sp, #44	; 0x2c
 8008b86:	bdf0      	pop	{r4, r5, r6, r7, pc}
 8008b88:	3001      	adds	r0, #1
 8008b8a:	d1fb      	bne.n	8008b84 <vTaskStartScheduler+0xe8>
 8008b8c:	f04f 0350 	mov.w	r3, #80	; 0x50
 8008b90:	f383 8811 	msr	BASEPRI, r3
 8008b94:	f3bf 8f6f 	isb	sy
 8008b98:	f3bf 8f4f 	dsb	sy
 8008b9c:	e7fe      	b.n	8008b9c <vTaskStartScheduler+0x100>
 8008b9e:	bf00      	nop

08008ba0 <vTaskSuspendAll>:
 8008ba0:	f643 0364 	movw	r3, #14436	; 0x3864
 8008ba4:	f2c2 0300 	movt	r3, #8192	; 0x2000
 8008ba8:	681a      	ldr	r2, [r3, #0]
 8008baa:	3201      	adds	r2, #1
 8008bac:	601a      	str	r2, [r3, #0]
 8008bae:	4770      	bx	lr

08008bb0 <xTaskResumeAll>:
 8008bb0:	f643 0364 	movw	r3, #14436	; 0x3864
 8008bb4:	f2c2 0300 	movt	r3, #8192	; 0x2000
 8008bb8:	681b      	ldr	r3, [r3, #0]
 8008bba:	b943      	cbnz	r3, 8008bce <xTaskResumeAll+0x1e>
 8008bbc:	f04f 0350 	mov.w	r3, #80	; 0x50
 8008bc0:	f383 8811 	msr	BASEPRI, r3
 8008bc4:	f3bf 8f6f 	isb	sy
 8008bc8:	f3bf 8f4f 	dsb	sy
 8008bcc:	e7fe      	b.n	8008bcc <xTaskResumeAll+0x1c>
 8008bce:	f7ff bdf7 	b.w	80087c0 <xTaskResumeAll.part.0>
 8008bd2:	bf00      	nop

08008bd4 <xTaskGetTickCount>:
 8008bd4:	f643 03e4 	movw	r3, #14564	; 0x38e4
 8008bd8:	f2c2 0300 	movt	r3, #8192	; 0x2000
 8008bdc:	6818      	ldr	r0, [r3, #0]
 8008bde:	4770      	bx	lr

08008be0 <xTaskIncrementTick>:
 8008be0:	f643 0364 	movw	r3, #14436	; 0x3864
 8008be4:	f2c2 0300 	movt	r3, #8192	; 0x2000
 8008be8:	681b      	ldr	r3, [r3, #0]
 8008bea:	b90b      	cbnz	r3, 8008bf0 <xTaskIncrementTick+0x10>
 8008bec:	f7ff bd2c 	b.w	8008648 <xTaskIncrementTick.part.0>
 8008bf0:	f643 03a0 	movw	r3, #14496	; 0x38a0
 8008bf4:	f2c2 0300 	movt	r3, #8192	; 0x2000
 8008bf8:	2000      	movs	r0, #0
 8008bfa:	681a      	ldr	r2, [r3, #0]
 8008bfc:	3201      	adds	r2, #1
 8008bfe:	601a      	str	r2, [r3, #0]
 8008c00:	4770      	bx	lr
 8008c02:	bf00      	nop

08008c04 <vTaskSwitchContext>:
 8008c04:	f643 0364 	movw	r3, #14436	; 0x3864
 8008c08:	f2c2 0300 	movt	r3, #8192	; 0x2000
 8008c0c:	681b      	ldr	r3, [r3, #0]
 8008c0e:	b133      	cbz	r3, 8008c1e <vTaskSwitchContext+0x1a>
 8008c10:	f643 03e8 	movw	r3, #14568	; 0x38e8
 8008c14:	f2c2 0300 	movt	r3, #8192	; 0x2000
 8008c18:	2201      	movs	r2, #1
 8008c1a:	601a      	str	r2, [r3, #0]
 8008c1c:	4770      	bx	lr
 8008c1e:	f7ff bc61 	b.w	80084e4 <vTaskSwitchContext.part.0>
 8008c22:	bf00      	nop

08008c24 <vTaskPlaceOnEventList>:
 8008c24:	b318      	cbz	r0, 8008c6e <vTaskPlaceOnEventList+0x4a>
 8008c26:	b570      	push	{r4, r5, r6, lr}
 8008c28:	f243 35ec 	movw	r5, #13292	; 0x33ec
 8008c2c:	f2c2 0500 	movt	r5, #8192	; 0x2000
 8008c30:	460c      	mov	r4, r1
 8008c32:	6829      	ldr	r1, [r5, #0]
 8008c34:	3118      	adds	r1, #24
 8008c36:	f7fe fe1f 	bl	8007878 <vListInsert>
 8008c3a:	f643 03e4 	movw	r3, #14564	; 0x38e4
 8008c3e:	f2c2 0300 	movt	r3, #8192	; 0x2000
 8008c42:	681e      	ldr	r6, [r3, #0]
 8008c44:	6828      	ldr	r0, [r5, #0]
 8008c46:	3004      	adds	r0, #4
 8008c48:	f7fe fe2e 	bl	80078a8 <uxListRemove>
 8008c4c:	1c63      	adds	r3, r4, #1
 8008c4e:	d017      	beq.n	8008c80 <vTaskPlaceOnEventList+0x5c>
 8008c50:	682b      	ldr	r3, [r5, #0]
 8008c52:	19a4      	adds	r4, r4, r6
 8008c54:	605c      	str	r4, [r3, #4]
 8008c56:	d31d      	bcc.n	8008c94 <vTaskPlaceOnEventList+0x70>
 8008c58:	f243 33f4 	movw	r3, #13300	; 0x33f4
 8008c5c:	f2c2 0300 	movt	r3, #8192	; 0x2000
 8008c60:	6818      	ldr	r0, [r3, #0]
 8008c62:	6829      	ldr	r1, [r5, #0]
 8008c64:	e8bd 4070 	ldmia.w	sp!, {r4, r5, r6, lr}
 8008c68:	3104      	adds	r1, #4
 8008c6a:	f7fe be05 	b.w	8007878 <vListInsert>
 8008c6e:	f04f 0350 	mov.w	r3, #80	; 0x50
 8008c72:	f383 8811 	msr	BASEPRI, r3
 8008c76:	f3bf 8f6f 	isb	sy
 8008c7a:	f3bf 8f4f 	dsb	sy
 8008c7e:	e7fe      	b.n	8008c7e <vTaskPlaceOnEventList+0x5a>
 8008c80:	6829      	ldr	r1, [r5, #0]
 8008c82:	f643 00bc 	movw	r0, #14524	; 0x38bc
 8008c86:	e8bd 4070 	ldmia.w	sp!, {r4, r5, r6, lr}
 8008c8a:	3104      	adds	r1, #4
 8008c8c:	f2c2 0000 	movt	r0, #8192	; 0x2000
 8008c90:	f7fe bde2 	b.w	8007858 <vListInsertEnd>
 8008c94:	f243 33f0 	movw	r3, #13296	; 0x33f0
 8008c98:	f2c2 0300 	movt	r3, #8192	; 0x2000
 8008c9c:	6818      	ldr	r0, [r3, #0]
 8008c9e:	6829      	ldr	r1, [r5, #0]
 8008ca0:	3104      	adds	r1, #4
 8008ca2:	f7fe fde9 	bl	8007878 <vListInsert>
 8008ca6:	f643 0398 	movw	r3, #14488	; 0x3898
 8008caa:	f2c2 0300 	movt	r3, #8192	; 0x2000
 8008cae:	681a      	ldr	r2, [r3, #0]
 8008cb0:	4294      	cmp	r4, r2
 8008cb2:	bf38      	it	cc
 8008cb4:	601c      	strcc	r4, [r3, #0]
 8008cb6:	bd70      	pop	{r4, r5, r6, pc}

08008cb8 <vTaskPlaceOnEventListRestricted>:
 8008cb8:	b390      	cbz	r0, 8008d20 <vTaskPlaceOnEventListRestricted+0x68>
 8008cba:	b570      	push	{r4, r5, r6, lr}
 8008cbc:	f243 35ec 	movw	r5, #13292	; 0x33ec
 8008cc0:	f2c2 0500 	movt	r5, #8192	; 0x2000
 8008cc4:	460c      	mov	r4, r1
 8008cc6:	6829      	ldr	r1, [r5, #0]
 8008cc8:	3118      	adds	r1, #24
 8008cca:	4616      	mov	r6, r2
 8008ccc:	f7fe fdc4 	bl	8007858 <vListInsertEnd>
 8008cd0:	f643 03e4 	movw	r3, #14564	; 0x38e4
 8008cd4:	f2c2 0300 	movt	r3, #8192	; 0x2000
 8008cd8:	b99e      	cbnz	r6, 8008d02 <vTaskPlaceOnEventListRestricted+0x4a>
 8008cda:	681e      	ldr	r6, [r3, #0]
 8008cdc:	6828      	ldr	r0, [r5, #0]
 8008cde:	3004      	adds	r0, #4
 8008ce0:	f7fe fde2 	bl	80078a8 <uxListRemove>
 8008ce4:	682b      	ldr	r3, [r5, #0]
 8008ce6:	19a4      	adds	r4, r4, r6
 8008ce8:	605c      	str	r4, [r3, #4]
 8008cea:	d322      	bcc.n	8008d32 <vTaskPlaceOnEventListRestricted+0x7a>
 8008cec:	f243 33f4 	movw	r3, #13300	; 0x33f4
 8008cf0:	f2c2 0300 	movt	r3, #8192	; 0x2000
 8008cf4:	6818      	ldr	r0, [r3, #0]
 8008cf6:	6829      	ldr	r1, [r5, #0]
 8008cf8:	e8bd 4070 	ldmia.w	sp!, {r4, r5, r6, lr}
 8008cfc:	3104      	adds	r1, #4
 8008cfe:	f7fe bdbb 	b.w	8007878 <vListInsert>
 8008d02:	681b      	ldr	r3, [r3, #0]
 8008d04:	6828      	ldr	r0, [r5, #0]
 8008d06:	3004      	adds	r0, #4
 8008d08:	f7fe fdce 	bl	80078a8 <uxListRemove>
 8008d0c:	6829      	ldr	r1, [r5, #0]
 8008d0e:	f643 00bc 	movw	r0, #14524	; 0x38bc
 8008d12:	e8bd 4070 	ldmia.w	sp!, {r4, r5, r6, lr}
 8008d16:	3104      	adds	r1, #4
 8008d18:	f2c2 0000 	movt	r0, #8192	; 0x2000
 8008d1c:	f7fe bd9c 	b.w	8007858 <vListInsertEnd>
 8008d20:	f04f 0350 	mov.w	r3, #80	; 0x50
 8008d24:	f383 8811 	msr	BASEPRI, r3
 8008d28:	f3bf 8f6f 	isb	sy
 8008d2c:	f3bf 8f4f 	dsb	sy
 8008d30:	e7fe      	b.n	8008d30 <vTaskPlaceOnEventListRestricted+0x78>
 8008d32:	f243 33f0 	movw	r3, #13296	; 0x33f0
 8008d36:	f2c2 0300 	movt	r3, #8192	; 0x2000
 8008d3a:	6818      	ldr	r0, [r3, #0]
 8008d3c:	6829      	ldr	r1, [r5, #0]
 8008d3e:	3104      	adds	r1, #4
 8008d40:	f7fe fd9a 	bl	8007878 <vListInsert>
 8008d44:	f643 0398 	movw	r3, #14488	; 0x3898
 8008d48:	f2c2 0300 	movt	r3, #8192	; 0x2000
 8008d4c:	681a      	ldr	r2, [r3, #0]
 8008d4e:	4294      	cmp	r4, r2
 8008d50:	bf38      	it	cc
 8008d52:	601c      	strcc	r4, [r3, #0]
 8008d54:	bd70      	pop	{r4, r5, r6, pc}
 8008d56:	bf00      	nop

08008d58 <xTaskRemoveFromEventList>:
 8008d58:	b510      	push	{r4, lr}
 8008d5a:	68c3      	ldr	r3, [r0, #12]
 8008d5c:	68dc      	ldr	r4, [r3, #12]
 8008d5e:	b082      	sub	sp, #8
 8008d60:	2c00      	cmp	r4, #0
 8008d62:	d03d      	beq.n	8008de0 <xTaskRemoveFromEventList+0x88>
 8008d64:	f104 0118 	add.w	r1, r4, #24
 8008d68:	4608      	mov	r0, r1
 8008d6a:	9101      	str	r1, [sp, #4]
 8008d6c:	f7fe fd9c 	bl	80078a8 <uxListRemove>
 8008d70:	f643 0364 	movw	r3, #14436	; 0x3864
 8008d74:	f2c2 0300 	movt	r3, #8192	; 0x2000
 8008d78:	9901      	ldr	r1, [sp, #4]
 8008d7a:	681b      	ldr	r3, [r3, #0]
 8008d7c:	b1b3      	cbz	r3, 8008dac <xTaskRemoveFromEventList+0x54>
 8008d7e:	f643 00a4 	movw	r0, #14500	; 0x38a4
 8008d82:	f2c2 0000 	movt	r0, #8192	; 0x2000
 8008d86:	f7fe fd67 	bl	8007858 <vListInsertEnd>
 8008d8a:	f243 33ec 	movw	r3, #13292	; 0x33ec
 8008d8e:	f2c2 0300 	movt	r3, #8192	; 0x2000
 8008d92:	6ae2      	ldr	r2, [r4, #44]	; 0x2c
 8008d94:	681b      	ldr	r3, [r3, #0]
 8008d96:	6adb      	ldr	r3, [r3, #44]	; 0x2c
 8008d98:	429a      	cmp	r2, r3
 8008d9a:	d92a      	bls.n	8008df2 <xTaskRemoveFromEventList+0x9a>
 8008d9c:	f643 03e8 	movw	r3, #14568	; 0x38e8
 8008da0:	f2c2 0300 	movt	r3, #8192	; 0x2000
 8008da4:	2001      	movs	r0, #1
 8008da6:	6018      	str	r0, [r3, #0]
 8008da8:	b002      	add	sp, #8
 8008daa:	bd10      	pop	{r4, pc}
 8008dac:	1d21      	adds	r1, r4, #4
 8008dae:	4608      	mov	r0, r1
 8008db0:	9101      	str	r1, [sp, #4]
 8008db2:	f7fe fd79 	bl	80078a8 <uxListRemove>
 8008db6:	f643 026c 	movw	r2, #14444	; 0x386c
 8008dba:	f2c2 0200 	movt	r2, #8192	; 0x2000
 8008dbe:	6ae3      	ldr	r3, [r4, #44]	; 0x2c
 8008dc0:	6810      	ldr	r0, [r2, #0]
 8008dc2:	9901      	ldr	r1, [sp, #4]
 8008dc4:	4283      	cmp	r3, r0
 8008dc6:	f243 30f8 	movw	r0, #13304	; 0x33f8
 8008dca:	bf88      	it	hi
 8008dcc:	6013      	strhi	r3, [r2, #0]
 8008dce:	f2c2 0000 	movt	r0, #8192	; 0x2000
 8008dd2:	eb03 0383 	add.w	r3, r3, r3, lsl #2
 8008dd6:	eb00 0083 	add.w	r0, r0, r3, lsl #2
 8008dda:	f7fe fd3d 	bl	8007858 <vListInsertEnd>
 8008dde:	e7d4      	b.n	8008d8a <xTaskRemoveFromEventList+0x32>
 8008de0:	f04f 0350 	mov.w	r3, #80	; 0x50
 8008de4:	f383 8811 	msr	BASEPRI, r3
 8008de8:	f3bf 8f6f 	isb	sy
 8008dec:	f3bf 8f4f 	dsb	sy
 8008df0:	e7fe      	b.n	8008df0 <xTaskRemoveFromEventList+0x98>
 8008df2:	2000      	movs	r0, #0
 8008df4:	b002      	add	sp, #8
 8008df6:	bd10      	pop	{r4, pc}

08008df8 <vTaskInternalSetTimeOutState>:
 8008df8:	f643 029c 	movw	r2, #14492	; 0x389c
 8008dfc:	f643 03e4 	movw	r3, #14564	; 0x38e4
 8008e00:	f2c2 0200 	movt	r2, #8192	; 0x2000
 8008e04:	f2c2 0300 	movt	r3, #8192	; 0x2000
 8008e08:	6812      	ldr	r2, [r2, #0]
 8008e0a:	681b      	ldr	r3, [r3, #0]
 8008e0c:	e9c0 2300 	strd	r2, r3, [r0]
 8008e10:	4770      	bx	lr
 8008e12:	bf00      	nop

08008e14 <xTaskCheckForTimeOut>:
 8008e14:	b5f8      	push	{r3, r4, r5, r6, r7, lr}
 8008e16:	b330      	cbz	r0, 8008e66 <xTaskCheckForTimeOut+0x52>
 8008e18:	460d      	mov	r5, r1
 8008e1a:	b1d9      	cbz	r1, 8008e54 <xTaskCheckForTimeOut+0x40>
 8008e1c:	4604      	mov	r4, r0
 8008e1e:	f000 fc69 	bl	80096f4 <vPortEnterCritical>
 8008e22:	682b      	ldr	r3, [r5, #0]
 8008e24:	f643 02e4 	movw	r2, #14564	; 0x38e4
 8008e28:	f2c2 0200 	movt	r2, #8192	; 0x2000
 8008e2c:	1c59      	adds	r1, r3, #1
 8008e2e:	6816      	ldr	r6, [r2, #0]
 8008e30:	d02e      	beq.n	8008e90 <xTaskCheckForTimeOut+0x7c>
 8008e32:	f643 019c 	movw	r1, #14492	; 0x389c
 8008e36:	f2c2 0100 	movt	r1, #8192	; 0x2000
 8008e3a:	e9d4 7000 	ldrd	r7, r0, [r4]
 8008e3e:	f8d1 c000 	ldr.w	ip, [r1]
 8008e42:	4567      	cmp	r7, ip
 8008e44:	d018      	beq.n	8008e78 <xTaskCheckForTimeOut+0x64>
 8008e46:	42b0      	cmp	r0, r6
 8008e48:	d816      	bhi.n	8008e78 <xTaskCheckForTimeOut+0x64>
 8008e4a:	2501      	movs	r5, #1
 8008e4c:	f000 fc76 	bl	800973c <vPortExitCritical>
 8008e50:	4628      	mov	r0, r5
 8008e52:	bdf8      	pop	{r3, r4, r5, r6, r7, pc}
 8008e54:	f04f 0350 	mov.w	r3, #80	; 0x50
 8008e58:	f383 8811 	msr	BASEPRI, r3
 8008e5c:	f3bf 8f6f 	isb	sy
 8008e60:	f3bf 8f4f 	dsb	sy
 8008e64:	e7fe      	b.n	8008e64 <xTaskCheckForTimeOut+0x50>
 8008e66:	f04f 0350 	mov.w	r3, #80	; 0x50
 8008e6a:	f383 8811 	msr	BASEPRI, r3
 8008e6e:	f3bf 8f6f 	isb	sy
 8008e72:	f3bf 8f4f 	dsb	sy
 8008e76:	e7fe      	b.n	8008e76 <xTaskCheckForTimeOut+0x62>
 8008e78:	1a37      	subs	r7, r6, r0
 8008e7a:	42bb      	cmp	r3, r7
 8008e7c:	d90d      	bls.n	8008e9a <xTaskCheckForTimeOut+0x86>
 8008e7e:	6809      	ldr	r1, [r1, #0]
 8008e80:	6812      	ldr	r2, [r2, #0]
 8008e82:	1b9b      	subs	r3, r3, r6
 8008e84:	4403      	add	r3, r0
 8008e86:	602b      	str	r3, [r5, #0]
 8008e88:	e9c4 1200 	strd	r1, r2, [r4]
 8008e8c:	2500      	movs	r5, #0
 8008e8e:	e7dd      	b.n	8008e4c <xTaskCheckForTimeOut+0x38>
 8008e90:	2500      	movs	r5, #0
 8008e92:	f000 fc53 	bl	800973c <vPortExitCritical>
 8008e96:	4628      	mov	r0, r5
 8008e98:	bdf8      	pop	{r3, r4, r5, r6, r7, pc}
 8008e9a:	2300      	movs	r3, #0
 8008e9c:	602b      	str	r3, [r5, #0]
 8008e9e:	2501      	movs	r5, #1
 8008ea0:	e7d4      	b.n	8008e4c <xTaskCheckForTimeOut+0x38>
 8008ea2:	bf00      	nop

08008ea4 <vTaskMissedYield>:
 8008ea4:	f643 03e8 	movw	r3, #14568	; 0x38e8
 8008ea8:	f2c2 0300 	movt	r3, #8192	; 0x2000
 8008eac:	2201      	movs	r2, #1
 8008eae:	601a      	str	r2, [r3, #0]
 8008eb0:	4770      	bx	lr
 8008eb2:	bf00      	nop

08008eb4 <xTaskGetSchedulerState>:
 8008eb4:	f643 03b8 	movw	r3, #14520	; 0x38b8
 8008eb8:	f2c2 0300 	movt	r3, #8192	; 0x2000
 8008ebc:	681b      	ldr	r3, [r3, #0]
 8008ebe:	b14b      	cbz	r3, 8008ed4 <xTaskGetSchedulerState+0x20>
 8008ec0:	f643 0364 	movw	r3, #14436	; 0x3864
 8008ec4:	f2c2 0300 	movt	r3, #8192	; 0x2000
 8008ec8:	681b      	ldr	r3, [r3, #0]
 8008eca:	2b00      	cmp	r3, #0
 8008ecc:	bf0c      	ite	eq
 8008ece:	2002      	moveq	r0, #2
 8008ed0:	2000      	movne	r0, #0
 8008ed2:	4770      	bx	lr
 8008ed4:	2001      	movs	r0, #1
 8008ed6:	4770      	bx	lr

08008ed8 <xTaskPriorityDisinherit>:
 8008ed8:	b1e8      	cbz	r0, 8008f16 <xTaskPriorityDisinherit+0x3e>
 8008eda:	f243 33ec 	movw	r3, #13292	; 0x33ec
 8008ede:	b530      	push	{r4, r5, lr}
 8008ee0:	f2c2 0300 	movt	r3, #8192	; 0x2000
 8008ee4:	b083      	sub	sp, #12
 8008ee6:	681c      	ldr	r4, [r3, #0]
 8008ee8:	4284      	cmp	r4, r0
 8008eea:	d008      	beq.n	8008efe <xTaskPriorityDisinherit+0x26>
 8008eec:	f04f 0350 	mov.w	r3, #80	; 0x50
 8008ef0:	f383 8811 	msr	BASEPRI, r3
 8008ef4:	f3bf 8f6f 	isb	sy
 8008ef8:	f3bf 8f4f 	dsb	sy
 8008efc:	e7fe      	b.n	8008efc <xTaskPriorityDisinherit+0x24>
 8008efe:	6d23      	ldr	r3, [r4, #80]	; 0x50
 8008f00:	b15b      	cbz	r3, 8008f1a <xTaskPriorityDisinherit+0x42>
 8008f02:	6ae1      	ldr	r1, [r4, #44]	; 0x2c
 8008f04:	6ce2      	ldr	r2, [r4, #76]	; 0x4c
 8008f06:	3b01      	subs	r3, #1
 8008f08:	4291      	cmp	r1, r2
 8008f0a:	6523      	str	r3, [r4, #80]	; 0x50
 8008f0c:	d000      	beq.n	8008f10 <xTaskPriorityDisinherit+0x38>
 8008f0e:	b16b      	cbz	r3, 8008f2c <xTaskPriorityDisinherit+0x54>
 8008f10:	2000      	movs	r0, #0
 8008f12:	b003      	add	sp, #12
 8008f14:	bd30      	pop	{r4, r5, pc}
 8008f16:	2000      	movs	r0, #0
 8008f18:	4770      	bx	lr
 8008f1a:	f04f 0350 	mov.w	r3, #80	; 0x50
 8008f1e:	f383 8811 	msr	BASEPRI, r3
 8008f22:	f3bf 8f6f 	isb	sy
 8008f26:	f3bf 8f4f 	dsb	sy
 8008f2a:	e7fe      	b.n	8008f2a <xTaskPriorityDisinherit+0x52>
 8008f2c:	1d21      	adds	r1, r4, #4
 8008f2e:	4608      	mov	r0, r1
 8008f30:	9101      	str	r1, [sp, #4]
 8008f32:	f7fe fcb9 	bl	80078a8 <uxListRemove>
 8008f36:	f643 026c 	movw	r2, #14444	; 0x386c
 8008f3a:	f2c2 0200 	movt	r2, #8192	; 0x2000
 8008f3e:	6ce3      	ldr	r3, [r4, #76]	; 0x4c
 8008f40:	6810      	ldr	r0, [r2, #0]
 8008f42:	62e3      	str	r3, [r4, #44]	; 0x2c
 8008f44:	4283      	cmp	r3, r0
 8008f46:	f243 30f8 	movw	r0, #13304	; 0x33f8
 8008f4a:	f1c3 0538 	rsb	r5, r3, #56	; 0x38
 8008f4e:	bf88      	it	hi
 8008f50:	6013      	strhi	r3, [r2, #0]
 8008f52:	f2c2 0000 	movt	r0, #8192	; 0x2000
 8008f56:	eb03 0383 	add.w	r3, r3, r3, lsl #2
 8008f5a:	eb00 0083 	add.w	r0, r0, r3, lsl #2
 8008f5e:	9901      	ldr	r1, [sp, #4]
 8008f60:	61a5      	str	r5, [r4, #24]
 8008f62:	f7fe fc79 	bl	8007858 <vListInsertEnd>
 8008f66:	2001      	movs	r0, #1
 8008f68:	e7d3      	b.n	8008f12 <xTaskPriorityDisinherit+0x3a>
 8008f6a:	bf00      	nop

08008f6c <prvSwitchTimerLists>:
 8008f6c:	e92d 43f0 	stmdb	sp!, {r4, r5, r6, r7, r8, r9, lr}
 8008f70:	f643 06ec 	movw	r6, #14572	; 0x38ec
 8008f74:	f643 2710 	movw	r7, #14864	; 0x3a10
 8008f78:	b085      	sub	sp, #20
 8008f7a:	f2c2 0600 	movt	r6, #8192	; 0x2000
 8008f7e:	f2c2 0700 	movt	r7, #8192	; 0x2000
 8008f82:	f04f 0800 	mov.w	r8, #0
 8008f86:	e00e      	b.n	8008fa6 <prvSwitchTimerLists+0x3a>
 8008f88:	68db      	ldr	r3, [r3, #12]
 8008f8a:	68dc      	ldr	r4, [r3, #12]
 8008f8c:	f8d3 9000 	ldr.w	r9, [r3]
 8008f90:	1d25      	adds	r5, r4, #4
 8008f92:	4628      	mov	r0, r5
 8008f94:	f7fe fc88 	bl	80078a8 <uxListRemove>
 8008f98:	6a23      	ldr	r3, [r4, #32]
 8008f9a:	4620      	mov	r0, r4
 8008f9c:	4798      	blx	r3
 8008f9e:	f894 3028 	ldrb.w	r3, [r4, #40]	; 0x28
 8008fa2:	075b      	lsls	r3, r3, #29
 8008fa4:	d40d      	bmi.n	8008fc2 <prvSwitchTimerLists+0x56>
 8008fa6:	6833      	ldr	r3, [r6, #0]
 8008fa8:	681a      	ldr	r2, [r3, #0]
 8008faa:	2a00      	cmp	r2, #0
 8008fac:	d1ec      	bne.n	8008f88 <prvSwitchTimerLists+0x1c>
 8008fae:	f643 02f0 	movw	r2, #14576	; 0x38f0
 8008fb2:	f2c2 0200 	movt	r2, #8192	; 0x2000
 8008fb6:	6811      	ldr	r1, [r2, #0]
 8008fb8:	6031      	str	r1, [r6, #0]
 8008fba:	6013      	str	r3, [r2, #0]
 8008fbc:	b005      	add	sp, #20
 8008fbe:	e8bd 83f0 	ldmia.w	sp!, {r4, r5, r6, r7, r8, r9, pc}
 8008fc2:	69a3      	ldr	r3, [r4, #24]
 8008fc4:	444b      	add	r3, r9
 8008fc6:	4599      	cmp	r9, r3
 8008fc8:	4629      	mov	r1, r5
 8008fca:	d205      	bcs.n	8008fd8 <prvSwitchTimerLists+0x6c>
 8008fcc:	6830      	ldr	r0, [r6, #0]
 8008fce:	6063      	str	r3, [r4, #4]
 8008fd0:	6124      	str	r4, [r4, #16]
 8008fd2:	f7fe fc51 	bl	8007878 <vListInsert>
 8008fd6:	e7e6      	b.n	8008fa6 <prvSwitchTimerLists+0x3a>
 8008fd8:	683b      	ldr	r3, [r7, #0]
 8008fda:	b163      	cbz	r3, 8008ff6 <prvSwitchTimerLists+0x8a>
 8008fdc:	e9cd 8900 	strd	r8, r9, [sp]
 8008fe0:	9402      	str	r4, [sp, #8]
 8008fe2:	f7ff ff67 	bl	8008eb4 <xTaskGetSchedulerState>
 8008fe6:	2300      	movs	r3, #0
 8008fe8:	6838      	ldr	r0, [r7, #0]
 8008fea:	461a      	mov	r2, r3
 8008fec:	4669      	mov	r1, sp
 8008fee:	f7fe fd1f 	bl	8007a30 <xQueueGenericSend>
 8008ff2:	2800      	cmp	r0, #0
 8008ff4:	d1d7      	bne.n	8008fa6 <prvSwitchTimerLists+0x3a>
 8008ff6:	f04f 0350 	mov.w	r3, #80	; 0x50
 8008ffa:	f383 8811 	msr	BASEPRI, r3
 8008ffe:	f3bf 8f6f 	isb	sy
 8009002:	f3bf 8f4f 	dsb	sy
 8009006:	e7fe      	b.n	8009006 <prvSwitchTimerLists+0x9a>

08009008 <prvTimerTask>:
 8009008:	e92d 4ff0 	stmdb	sp!, {r4, r5, r6, r7, r8, r9, sl, fp, lr}
 800900c:	f643 03f0 	movw	r3, #14576	; 0x38f0
 8009010:	b08b      	sub	sp, #44	; 0x2c
 8009012:	f643 06ec 	movw	r6, #14572	; 0x38ec
 8009016:	f643 15bc 	movw	r5, #14780	; 0x39bc
 800901a:	f643 2410 	movw	r4, #14864	; 0x3a10
 800901e:	f64e 5904 	movw	r9, #60676	; 0xed04
 8009022:	f2c2 0300 	movt	r3, #8192	; 0x2000
 8009026:	f2c2 0600 	movt	r6, #8192	; 0x2000
 800902a:	f2c2 0500 	movt	r5, #8192	; 0x2000
 800902e:	9300      	str	r3, [sp, #0]
 8009030:	f2c2 0400 	movt	r4, #8192	; 0x2000
 8009034:	f2ce 0900 	movt	r9, #57344	; 0xe000
 8009038:	6833      	ldr	r3, [r6, #0]
 800903a:	f8d3 8000 	ldr.w	r8, [r3]
 800903e:	f1b8 0f00 	cmp.w	r8, #0
 8009042:	f000 80ad 	beq.w	80091a0 <prvTimerTask+0x198>
 8009046:	68db      	ldr	r3, [r3, #12]
 8009048:	f8d3 8000 	ldr.w	r8, [r3]
 800904c:	f7ff fda8 	bl	8008ba0 <vTaskSuspendAll>
 8009050:	f7ff fdc0 	bl	8008bd4 <xTaskGetTickCount>
 8009054:	682a      	ldr	r2, [r5, #0]
 8009056:	4290      	cmp	r0, r2
 8009058:	4682      	mov	sl, r0
 800905a:	f0c0 80b2 	bcc.w	80091c2 <prvTimerTask+0x1ba>
 800905e:	4540      	cmp	r0, r8
 8009060:	6028      	str	r0, [r5, #0]
 8009062:	f080 80b8 	bcs.w	80091d6 <prvTimerTask+0x1ce>
 8009066:	2200      	movs	r2, #0
 8009068:	6820      	ldr	r0, [r4, #0]
 800906a:	eba8 010a 	sub.w	r1, r8, sl
 800906e:	f7ff f883 	bl	8008178 <vQueueWaitForMessageRestricted>
 8009072:	f7ff fd9d 	bl	8008bb0 <xTaskResumeAll>
 8009076:	b938      	cbnz	r0, 8009088 <prvTimerTask+0x80>
 8009078:	f04f 5380 	mov.w	r3, #268435456	; 0x10000000
 800907c:	f8c9 3000 	str.w	r3, [r9]
 8009080:	f3bf 8f4f 	dsb	sy
 8009084:	f3bf 8f6f 	isb	sy
 8009088:	6820      	ldr	r0, [r4, #0]
 800908a:	2200      	movs	r2, #0
 800908c:	a902      	add	r1, sp, #8
 800908e:	f7fe febf 	bl	8007e10 <xQueueReceive>
 8009092:	2800      	cmp	r0, #0
 8009094:	d0d0      	beq.n	8009038 <prvTimerTask+0x30>
 8009096:	9b02      	ldr	r3, [sp, #8]
 8009098:	2b00      	cmp	r3, #0
 800909a:	db78      	blt.n	800918e <prvTimerTask+0x186>
 800909c:	9f04      	ldr	r7, [sp, #16]
 800909e:	697b      	ldr	r3, [r7, #20]
 80090a0:	b113      	cbz	r3, 80090a8 <prvTimerTask+0xa0>
 80090a2:	1d38      	adds	r0, r7, #4
 80090a4:	f7fe fc00 	bl	80078a8 <uxListRemove>
 80090a8:	f7ff fd94 	bl	8008bd4 <xTaskGetTickCount>
 80090ac:	682b      	ldr	r3, [r5, #0]
 80090ae:	4298      	cmp	r0, r3
 80090b0:	4680      	mov	r8, r0
 80090b2:	f0c0 808d 	bcc.w	80091d0 <prvTimerTask+0x1c8>
 80090b6:	9b02      	ldr	r3, [sp, #8]
 80090b8:	f8c5 8000 	str.w	r8, [r5]
 80090bc:	2b09      	cmp	r3, #9
 80090be:	d8e3      	bhi.n	8009088 <prvTimerTask+0x80>
 80090c0:	e8df f003 	tbb	[pc, r3]
 80090c4:	55050505 	.word	0x55050505
 80090c8:	05055c3e 	.word	0x05055c3e
 80090cc:	3e55      	.short	0x3e55
 80090ce:	f897 1028 	ldrb.w	r1, [r7, #40]	; 0x28
 80090d2:	9b03      	ldr	r3, [sp, #12]
 80090d4:	69ba      	ldr	r2, [r7, #24]
 80090d6:	613f      	str	r7, [r7, #16]
 80090d8:	1898      	adds	r0, r3, r2
 80090da:	f041 0101 	orr.w	r1, r1, #1
 80090de:	f887 1028 	strb.w	r1, [r7, #40]	; 0x28
 80090e2:	bf2c      	ite	cs
 80090e4:	2101      	movcs	r1, #1
 80090e6:	2100      	movcc	r1, #0
 80090e8:	4540      	cmp	r0, r8
 80090ea:	6078      	str	r0, [r7, #4]
 80090ec:	f200 808e 	bhi.w	800920c <prvTimerTask+0x204>
 80090f0:	eba8 0303 	sub.w	r3, r8, r3
 80090f4:	429a      	cmp	r2, r3
 80090f6:	f200 8097 	bhi.w	8009228 <prvTimerTask+0x220>
 80090fa:	6a3b      	ldr	r3, [r7, #32]
 80090fc:	4638      	mov	r0, r7
 80090fe:	4798      	blx	r3
 8009100:	f897 3028 	ldrb.w	r3, [r7, #40]	; 0x28
 8009104:	075b      	lsls	r3, r3, #29
 8009106:	d5bf      	bpl.n	8009088 <prvTimerTask+0x80>
 8009108:	6823      	ldr	r3, [r4, #0]
 800910a:	b183      	cbz	r3, 800912e <prvTimerTask+0x126>
 800910c:	69ba      	ldr	r2, [r7, #24]
 800910e:	9b03      	ldr	r3, [sp, #12]
 8009110:	2100      	movs	r1, #0
 8009112:	4413      	add	r3, r2
 8009114:	e9cd 3707 	strd	r3, r7, [sp, #28]
 8009118:	9106      	str	r1, [sp, #24]
 800911a:	f7ff fecb 	bl	8008eb4 <xTaskGetSchedulerState>
 800911e:	2300      	movs	r3, #0
 8009120:	6820      	ldr	r0, [r4, #0]
 8009122:	461a      	mov	r2, r3
 8009124:	a906      	add	r1, sp, #24
 8009126:	f7fe fc83 	bl	8007a30 <xQueueGenericSend>
 800912a:	2800      	cmp	r0, #0
 800912c:	d1ac      	bne.n	8009088 <prvTimerTask+0x80>
 800912e:	f04f 0350 	mov.w	r3, #80	; 0x50
 8009132:	f383 8811 	msr	BASEPRI, r3
 8009136:	f3bf 8f6f 	isb	sy
 800913a:	f3bf 8f4f 	dsb	sy
 800913e:	e7fe      	b.n	800913e <prvTimerTask+0x136>
 8009140:	f897 2028 	ldrb.w	r2, [r7, #40]	; 0x28
 8009144:	9b03      	ldr	r3, [sp, #12]
 8009146:	61bb      	str	r3, [r7, #24]
 8009148:	f042 0201 	orr.w	r2, r2, #1
 800914c:	f887 2028 	strb.w	r2, [r7, #40]	; 0x28
 8009150:	2b00      	cmp	r3, #0
 8009152:	f000 809b 	beq.w	800928c <prvTimerTask+0x284>
 8009156:	4443      	add	r3, r8
 8009158:	4543      	cmp	r3, r8
 800915a:	607b      	str	r3, [r7, #4]
 800915c:	bf96      	itet	ls
 800915e:	9b00      	ldrls	r3, [sp, #0]
 8009160:	6830      	ldrhi	r0, [r6, #0]
 8009162:	6818      	ldrls	r0, [r3, #0]
 8009164:	613f      	str	r7, [r7, #16]
 8009166:	1d39      	adds	r1, r7, #4
 8009168:	f7fe fb86 	bl	8007878 <vListInsert>
 800916c:	e78c      	b.n	8009088 <prvTimerTask+0x80>
 800916e:	f897 3028 	ldrb.w	r3, [r7, #40]	; 0x28
 8009172:	f023 0301 	bic.w	r3, r3, #1
 8009176:	f887 3028 	strb.w	r3, [r7, #40]	; 0x28
 800917a:	e785      	b.n	8009088 <prvTimerTask+0x80>
 800917c:	f897 3028 	ldrb.w	r3, [r7, #40]	; 0x28
 8009180:	079a      	lsls	r2, r3, #30
 8009182:	d54d      	bpl.n	8009220 <prvTimerTask+0x218>
 8009184:	f023 0301 	bic.w	r3, r3, #1
 8009188:	f887 3028 	strb.w	r3, [r7, #40]	; 0x28
 800918c:	e77c      	b.n	8009088 <prvTimerTask+0x80>
 800918e:	9b03      	ldr	r3, [sp, #12]
 8009190:	e9dd 0104 	ldrd	r0, r1, [sp, #16]
 8009194:	4798      	blx	r3
 8009196:	9b02      	ldr	r3, [sp, #8]
 8009198:	2b00      	cmp	r3, #0
 800919a:	f6ff af75 	blt.w	8009088 <prvTimerTask+0x80>
 800919e:	e77d      	b.n	800909c <prvTimerTask+0x94>
 80091a0:	f7ff fcfe 	bl	8008ba0 <vTaskSuspendAll>
 80091a4:	f7ff fd16 	bl	8008bd4 <xTaskGetTickCount>
 80091a8:	682a      	ldr	r2, [r5, #0]
 80091aa:	4282      	cmp	r2, r0
 80091ac:	4682      	mov	sl, r0
 80091ae:	d808      	bhi.n	80091c2 <prvTimerTask+0x1ba>
 80091b0:	9b00      	ldr	r3, [sp, #0]
 80091b2:	f8c5 a000 	str.w	sl, [r5]
 80091b6:	681a      	ldr	r2, [r3, #0]
 80091b8:	6812      	ldr	r2, [r2, #0]
 80091ba:	fab2 f282 	clz	r2, r2
 80091be:	0952      	lsrs	r2, r2, #5
 80091c0:	e752      	b.n	8009068 <prvTimerTask+0x60>
 80091c2:	f7ff fed3 	bl	8008f6c <prvSwitchTimerLists>
 80091c6:	f8c5 a000 	str.w	sl, [r5]
 80091ca:	f7ff fcf1 	bl	8008bb0 <xTaskResumeAll>
 80091ce:	e75b      	b.n	8009088 <prvTimerTask+0x80>
 80091d0:	f7ff fecc 	bl	8008f6c <prvSwitchTimerLists>
 80091d4:	e76f      	b.n	80090b6 <prvTimerTask+0xae>
 80091d6:	f7ff fceb 	bl	8008bb0 <xTaskResumeAll>
 80091da:	6832      	ldr	r2, [r6, #0]
 80091dc:	68d2      	ldr	r2, [r2, #12]
 80091de:	f8d2 b00c 	ldr.w	fp, [r2, #12]
 80091e2:	f10b 0104 	add.w	r1, fp, #4
 80091e6:	4608      	mov	r0, r1
 80091e8:	9101      	str	r1, [sp, #4]
 80091ea:	f7fe fb5d 	bl	80078a8 <uxListRemove>
 80091ee:	f89b 0028 	ldrb.w	r0, [fp, #40]	; 0x28
 80091f2:	9901      	ldr	r1, [sp, #4]
 80091f4:	f010 0f04 	tst.w	r0, #4
 80091f8:	d11c      	bne.n	8009234 <prvTimerTask+0x22c>
 80091fa:	f020 0001 	bic.w	r0, r0, #1
 80091fe:	f88b 0028 	strb.w	r0, [fp, #40]	; 0x28
 8009202:	f8db 3020 	ldr.w	r3, [fp, #32]
 8009206:	4658      	mov	r0, fp
 8009208:	4798      	blx	r3
 800920a:	e73d      	b.n	8009088 <prvTimerTask+0x80>
 800920c:	4543      	cmp	r3, r8
 800920e:	d902      	bls.n	8009216 <prvTimerTask+0x20e>
 8009210:	2900      	cmp	r1, #0
 8009212:	f43f af72 	beq.w	80090fa <prvTimerTask+0xf2>
 8009216:	6830      	ldr	r0, [r6, #0]
 8009218:	1d39      	adds	r1, r7, #4
 800921a:	f7fe fb2d 	bl	8007878 <vListInsert>
 800921e:	e733      	b.n	8009088 <prvTimerTask+0x80>
 8009220:	4638      	mov	r0, r7
 8009222:	f000 fcb7 	bl	8009b94 <vPortFree>
 8009226:	e72f      	b.n	8009088 <prvTimerTask+0x80>
 8009228:	9b00      	ldr	r3, [sp, #0]
 800922a:	1d39      	adds	r1, r7, #4
 800922c:	6818      	ldr	r0, [r3, #0]
 800922e:	f7fe fb23 	bl	8007878 <vListInsert>
 8009232:	e729      	b.n	8009088 <prvTimerTask+0x80>
 8009234:	f8db 0018 	ldr.w	r0, [fp, #24]
 8009238:	f8cb b010 	str.w	fp, [fp, #16]
 800923c:	eb08 0300 	add.w	r3, r8, r0
 8009240:	459a      	cmp	sl, r3
 8009242:	f8cb 3004 	str.w	r3, [fp, #4]
 8009246:	d203      	bcs.n	8009250 <prvTimerTask+0x248>
 8009248:	6830      	ldr	r0, [r6, #0]
 800924a:	f7fe fb15 	bl	8007878 <vListInsert>
 800924e:	e7d8      	b.n	8009202 <prvTimerTask+0x1fa>
 8009250:	ebaa 0308 	sub.w	r3, sl, r8
 8009254:	4298      	cmp	r0, r3
 8009256:	d822      	bhi.n	800929e <prvTimerTask+0x296>
 8009258:	6823      	ldr	r3, [r4, #0]
 800925a:	b173      	cbz	r3, 800927a <prvTimerTask+0x272>
 800925c:	2300      	movs	r3, #0
 800925e:	e9cd 3806 	strd	r3, r8, [sp, #24]
 8009262:	f8cd b020 	str.w	fp, [sp, #32]
 8009266:	f7ff fe25 	bl	8008eb4 <xTaskGetSchedulerState>
 800926a:	2300      	movs	r3, #0
 800926c:	6820      	ldr	r0, [r4, #0]
 800926e:	461a      	mov	r2, r3
 8009270:	a906      	add	r1, sp, #24
 8009272:	f7fe fbdd 	bl	8007a30 <xQueueGenericSend>
 8009276:	2800      	cmp	r0, #0
 8009278:	d1c3      	bne.n	8009202 <prvTimerTask+0x1fa>
 800927a:	f04f 0350 	mov.w	r3, #80	; 0x50
 800927e:	f383 8811 	msr	BASEPRI, r3
 8009282:	f3bf 8f6f 	isb	sy
 8009286:	f3bf 8f4f 	dsb	sy
 800928a:	e7fe      	b.n	800928a <prvTimerTask+0x282>
 800928c:	f04f 0350 	mov.w	r3, #80	; 0x50
 8009290:	f383 8811 	msr	BASEPRI, r3
 8009294:	f3bf 8f6f 	isb	sy
 8009298:	f3bf 8f4f 	dsb	sy
 800929c:	e7fe      	b.n	800929c <prvTimerTask+0x294>
 800929e:	9b00      	ldr	r3, [sp, #0]
 80092a0:	6818      	ldr	r0, [r3, #0]
 80092a2:	f7fe fae9 	bl	8007878 <vListInsert>
 80092a6:	e7ac      	b.n	8009202 <prvTimerTask+0x1fa>

080092a8 <xTimerCreateTimerTask>:
 80092a8:	b5f0      	push	{r4, r5, r6, r7, lr}
 80092aa:	f643 2410 	movw	r4, #14864	; 0x3a10
 80092ae:	f2c2 0400 	movt	r4, #8192	; 0x2000
 80092b2:	b089      	sub	sp, #36	; 0x24
 80092b4:	f000 fa1e 	bl	80096f4 <vPortEnterCritical>
 80092b8:	6827      	ldr	r7, [r4, #0]
 80092ba:	b37f      	cbz	r7, 800931c <xTimerCreateTimerTask+0x74>
 80092bc:	f000 fa3e 	bl	800973c <vPortExitCritical>
 80092c0:	6823      	ldr	r3, [r4, #0]
 80092c2:	b313      	cbz	r3, 800930a <xTimerCreateTimerTask+0x62>
 80092c4:	2400      	movs	r4, #0
 80092c6:	aa07      	add	r2, sp, #28
 80092c8:	a906      	add	r1, sp, #24
 80092ca:	a805      	add	r0, sp, #20
 80092cc:	e9cd 4405 	strd	r4, r4, [sp, #20]
 80092d0:	f7fe faa2 	bl	8007818 <vApplicationGetTimerTaskMemory>
 80092d4:	e9dd 3505 	ldrd	r3, r5, [sp, #20]
 80092d8:	2202      	movs	r2, #2
 80092da:	f64f 6128 	movw	r1, #65064	; 0xfe28
 80092de:	f249 0009 	movw	r0, #36873	; 0x9009
 80092e2:	e9cd 2500 	strd	r2, r5, [sp]
 80092e6:	9302      	str	r3, [sp, #8]
 80092e8:	9a07      	ldr	r2, [sp, #28]
 80092ea:	4623      	mov	r3, r4
 80092ec:	f6c0 0100 	movt	r1, #2048	; 0x800
 80092f0:	f6c0 0000 	movt	r0, #2048	; 0x800
 80092f4:	f7ff fb08 	bl	8008908 <xTaskCreateStatic>
 80092f8:	f643 2314 	movw	r3, #14868	; 0x3a14
 80092fc:	f2c2 0300 	movt	r3, #8192	; 0x2000
 8009300:	6018      	str	r0, [r3, #0]
 8009302:	b110      	cbz	r0, 800930a <xTimerCreateTimerTask+0x62>
 8009304:	2001      	movs	r0, #1
 8009306:	b009      	add	sp, #36	; 0x24
 8009308:	bdf0      	pop	{r4, r5, r6, r7, pc}
 800930a:	f04f 0350 	mov.w	r3, #80	; 0x50
 800930e:	f383 8811 	msr	BASEPRI, r3
 8009312:	f3bf 8f6f 	isb	sy
 8009316:	f3bf 8f4f 	dsb	sy
 800931a:	e7fe      	b.n	800931a <xTimerCreateTimerTask+0x72>
 800931c:	f643 1694 	movw	r6, #14740	; 0x3994
 8009320:	f2c2 0600 	movt	r6, #8192	; 0x2000
 8009324:	f643 15a8 	movw	r5, #14760	; 0x39a8
 8009328:	4630      	mov	r0, r6
 800932a:	f2c2 0500 	movt	r5, #8192	; 0x2000
 800932e:	f7fe fa83 	bl	8007838 <vListInitialise>
 8009332:	4628      	mov	r0, r5
 8009334:	f7fe fa80 	bl	8007838 <vListInitialise>
 8009338:	f643 02ec 	movw	r2, #14572	; 0x38ec
 800933c:	f2c2 0200 	movt	r2, #8192	; 0x2000
 8009340:	f643 00f0 	movw	r0, #14576	; 0x38f0
 8009344:	f2c2 0000 	movt	r0, #8192	; 0x2000
 8009348:	9700      	str	r7, [sp, #0]
 800934a:	f643 13c0 	movw	r3, #14784	; 0x39c0
 800934e:	6016      	str	r6, [r2, #0]
 8009350:	f643 02f4 	movw	r2, #14580	; 0x38f4
 8009354:	6005      	str	r5, [r0, #0]
 8009356:	f2c2 0300 	movt	r3, #8192	; 0x2000
 800935a:	f2c2 0200 	movt	r2, #8192	; 0x2000
 800935e:	2110      	movs	r1, #16
 8009360:	200a      	movs	r0, #10
 8009362:	f7fe faf3 	bl	800794c <xQueueGenericCreateStatic>
 8009366:	6020      	str	r0, [r4, #0]
 8009368:	2800      	cmp	r0, #0
 800936a:	d0a7      	beq.n	80092bc <xTimerCreateTimerTask+0x14>
 800936c:	f64f 6120 	movw	r1, #65056	; 0xfe20
 8009370:	f6c0 0100 	movt	r1, #2048	; 0x800
 8009374:	f7fe fed4 	bl	8008120 <vQueueAddToRegistry>
 8009378:	e7a0      	b.n	80092bc <xTimerCreateTimerTask+0x14>
 800937a:	bf00      	nop

0800937c <xTimerCreate>:
 800937c:	e92d 4ff0 	stmdb	sp!, {r4, r5, r6, r7, r8, r9, sl, fp, lr}
 8009380:	4607      	mov	r7, r0
 8009382:	b085      	sub	sp, #20
 8009384:	202c      	movs	r0, #44	; 0x2c
 8009386:	4688      	mov	r8, r1
 8009388:	4616      	mov	r6, r2
 800938a:	461d      	mov	r5, r3
 800938c:	f000 fb34 	bl	80099f8 <pvPortMalloc>
 8009390:	4604      	mov	r4, r0
 8009392:	b1f8      	cbz	r0, 80093d4 <xTimerCreate+0x58>
 8009394:	2300      	movs	r3, #0
 8009396:	f880 3028 	strb.w	r3, [r0, #40]	; 0x28
 800939a:	f1b8 0f00 	cmp.w	r8, #0
 800939e:	d01d      	beq.n	80093dc <xTimerCreate+0x60>
 80093a0:	f643 2910 	movw	r9, #14864	; 0x3a10
 80093a4:	f2c2 0900 	movt	r9, #8192	; 0x2000
 80093a8:	f000 f9a4 	bl	80096f4 <vPortEnterCritical>
 80093ac:	f8d9 3000 	ldr.w	r3, [r9]
 80093b0:	b1eb      	cbz	r3, 80093ee <xTimerCreate+0x72>
 80093b2:	f000 f9c3 	bl	800973c <vPortExitCritical>
 80093b6:	9b0e      	ldr	r3, [sp, #56]	; 0x38
 80093b8:	6027      	str	r7, [r4, #0]
 80093ba:	e9c4 8506 	strd	r8, r5, [r4, #24]
 80093be:	6223      	str	r3, [r4, #32]
 80093c0:	1d20      	adds	r0, r4, #4
 80093c2:	f7fe fa45 	bl	8007850 <vListInitialiseItem>
 80093c6:	b12e      	cbz	r6, 80093d4 <xTimerCreate+0x58>
 80093c8:	f894 3028 	ldrb.w	r3, [r4, #40]	; 0x28
 80093cc:	f043 0304 	orr.w	r3, r3, #4
 80093d0:	f884 3028 	strb.w	r3, [r4, #40]	; 0x28
 80093d4:	4620      	mov	r0, r4
 80093d6:	b005      	add	sp, #20
 80093d8:	e8bd 8ff0 	ldmia.w	sp!, {r4, r5, r6, r7, r8, r9, sl, fp, pc}
 80093dc:	f04f 0350 	mov.w	r3, #80	; 0x50
 80093e0:	f383 8811 	msr	BASEPRI, r3
 80093e4:	f3bf 8f6f 	isb	sy
 80093e8:	f3bf 8f4f 	dsb	sy
 80093ec:	e7fe      	b.n	80093ec <xTimerCreate+0x70>
 80093ee:	f643 1b94 	movw	fp, #14740	; 0x3994
 80093f2:	f2c2 0b00 	movt	fp, #8192	; 0x2000
 80093f6:	f643 1aa8 	movw	sl, #14760	; 0x39a8
 80093fa:	4658      	mov	r0, fp
 80093fc:	f2c2 0a00 	movt	sl, #8192	; 0x2000
 8009400:	9303      	str	r3, [sp, #12]
 8009402:	f7fe fa19 	bl	8007838 <vListInitialise>
 8009406:	4650      	mov	r0, sl
 8009408:	f7fe fa16 	bl	8007838 <vListInitialise>
 800940c:	f643 02ec 	movw	r2, #14572	; 0x38ec
 8009410:	f2c2 0200 	movt	r2, #8192	; 0x2000
 8009414:	f643 00f0 	movw	r0, #14576	; 0x38f0
 8009418:	9b03      	ldr	r3, [sp, #12]
 800941a:	9300      	str	r3, [sp, #0]
 800941c:	f2c2 0000 	movt	r0, #8192	; 0x2000
 8009420:	f8c2 b000 	str.w	fp, [r2]
 8009424:	f643 13c0 	movw	r3, #14784	; 0x39c0
 8009428:	f643 02f4 	movw	r2, #14580	; 0x38f4
 800942c:	f8c0 a000 	str.w	sl, [r0]
 8009430:	f2c2 0300 	movt	r3, #8192	; 0x2000
 8009434:	f2c2 0200 	movt	r2, #8192	; 0x2000
 8009438:	2110      	movs	r1, #16
 800943a:	200a      	movs	r0, #10
 800943c:	f7fe fa86 	bl	800794c <xQueueGenericCreateStatic>
 8009440:	f8c9 0000 	str.w	r0, [r9]
 8009444:	2800      	cmp	r0, #0
 8009446:	d0b4      	beq.n	80093b2 <xTimerCreate+0x36>
 8009448:	f64f 6120 	movw	r1, #65056	; 0xfe20
 800944c:	f6c0 0100 	movt	r1, #2048	; 0x800
 8009450:	f7fe fe66 	bl	8008120 <vQueueAddToRegistry>
 8009454:	e7ad      	b.n	80093b2 <xTimerCreate+0x36>
 8009456:	bf00      	nop

08009458 <xTimerCreateStatic>:
 8009458:	e92d 4ff0 	stmdb	sp!, {r4, r5, r6, r7, r8, r9, sl, fp, lr}
 800945c:	b087      	sub	sp, #28
 800945e:	242c      	movs	r4, #44	; 0x2c
 8009460:	9405      	str	r4, [sp, #20]
 8009462:	9f05      	ldr	r7, [sp, #20]
 8009464:	9c11      	ldr	r4, [sp, #68]	; 0x44
 8009466:	2f2c      	cmp	r7, #44	; 0x2c
 8009468:	d008      	beq.n	800947c <xTimerCreateStatic+0x24>
 800946a:	f04f 0350 	mov.w	r3, #80	; 0x50
 800946e:	f383 8811 	msr	BASEPRI, r3
 8009472:	f3bf 8f6f 	isb	sy
 8009476:	f3bf 8f4f 	dsb	sy
 800947a:	e7fe      	b.n	800947a <xTimerCreateStatic+0x22>
 800947c:	4699      	mov	r9, r3
 800947e:	9b05      	ldr	r3, [sp, #20]
 8009480:	2c00      	cmp	r4, #0
 8009482:	d056      	beq.n	8009532 <xTimerCreateStatic+0xda>
 8009484:	2302      	movs	r3, #2
 8009486:	460d      	mov	r5, r1
 8009488:	f884 3028 	strb.w	r3, [r4, #40]	; 0x28
 800948c:	2900      	cmp	r1, #0
 800948e:	d059      	beq.n	8009544 <xTimerCreateStatic+0xec>
 8009490:	f643 2710 	movw	r7, #14864	; 0x3a10
 8009494:	f2c2 0700 	movt	r7, #8192	; 0x2000
 8009498:	4682      	mov	sl, r0
 800949a:	4616      	mov	r6, r2
 800949c:	f000 f92a 	bl	80096f4 <vPortEnterCritical>
 80094a0:	683b      	ldr	r3, [r7, #0]
 80094a2:	bb83      	cbnz	r3, 8009506 <xTimerCreateStatic+0xae>
 80094a4:	f643 1894 	movw	r8, #14740	; 0x3994
 80094a8:	f2c2 0800 	movt	r8, #8192	; 0x2000
 80094ac:	f643 1ba8 	movw	fp, #14760	; 0x39a8
 80094b0:	4640      	mov	r0, r8
 80094b2:	f2c2 0b00 	movt	fp, #8192	; 0x2000
 80094b6:	9303      	str	r3, [sp, #12]
 80094b8:	f7fe f9be 	bl	8007838 <vListInitialise>
 80094bc:	4658      	mov	r0, fp
 80094be:	f7fe f9bb 	bl	8007838 <vListInitialise>
 80094c2:	f643 01ec 	movw	r1, #14572	; 0x38ec
 80094c6:	f643 00f0 	movw	r0, #14576	; 0x38f0
 80094ca:	9b03      	ldr	r3, [sp, #12]
 80094cc:	9300      	str	r3, [sp, #0]
 80094ce:	f2c2 0100 	movt	r1, #8192	; 0x2000
 80094d2:	f2c2 0000 	movt	r0, #8192	; 0x2000
 80094d6:	f643 13c0 	movw	r3, #14784	; 0x39c0
 80094da:	f643 02f4 	movw	r2, #14580	; 0x38f4
 80094de:	f8c1 8000 	str.w	r8, [r1]
 80094e2:	f8c0 b000 	str.w	fp, [r0]
 80094e6:	f2c2 0300 	movt	r3, #8192	; 0x2000
 80094ea:	f2c2 0200 	movt	r2, #8192	; 0x2000
 80094ee:	2110      	movs	r1, #16
 80094f0:	200a      	movs	r0, #10
 80094f2:	f7fe fa2b 	bl	800794c <xQueueGenericCreateStatic>
 80094f6:	6038      	str	r0, [r7, #0]
 80094f8:	b128      	cbz	r0, 8009506 <xTimerCreateStatic+0xae>
 80094fa:	f64f 6120 	movw	r1, #65056	; 0xfe20
 80094fe:	f6c0 0100 	movt	r1, #2048	; 0x800
 8009502:	f7fe fe0d 	bl	8008120 <vQueueAddToRegistry>
 8009506:	f000 f919 	bl	800973c <vPortExitCritical>
 800950a:	9b10      	ldr	r3, [sp, #64]	; 0x40
 800950c:	f8c4 a000 	str.w	sl, [r4]
 8009510:	e9c4 5906 	strd	r5, r9, [r4, #24]
 8009514:	6223      	str	r3, [r4, #32]
 8009516:	1d20      	adds	r0, r4, #4
 8009518:	f7fe f99a 	bl	8007850 <vListInitialiseItem>
 800951c:	b12e      	cbz	r6, 800952a <xTimerCreateStatic+0xd2>
 800951e:	f894 3028 	ldrb.w	r3, [r4, #40]	; 0x28
 8009522:	f043 0304 	orr.w	r3, r3, #4
 8009526:	f884 3028 	strb.w	r3, [r4, #40]	; 0x28
 800952a:	4620      	mov	r0, r4
 800952c:	b007      	add	sp, #28
 800952e:	e8bd 8ff0 	ldmia.w	sp!, {r4, r5, r6, r7, r8, r9, sl, fp, pc}
 8009532:	f04f 0350 	mov.w	r3, #80	; 0x50
 8009536:	f383 8811 	msr	BASEPRI, r3
 800953a:	f3bf 8f6f 	isb	sy
 800953e:	f3bf 8f4f 	dsb	sy
 8009542:	e7fe      	b.n	8009542 <xTimerCreateStatic+0xea>
 8009544:	f04f 0350 	mov.w	r3, #80	; 0x50
 8009548:	f383 8811 	msr	BASEPRI, r3
 800954c:	f3bf 8f6f 	isb	sy
 8009550:	f3bf 8f4f 	dsb	sy
 8009554:	e7fe      	b.n	8009554 <xTimerCreateStatic+0xfc>
 8009556:	bf00      	nop

08009558 <xTimerGenericCommand>:
 8009558:	b1c8      	cbz	r0, 800958e <xTimerGenericCommand+0x36>
 800955a:	b570      	push	{r4, r5, r6, lr}
 800955c:	f643 2410 	movw	r4, #14864	; 0x3a10
 8009560:	f2c2 0400 	movt	r4, #8192	; 0x2000
 8009564:	4605      	mov	r5, r0
 8009566:	6820      	ldr	r0, [r4, #0]
 8009568:	b084      	sub	sp, #16
 800956a:	b170      	cbz	r0, 800958a <xTimerGenericCommand+0x32>
 800956c:	2905      	cmp	r1, #5
 800956e:	e9cd 1200 	strd	r1, r2, [sp]
 8009572:	9502      	str	r5, [sp, #8]
 8009574:	dc14      	bgt.n	80095a0 <xTimerGenericCommand+0x48>
 8009576:	f7ff fc9d 	bl	8008eb4 <xTaskGetSchedulerState>
 800957a:	2802      	cmp	r0, #2
 800957c:	d017      	beq.n	80095ae <xTimerGenericCommand+0x56>
 800957e:	2300      	movs	r3, #0
 8009580:	6820      	ldr	r0, [r4, #0]
 8009582:	461a      	mov	r2, r3
 8009584:	4669      	mov	r1, sp
 8009586:	f7fe fa53 	bl	8007a30 <xQueueGenericSend>
 800958a:	b004      	add	sp, #16
 800958c:	bd70      	pop	{r4, r5, r6, pc}
 800958e:	f04f 0350 	mov.w	r3, #80	; 0x50
 8009592:	f383 8811 	msr	BASEPRI, r3
 8009596:	f3bf 8f6f 	isb	sy
 800959a:	f3bf 8f4f 	dsb	sy
 800959e:	e7fe      	b.n	800959e <xTimerGenericCommand+0x46>
 80095a0:	461a      	mov	r2, r3
 80095a2:	4669      	mov	r1, sp
 80095a4:	2300      	movs	r3, #0
 80095a6:	f7fe fbcb 	bl	8007d40 <xQueueGenericSendFromISR>
 80095aa:	b004      	add	sp, #16
 80095ac:	bd70      	pop	{r4, r5, r6, pc}
 80095ae:	6820      	ldr	r0, [r4, #0]
 80095b0:	9a08      	ldr	r2, [sp, #32]
 80095b2:	2300      	movs	r3, #0
 80095b4:	4669      	mov	r1, sp
 80095b6:	f7fe fa3b 	bl	8007a30 <xQueueGenericSend>
 80095ba:	e7e6      	b.n	800958a <xTimerGenericCommand+0x32>

080095bc <xTimerIsTimerActive>:
 80095bc:	b170      	cbz	r0, 80095dc <xTimerIsTimerActive+0x20>
 80095be:	b510      	push	{r4, lr}
 80095c0:	4604      	mov	r4, r0
 80095c2:	b082      	sub	sp, #8
 80095c4:	f000 f896 	bl	80096f4 <vPortEnterCritical>
 80095c8:	f894 0028 	ldrb.w	r0, [r4, #40]	; 0x28
 80095cc:	f000 0001 	and.w	r0, r0, #1
 80095d0:	9001      	str	r0, [sp, #4]
 80095d2:	f000 f8b3 	bl	800973c <vPortExitCritical>
 80095d6:	9801      	ldr	r0, [sp, #4]
 80095d8:	b002      	add	sp, #8
 80095da:	bd10      	pop	{r4, pc}
 80095dc:	f04f 0350 	mov.w	r3, #80	; 0x50
 80095e0:	f383 8811 	msr	BASEPRI, r3
 80095e4:	f3bf 8f6f 	isb	sy
 80095e8:	f3bf 8f4f 	dsb	sy
 80095ec:	e7fe      	b.n	80095ec <xTimerIsTimerActive+0x30>
 80095ee:	bf00      	nop

080095f0 <pvTimerGetTimerID>:
 80095f0:	b158      	cbz	r0, 800960a <pvTimerGetTimerID+0x1a>
 80095f2:	b510      	push	{r4, lr}
 80095f4:	4604      	mov	r4, r0
 80095f6:	b082      	sub	sp, #8
 80095f8:	f000 f87c 	bl	80096f4 <vPortEnterCritical>
 80095fc:	69e0      	ldr	r0, [r4, #28]
 80095fe:	9001      	str	r0, [sp, #4]
 8009600:	f000 f89c 	bl	800973c <vPortExitCritical>
 8009604:	9801      	ldr	r0, [sp, #4]
 8009606:	b002      	add	sp, #8
 8009608:	bd10      	pop	{r4, pc}
 800960a:	f04f 0350 	mov.w	r3, #80	; 0x50
 800960e:	f383 8811 	msr	BASEPRI, r3
 8009612:	f3bf 8f6f 	isb	sy
 8009616:	f3bf 8f4f 	dsb	sy
 800961a:	e7fe      	b.n	800961a <pvTimerGetTimerID+0x2a>

0800961c <prvPortStartFirstTask>:
 800961c:	4808      	ldr	r0, [pc, #32]	; (8009640 <prvPortStartFirstTask+0x24>)
 800961e:	6800      	ldr	r0, [r0, #0]
 8009620:	6800      	ldr	r0, [r0, #0]
 8009622:	f380 8808 	msr	MSP, r0
 8009626:	f04f 0000 	mov.w	r0, #0
 800962a:	f380 8814 	msr	CONTROL, r0
 800962e:	b662      	cpsie	i
 8009630:	b661      	cpsie	f
 8009632:	f3bf 8f4f 	dsb	sy
 8009636:	f3bf 8f6f 	isb	sy
 800963a:	df00      	svc	0
 800963c:	bf00      	nop
 800963e:	0000      	.short	0x0000
 8009640:	e000ed08 	.word	0xe000ed08

08009644 <vPortEnableVFP>:
 8009644:	f8df 000c 	ldr.w	r0, [pc, #12]	; 8009654 <vPortEnableVFP+0x10>
 8009648:	6801      	ldr	r1, [r0, #0]
 800964a:	f441 0170 	orr.w	r1, r1, #15728640	; 0xf00000
 800964e:	6001      	str	r1, [r0, #0]
 8009650:	4770      	bx	lr
 8009652:	0000      	.short	0x0000
 8009654:	e000ed88 	.word	0xe000ed88

08009658 <prvTaskExitError>:
 8009658:	f240 033c 	movw	r3, #60	; 0x3c
 800965c:	f2c2 0300 	movt	r3, #8192	; 0x2000
 8009660:	b082      	sub	sp, #8
 8009662:	681b      	ldr	r3, [r3, #0]
 8009664:	2200      	movs	r2, #0
 8009666:	3301      	adds	r3, #1
 8009668:	9201      	str	r2, [sp, #4]
 800966a:	d008      	beq.n	800967e <prvTaskExitError+0x26>
 800966c:	f04f 0350 	mov.w	r3, #80	; 0x50
 8009670:	f383 8811 	msr	BASEPRI, r3
 8009674:	f3bf 8f6f 	isb	sy
 8009678:	f3bf 8f4f 	dsb	sy
 800967c:	e7fe      	b.n	800967c <prvTaskExitError+0x24>
 800967e:	f04f 0350 	mov.w	r3, #80	; 0x50
 8009682:	f383 8811 	msr	BASEPRI, r3
 8009686:	f3bf 8f6f 	isb	sy
 800968a:	f3bf 8f4f 	dsb	sy
 800968e:	9b01      	ldr	r3, [sp, #4]
 8009690:	2b00      	cmp	r3, #0
 8009692:	d0fc      	beq.n	800968e <prvTaskExitError+0x36>
 8009694:	b002      	add	sp, #8
 8009696:	4770      	bx	lr

08009698 <pxPortInitialiseStack>:
 8009698:	b430      	push	{r4, r5}
 800969a:	f249 6359 	movw	r3, #38489	; 0x9659
 800969e:	f04f 7580 	mov.w	r5, #16777216	; 0x1000000
 80096a2:	f06f 0402 	mvn.w	r4, #2
 80096a6:	f021 0101 	bic.w	r1, r1, #1
 80096aa:	f6c0 0300 	movt	r3, #2048	; 0x800
 80096ae:	f840 5c04 	str.w	r5, [r0, #-4]
 80096b2:	f840 4c24 	str.w	r4, [r0, #-36]
 80096b6:	f840 1c08 	str.w	r1, [r0, #-8]
 80096ba:	f840 2c20 	str.w	r2, [r0, #-32]
 80096be:	f840 3c0c 	str.w	r3, [r0, #-12]
 80096c2:	bc30      	pop	{r4, r5}
 80096c4:	3844      	subs	r0, #68	; 0x44
 80096c6:	4770      	bx	lr
	...

080096d0 <SVC_Handler>:
 80096d0:	4b07      	ldr	r3, [pc, #28]	; (80096f0 <pxCurrentTCBConst2>)
 80096d2:	6819      	ldr	r1, [r3, #0]
 80096d4:	6808      	ldr	r0, [r1, #0]
 80096d6:	e8b0 4ff0 	ldmia.w	r0!, {r4, r5, r6, r7, r8, r9, sl, fp, lr}
 80096da:	f380 8809 	msr	PSP, r0
 80096de:	f3bf 8f6f 	isb	sy
 80096e2:	f04f 0000 	mov.w	r0, #0
 80096e6:	f380 8811 	msr	BASEPRI, r0
 80096ea:	4770      	bx	lr
 80096ec:	f3af 8000 	nop.w

080096f0 <pxCurrentTCBConst2>:
 80096f0:	200033ec 	.word	0x200033ec

080096f4 <vPortEnterCritical>:
 80096f4:	f04f 0350 	mov.w	r3, #80	; 0x50
 80096f8:	f383 8811 	msr	BASEPRI, r3
 80096fc:	f3bf 8f6f 	isb	sy
 8009700:	f3bf 8f4f 	dsb	sy
 8009704:	f240 023c 	movw	r2, #60	; 0x3c
 8009708:	f2c2 0200 	movt	r2, #8192	; 0x2000
 800970c:	6813      	ldr	r3, [r2, #0]
 800970e:	3301      	adds	r3, #1
 8009710:	2b01      	cmp	r3, #1
 8009712:	6013      	str	r3, [r2, #0]
 8009714:	d000      	beq.n	8009718 <vPortEnterCritical+0x24>
 8009716:	4770      	bx	lr
 8009718:	f64e 5304 	movw	r3, #60676	; 0xed04
 800971c:	f2ce 0300 	movt	r3, #57344	; 0xe000
 8009720:	681b      	ldr	r3, [r3, #0]
 8009722:	f013 0fff 	tst.w	r3, #255	; 0xff
 8009726:	d0f6      	beq.n	8009716 <vPortEnterCritical+0x22>
 8009728:	f04f 0350 	mov.w	r3, #80	; 0x50
 800972c:	f383 8811 	msr	BASEPRI, r3
 8009730:	f3bf 8f6f 	isb	sy
 8009734:	f3bf 8f4f 	dsb	sy
 8009738:	e7fe      	b.n	8009738 <vPortEnterCritical+0x44>
 800973a:	bf00      	nop

0800973c <vPortExitCritical>:
 800973c:	f240 023c 	movw	r2, #60	; 0x3c
 8009740:	f2c2 0200 	movt	r2, #8192	; 0x2000
 8009744:	6813      	ldr	r3, [r2, #0]
 8009746:	b943      	cbnz	r3, 800975a <vPortExitCritical+0x1e>
 8009748:	f04f 0350 	mov.w	r3, #80	; 0x50
 800974c:	f383 8811 	msr	BASEPRI, r3
 8009750:	f3bf 8f6f 	isb	sy
 8009754:	f3bf 8f4f 	dsb	sy
 8009758:	e7fe      	b.n	8009758 <vPortExitCritical+0x1c>
 800975a:	3b01      	subs	r3, #1
 800975c:	6013      	str	r3, [r2, #0]
 800975e:	b90b      	cbnz	r3, 8009764 <vPortExitCritical+0x28>
 8009760:	f383 8811 	msr	BASEPRI, r3
 8009764:	4770      	bx	lr
 8009766:	bf00      	nop
	...

08009770 <PendSV_Handler>:
 8009770:	f3ef 8009 	mrs	r0, PSP
 8009774:	f3bf 8f6f 	isb	sy
 8009778:	4b15      	ldr	r3, [pc, #84]	; (80097d0 <pxCurrentTCBConst>)
 800977a:	681a      	ldr	r2, [r3, #0]
 800977c:	f01e 0f10 	tst.w	lr, #16
 8009780:	bf08      	it	eq
 8009782:	ed20 8a10 	vstmdbeq	r0!, {s16-s31}
 8009786:	e920 4ff0 	stmdb	r0!, {r4, r5, r6, r7, r8, r9, sl, fp, lr}
 800978a:	6010      	str	r0, [r2, #0]
 800978c:	e92d 0009 	stmdb	sp!, {r0, r3}
 8009790:	f04f 0050 	mov.w	r0, #80	; 0x50
 8009794:	f380 8811 	msr	BASEPRI, r0
 8009798:	f3bf 8f4f 	dsb	sy
 800979c:	f3bf 8f6f 	isb	sy
 80097a0:	f7ff fa30 	bl	8008c04 <vTaskSwitchContext>
 80097a4:	f04f 0000 	mov.w	r0, #0
 80097a8:	f380 8811 	msr	BASEPRI, r0
 80097ac:	bc09      	pop	{r0, r3}
 80097ae:	6819      	ldr	r1, [r3, #0]
 80097b0:	6808      	ldr	r0, [r1, #0]
 80097b2:	e8b0 4ff0 	ldmia.w	r0!, {r4, r5, r6, r7, r8, r9, sl, fp, lr}
 80097b6:	f01e 0f10 	tst.w	lr, #16
 80097ba:	bf08      	it	eq
 80097bc:	ecb0 8a10 	vldmiaeq	r0!, {s16-s31}
 80097c0:	f380 8809 	msr	PSP, r0
 80097c4:	f3bf 8f6f 	isb	sy
 80097c8:	4770      	bx	lr
 80097ca:	bf00      	nop
 80097cc:	f3af 8000 	nop.w

080097d0 <pxCurrentTCBConst>:
 80097d0:	200033ec 	.word	0x200033ec

080097d4 <xPortSysTickHandler>:
 80097d4:	b508      	push	{r3, lr}
 80097d6:	f04f 0350 	mov.w	r3, #80	; 0x50
 80097da:	f383 8811 	msr	BASEPRI, r3
 80097de:	f3bf 8f6f 	isb	sy
 80097e2:	f3bf 8f4f 	dsb	sy
 80097e6:	f7ff f9fb 	bl	8008be0 <xTaskIncrementTick>
 80097ea:	b130      	cbz	r0, 80097fa <xPortSysTickHandler+0x26>
 80097ec:	f64e 5304 	movw	r3, #60676	; 0xed04
 80097f0:	f2ce 0300 	movt	r3, #57344	; 0xe000
 80097f4:	f04f 5280 	mov.w	r2, #268435456	; 0x10000000
 80097f8:	601a      	str	r2, [r3, #0]
 80097fa:	2300      	movs	r3, #0
 80097fc:	f383 8811 	msr	BASEPRI, r3
 8009800:	bd08      	pop	{r3, pc}
 8009802:	bf00      	nop

08009804 <vPortSetupTimerInterrupt>:
 8009804:	f24e 0210 	movw	r2, #57360	; 0xe010
 8009808:	f24e 0118 	movw	r1, #57368	; 0xe018
 800980c:	f2ce 0200 	movt	r2, #57344	; 0xe000
 8009810:	f2ce 0100 	movt	r1, #57344	; 0xe000
 8009814:	f240 0310 	movw	r3, #16
 8009818:	2000      	movs	r0, #0
 800981a:	f2c2 0300 	movt	r3, #8192	; 0x2000
 800981e:	6010      	str	r0, [r2, #0]
 8009820:	6008      	str	r0, [r1, #0]
 8009822:	681b      	ldr	r3, [r3, #0]
 8009824:	f248 511f 	movw	r1, #34079	; 0x851f
 8009828:	f2c5 11eb 	movt	r1, #20971	; 0x51eb
 800982c:	fba1 1303 	umull	r1, r3, r1, r3
 8009830:	f24e 0114 	movw	r1, #57364	; 0xe014
 8009834:	095b      	lsrs	r3, r3, #5
 8009836:	f2ce 0100 	movt	r1, #57344	; 0xe000
 800983a:	3b01      	subs	r3, #1
 800983c:	2007      	movs	r0, #7
 800983e:	600b      	str	r3, [r1, #0]
 8009840:	6010      	str	r0, [r2, #0]
 8009842:	4770      	bx	lr

08009844 <xPortStartScheduler>:
 8009844:	f44f 436d 	mov.w	r3, #60672	; 0xed00
 8009848:	f2ce 0300 	movt	r3, #57344	; 0xe000
 800984c:	f24c 2271 	movw	r2, #49777	; 0xc271
 8009850:	6819      	ldr	r1, [r3, #0]
 8009852:	f2c4 120f 	movt	r2, #16655	; 0x410f
 8009856:	4291      	cmp	r1, r2
 8009858:	d04c      	beq.n	80098f4 <xPortStartScheduler+0xb0>
 800985a:	681a      	ldr	r2, [r3, #0]
 800985c:	f24c 2370 	movw	r3, #49776	; 0xc270
 8009860:	f2c4 130f 	movt	r3, #16655	; 0x410f
 8009864:	429a      	cmp	r2, r3
 8009866:	d03c      	beq.n	80098e2 <xPortStartScheduler+0x9e>
 8009868:	b530      	push	{r4, r5, lr}
 800986a:	f44f 4364 	mov.w	r3, #58368	; 0xe400
 800986e:	f2ce 0300 	movt	r3, #57344	; 0xe000
 8009872:	b085      	sub	sp, #20
 8009874:	781a      	ldrb	r2, [r3, #0]
 8009876:	21ff      	movs	r1, #255	; 0xff
 8009878:	b2d2      	uxtb	r2, r2
 800987a:	9202      	str	r2, [sp, #8]
 800987c:	7019      	strb	r1, [r3, #0]
 800987e:	781b      	ldrb	r3, [r3, #0]
 8009880:	b2db      	uxtb	r3, r3
 8009882:	f88d 3007 	strb.w	r3, [sp, #7]
 8009886:	f643 221c 	movw	r2, #14876	; 0x3a1c
 800988a:	f89d 1007 	ldrb.w	r1, [sp, #7]
 800988e:	f89d 0007 	ldrb.w	r0, [sp, #7]
 8009892:	f643 2318 	movw	r3, #14872	; 0x3a18
 8009896:	f2c2 0200 	movt	r2, #8192	; 0x2000
 800989a:	2407      	movs	r4, #7
 800989c:	f2c2 0300 	movt	r3, #8192	; 0x2000
 80098a0:	f001 0150 	and.w	r1, r1, #80	; 0x50
 80098a4:	6014      	str	r4, [r2, #0]
 80098a6:	0604      	lsls	r4, r0, #24
 80098a8:	7019      	strb	r1, [r3, #0]
 80098aa:	bf48      	it	mi
 80098ac:	2106      	movmi	r1, #6
 80098ae:	d50f      	bpl.n	80098d0 <xPortStartScheduler+0x8c>
 80098b0:	f89d 3007 	ldrb.w	r3, [sp, #7]
 80098b4:	005b      	lsls	r3, r3, #1
 80098b6:	b2db      	uxtb	r3, r3
 80098b8:	f88d 3007 	strb.w	r3, [sp, #7]
 80098bc:	f89d 0007 	ldrb.w	r0, [sp, #7]
 80098c0:	0600      	lsls	r0, r0, #24
 80098c2:	460b      	mov	r3, r1
 80098c4:	f101 31ff 	add.w	r1, r1, #4294967295
 80098c8:	d4f2      	bmi.n	80098b0 <xPortStartScheduler+0x6c>
 80098ca:	2b03      	cmp	r3, #3
 80098cc:	d01b      	beq.n	8009906 <xPortStartScheduler+0xc2>
 80098ce:	6013      	str	r3, [r2, #0]
 80098d0:	f04f 0350 	mov.w	r3, #80	; 0x50
 80098d4:	f383 8811 	msr	BASEPRI, r3
 80098d8:	f3bf 8f6f 	isb	sy
 80098dc:	f3bf 8f4f 	dsb	sy
 80098e0:	e7fe      	b.n	80098e0 <xPortStartScheduler+0x9c>
 80098e2:	f04f 0350 	mov.w	r3, #80	; 0x50
 80098e6:	f383 8811 	msr	BASEPRI, r3
 80098ea:	f3bf 8f6f 	isb	sy
 80098ee:	f3bf 8f4f 	dsb	sy
 80098f2:	e7fe      	b.n	80098f2 <xPortStartScheduler+0xae>
 80098f4:	f04f 0350 	mov.w	r3, #80	; 0x50
 80098f8:	f383 8811 	msr	BASEPRI, r3
 80098fc:	f3bf 8f6f 	isb	sy
 8009900:	f3bf 8f4f 	dsb	sy
 8009904:	e7fe      	b.n	8009904 <xPortStartScheduler+0xc0>
 8009906:	9902      	ldr	r1, [sp, #8]
 8009908:	f44f 4064 	mov.w	r0, #58368	; 0xe400
 800990c:	f2ce 0000 	movt	r0, #57344	; 0xe000
 8009910:	f64e 5320 	movw	r3, #60704	; 0xed20
 8009914:	f2ce 0300 	movt	r3, #57344	; 0xe000
 8009918:	b2c9      	uxtb	r1, r1
 800991a:	f44f 7440 	mov.w	r4, #768	; 0x300
 800991e:	6014      	str	r4, [r2, #0]
 8009920:	7001      	strb	r1, [r0, #0]
 8009922:	681a      	ldr	r2, [r3, #0]
 8009924:	f442 0270 	orr.w	r2, r2, #15728640	; 0xf00000
 8009928:	601a      	str	r2, [r3, #0]
 800992a:	681a      	ldr	r2, [r3, #0]
 800992c:	f240 043c 	movw	r4, #60	; 0x3c
 8009930:	f042 4270 	orr.w	r2, r2, #4026531840	; 0xf0000000
 8009934:	f2c2 0400 	movt	r4, #8192	; 0x2000
 8009938:	601a      	str	r2, [r3, #0]
 800993a:	2500      	movs	r5, #0
 800993c:	f7ff ff62 	bl	8009804 <vPortSetupTimerInterrupt>
 8009940:	6025      	str	r5, [r4, #0]
 8009942:	f7ff fe7f 	bl	8009644 <vPortEnableVFP>
 8009946:	f64e 7334 	movw	r3, #61236	; 0xef34
 800994a:	f2ce 0300 	movt	r3, #57344	; 0xe000
 800994e:	681a      	ldr	r2, [r3, #0]
 8009950:	f042 4240 	orr.w	r2, r2, #3221225472	; 0xc0000000
 8009954:	601a      	str	r2, [r3, #0]
 8009956:	f7ff fe61 	bl	800961c <prvPortStartFirstTask>
 800995a:	f7ff f953 	bl	8008c04 <vTaskSwitchContext>
 800995e:	6823      	ldr	r3, [r4, #0]
 8009960:	9503      	str	r5, [sp, #12]
 8009962:	3301      	adds	r3, #1
 8009964:	d008      	beq.n	8009978 <xPortStartScheduler+0x134>
 8009966:	f04f 0350 	mov.w	r3, #80	; 0x50
 800996a:	f383 8811 	msr	BASEPRI, r3
 800996e:	f3bf 8f6f 	isb	sy
 8009972:	f3bf 8f4f 	dsb	sy
 8009976:	e7fe      	b.n	8009976 <xPortStartScheduler+0x132>
 8009978:	f04f 0350 	mov.w	r3, #80	; 0x50
 800997c:	f383 8811 	msr	BASEPRI, r3
 8009980:	f3bf 8f6f 	isb	sy
 8009984:	f3bf 8f4f 	dsb	sy
 8009988:	9b03      	ldr	r3, [sp, #12]
 800998a:	2b00      	cmp	r3, #0
 800998c:	d0fc      	beq.n	8009988 <xPortStartScheduler+0x144>
 800998e:	2000      	movs	r0, #0
 8009990:	b005      	add	sp, #20
 8009992:	bd30      	pop	{r4, r5, pc}

08009994 <vPortValidateInterruptPriority>:
 8009994:	f3ef 8105 	mrs	r1, IPSR
 8009998:	290f      	cmp	r1, #15
 800999a:	d914      	bls.n	80099c6 <vPortValidateInterruptPriority+0x32>
 800999c:	f24e 32f0 	movw	r2, #58352	; 0xe3f0
 80099a0:	f643 2318 	movw	r3, #14872	; 0x3a18
 80099a4:	f2ce 0200 	movt	r2, #57344	; 0xe000
 80099a8:	f2c2 0300 	movt	r3, #8192	; 0x2000
 80099ac:	5c8a      	ldrb	r2, [r1, r2]
 80099ae:	781b      	ldrb	r3, [r3, #0]
 80099b0:	4293      	cmp	r3, r2
 80099b2:	d908      	bls.n	80099c6 <vPortValidateInterruptPriority+0x32>
 80099b4:	f04f 0350 	mov.w	r3, #80	; 0x50
 80099b8:	f383 8811 	msr	BASEPRI, r3
 80099bc:	f3bf 8f6f 	isb	sy
 80099c0:	f3bf 8f4f 	dsb	sy
 80099c4:	e7fe      	b.n	80099c4 <vPortValidateInterruptPriority+0x30>
 80099c6:	f64e 530c 	movw	r3, #60684	; 0xed0c
 80099ca:	f2ce 0300 	movt	r3, #57344	; 0xe000
 80099ce:	f643 221c 	movw	r2, #14876	; 0x3a1c
 80099d2:	f2c2 0200 	movt	r2, #8192	; 0x2000
 80099d6:	681b      	ldr	r3, [r3, #0]
 80099d8:	6812      	ldr	r2, [r2, #0]
 80099da:	f403 63e0 	and.w	r3, r3, #1792	; 0x700
 80099de:	4293      	cmp	r3, r2
 80099e0:	d908      	bls.n	80099f4 <vPortValidateInterruptPriority+0x60>
 80099e2:	f04f 0350 	mov.w	r3, #80	; 0x50
 80099e6:	f383 8811 	msr	BASEPRI, r3
 80099ea:	f3bf 8f6f 	isb	sy
 80099ee:	f3bf 8f4f 	dsb	sy
 80099f2:	e7fe      	b.n	80099f2 <vPortValidateInterruptPriority+0x5e>
 80099f4:	4770      	bx	lr
 80099f6:	bf00      	nop

080099f8 <pvPortMalloc>:
 80099f8:	e92d 41f0 	stmdb	sp!, {r4, r5, r6, r7, r8, lr}
 80099fc:	f643 2420 	movw	r4, #14880	; 0x3a20
 8009a00:	f2c2 0400 	movt	r4, #8192	; 0x2000
 8009a04:	4606      	mov	r6, r0
 8009a06:	f7ff f8cb 	bl	8008ba0 <vTaskSuspendAll>
 8009a0a:	6823      	ldr	r3, [r4, #0]
 8009a0c:	2b00      	cmp	r3, #0
 8009a0e:	d043      	beq.n	8009a98 <pvPortMalloc+0xa0>
 8009a10:	f645 1264 	movw	r2, #22884	; 0x5964
 8009a14:	f2c2 0200 	movt	r2, #8192	; 0x2000
 8009a18:	6815      	ldr	r5, [r2, #0]
 8009a1a:	422e      	tst	r6, r5
 8009a1c:	d136      	bne.n	8009a8c <pvPortMalloc+0x94>
 8009a1e:	b3ae      	cbz	r6, 8009a8c <pvPortMalloc+0x94>
 8009a20:	f106 0408 	add.w	r4, r6, #8
 8009a24:	0776      	lsls	r6, r6, #29
 8009a26:	bf1c      	itt	ne
 8009a28:	f024 0407 	bicne.w	r4, r4, #7
 8009a2c:	3408      	addne	r4, #8
 8009a2e:	b36c      	cbz	r4, 8009a8c <pvPortMalloc+0x94>
 8009a30:	f645 1c68 	movw	ip, #22888	; 0x5968
 8009a34:	f2c2 0c00 	movt	ip, #8192	; 0x2000
 8009a38:	f8dc 7000 	ldr.w	r7, [ip]
 8009a3c:	42a7      	cmp	r7, r4
 8009a3e:	d325      	bcc.n	8009a8c <pvPortMalloc+0x94>
 8009a40:	f645 1278 	movw	r2, #22904	; 0x5978
 8009a44:	f2c2 0200 	movt	r2, #8192	; 0x2000
 8009a48:	4690      	mov	r8, r2
 8009a4a:	6811      	ldr	r1, [r2, #0]
 8009a4c:	e003      	b.n	8009a56 <pvPortMalloc+0x5e>
 8009a4e:	680a      	ldr	r2, [r1, #0]
 8009a50:	b122      	cbz	r2, 8009a5c <pvPortMalloc+0x64>
 8009a52:	4688      	mov	r8, r1
 8009a54:	4611      	mov	r1, r2
 8009a56:	6848      	ldr	r0, [r1, #4]
 8009a58:	42a0      	cmp	r0, r4
 8009a5a:	d3f8      	bcc.n	8009a4e <pvPortMalloc+0x56>
 8009a5c:	4299      	cmp	r1, r3
 8009a5e:	d015      	beq.n	8009a8c <pvPortMalloc+0x94>
 8009a60:	460e      	mov	r6, r1
 8009a62:	eba0 0e04 	sub.w	lr, r0, r4
 8009a66:	f856 2b08 	ldr.w	r2, [r6], #8
 8009a6a:	f8c8 2000 	str.w	r2, [r8]
 8009a6e:	f1be 0f10 	cmp.w	lr, #16
 8009a72:	d962      	bls.n	8009b3a <pvPortMalloc+0x142>
 8009a74:	190a      	adds	r2, r1, r4
 8009a76:	0750      	lsls	r0, r2, #29
 8009a78:	d03f      	beq.n	8009afa <pvPortMalloc+0x102>
 8009a7a:	f04f 0350 	mov.w	r3, #80	; 0x50
 8009a7e:	f383 8811 	msr	BASEPRI, r3
 8009a82:	f3bf 8f6f 	isb	sy
 8009a86:	f3bf 8f4f 	dsb	sy
 8009a8a:	e7fe      	b.n	8009a8a <pvPortMalloc+0x92>
 8009a8c:	f7ff f890 	bl	8008bb0 <xTaskResumeAll>
 8009a90:	2600      	movs	r6, #0
 8009a92:	4630      	mov	r0, r6
 8009a94:	e8bd 81f0 	ldmia.w	sp!, {r4, r5, r6, r7, r8, pc}
 8009a98:	f643 2324 	movw	r3, #14884	; 0x3a24
 8009a9c:	f2c2 0300 	movt	r3, #8192	; 0x2000
 8009aa0:	075f      	lsls	r7, r3, #29
 8009aa2:	bf14      	ite	ne
 8009aa4:	1dda      	addne	r2, r3, #7
 8009aa6:	461a      	moveq	r2, r3
 8009aa8:	f503 53fa 	add.w	r3, r3, #8000	; 0x1f40
 8009aac:	f1a3 0308 	sub.w	r3, r3, #8
 8009ab0:	f023 0307 	bic.w	r3, r3, #7
 8009ab4:	f645 176c 	movw	r7, #22892	; 0x596c
 8009ab8:	f645 1568 	movw	r5, #22888	; 0x5968
 8009abc:	bf18      	it	ne
 8009abe:	f022 0207 	bicne.w	r2, r2, #7
 8009ac2:	f2c2 0700 	movt	r7, #8192	; 0x2000
 8009ac6:	f2c2 0500 	movt	r5, #8192	; 0x2000
 8009aca:	6023      	str	r3, [r4, #0]
 8009acc:	f645 1464 	movw	r4, #22884	; 0x5964
 8009ad0:	4611      	mov	r1, r2
 8009ad2:	f645 1078 	movw	r0, #22904	; 0x5978
 8009ad6:	1a9a      	subs	r2, r3, r2
 8009ad8:	f2c2 0400 	movt	r4, #8192	; 0x2000
 8009adc:	f2c2 0000 	movt	r0, #8192	; 0x2000
 8009ae0:	603a      	str	r2, [r7, #0]
 8009ae2:	602a      	str	r2, [r5, #0]
 8009ae4:	2700      	movs	r7, #0
 8009ae6:	f04f 4500 	mov.w	r5, #2147483648	; 0x80000000
 8009aea:	e9c0 1700 	strd	r1, r7, [r0]
 8009aee:	6025      	str	r5, [r4, #0]
 8009af0:	e9c3 7700 	strd	r7, r7, [r3]
 8009af4:	e9c1 3200 	strd	r3, r2, [r1]
 8009af8:	e78f      	b.n	8009a1a <pvPortMalloc+0x22>
 8009afa:	f645 1078 	movw	r0, #22904	; 0x5978
 8009afe:	f8c2 e004 	str.w	lr, [r2, #4]
 8009b02:	f2c2 0000 	movt	r0, #8192	; 0x2000
 8009b06:	604c      	str	r4, [r1, #4]
 8009b08:	4686      	mov	lr, r0
 8009b0a:	6800      	ldr	r0, [r0, #0]
 8009b0c:	4282      	cmp	r2, r0
 8009b0e:	d8fb      	bhi.n	8009b08 <pvPortMalloc+0x110>
 8009b10:	f8de 4004 	ldr.w	r4, [lr, #4]
 8009b14:	eb0e 0804 	add.w	r8, lr, r4
 8009b18:	4542      	cmp	r2, r8
 8009b1a:	d131      	bne.n	8009b80 <pvPortMalloc+0x188>
 8009b1c:	6852      	ldr	r2, [r2, #4]
 8009b1e:	4414      	add	r4, r2
 8009b20:	f8ce 4004 	str.w	r4, [lr, #4]
 8009b24:	4672      	mov	r2, lr
 8009b26:	eb02 0804 	add.w	r8, r2, r4
 8009b2a:	4540      	cmp	r0, r8
 8009b2c:	d02a      	beq.n	8009b84 <pvPortMalloc+0x18c>
 8009b2e:	6010      	str	r0, [r2, #0]
 8009b30:	4596      	cmp	lr, r2
 8009b32:	6848      	ldr	r0, [r1, #4]
 8009b34:	bf18      	it	ne
 8009b36:	f8ce 2000 	strne.w	r2, [lr]
 8009b3a:	f645 126c 	movw	r2, #22892	; 0x596c
 8009b3e:	f2c2 0200 	movt	r2, #8192	; 0x2000
 8009b42:	f645 1370 	movw	r3, #22896	; 0x5970
 8009b46:	6814      	ldr	r4, [r2, #0]
 8009b48:	1a3f      	subs	r7, r7, r0
 8009b4a:	f2c2 0300 	movt	r3, #8192	; 0x2000
 8009b4e:	42a7      	cmp	r7, r4
 8009b50:	bf38      	it	cc
 8009b52:	6017      	strcc	r7, [r2, #0]
 8009b54:	4328      	orrs	r0, r5
 8009b56:	681a      	ldr	r2, [r3, #0]
 8009b58:	6048      	str	r0, [r1, #4]
 8009b5a:	2000      	movs	r0, #0
 8009b5c:	3201      	adds	r2, #1
 8009b5e:	6008      	str	r0, [r1, #0]
 8009b60:	601a      	str	r2, [r3, #0]
 8009b62:	f8cc 7000 	str.w	r7, [ip]
 8009b66:	f7ff f823 	bl	8008bb0 <xTaskResumeAll>
 8009b6a:	0773      	lsls	r3, r6, #29
 8009b6c:	d091      	beq.n	8009a92 <pvPortMalloc+0x9a>
 8009b6e:	f04f 0350 	mov.w	r3, #80	; 0x50
 8009b72:	f383 8811 	msr	BASEPRI, r3
 8009b76:	f3bf 8f6f 	isb	sy
 8009b7a:	f3bf 8f4f 	dsb	sy
 8009b7e:	e7fe      	b.n	8009b7e <pvPortMalloc+0x186>
 8009b80:	6854      	ldr	r4, [r2, #4]
 8009b82:	e7d0      	b.n	8009b26 <pvPortMalloc+0x12e>
 8009b84:	4298      	cmp	r0, r3
 8009b86:	d0d2      	beq.n	8009b2e <pvPortMalloc+0x136>
 8009b88:	e9d0 0300 	ldrd	r0, r3, [r0]
 8009b8c:	441c      	add	r4, r3
 8009b8e:	6010      	str	r0, [r2, #0]
 8009b90:	6054      	str	r4, [r2, #4]
 8009b92:	e7cd      	b.n	8009b30 <pvPortMalloc+0x138>

08009b94 <vPortFree>:
 8009b94:	b1f8      	cbz	r0, 8009bd6 <vPortFree+0x42>
 8009b96:	f645 1264 	movw	r2, #22884	; 0x5964
 8009b9a:	f2c2 0200 	movt	r2, #8192	; 0x2000
 8009b9e:	b538      	push	{r3, r4, r5, lr}
 8009ba0:	6812      	ldr	r2, [r2, #0]
 8009ba2:	f850 3c04 	ldr.w	r3, [r0, #-4]
 8009ba6:	4213      	tst	r3, r2
 8009ba8:	4604      	mov	r4, r0
 8009baa:	d00b      	beq.n	8009bc4 <vPortFree+0x30>
 8009bac:	f850 1c08 	ldr.w	r1, [r0, #-8]
 8009bb0:	b191      	cbz	r1, 8009bd8 <vPortFree+0x44>
 8009bb2:	f04f 0350 	mov.w	r3, #80	; 0x50
 8009bb6:	f383 8811 	msr	BASEPRI, r3
 8009bba:	f3bf 8f6f 	isb	sy
 8009bbe:	f3bf 8f4f 	dsb	sy
 8009bc2:	e7fe      	b.n	8009bc2 <vPortFree+0x2e>
 8009bc4:	f04f 0350 	mov.w	r3, #80	; 0x50
 8009bc8:	f383 8811 	msr	BASEPRI, r3
 8009bcc:	f3bf 8f6f 	isb	sy
 8009bd0:	f3bf 8f4f 	dsb	sy
 8009bd4:	e7fe      	b.n	8009bd4 <vPortFree+0x40>
 8009bd6:	4770      	bx	lr
 8009bd8:	ea23 0302 	bic.w	r3, r3, r2
 8009bdc:	f840 3c04 	str.w	r3, [r0, #-4]
 8009be0:	f7fe ffde 	bl	8008ba0 <vTaskSuspendAll>
 8009be4:	f645 1368 	movw	r3, #22888	; 0x5968
 8009be8:	f2c2 0300 	movt	r3, #8192	; 0x2000
 8009bec:	f854 0c04 	ldr.w	r0, [r4, #-4]
 8009bf0:	6819      	ldr	r1, [r3, #0]
 8009bf2:	f645 1278 	movw	r2, #22904	; 0x5978
 8009bf6:	4401      	add	r1, r0
 8009bf8:	6019      	str	r1, [r3, #0]
 8009bfa:	f2c2 0200 	movt	r2, #8192	; 0x2000
 8009bfe:	f1a4 0308 	sub.w	r3, r4, #8
 8009c02:	4611      	mov	r1, r2
 8009c04:	6812      	ldr	r2, [r2, #0]
 8009c06:	4293      	cmp	r3, r2
 8009c08:	d8fb      	bhi.n	8009c02 <vPortFree+0x6e>
 8009c0a:	684c      	ldr	r4, [r1, #4]
 8009c0c:	190d      	adds	r5, r1, r4
 8009c0e:	42ab      	cmp	r3, r5
 8009c10:	d011      	beq.n	8009c36 <vPortFree+0xa2>
 8009c12:	181c      	adds	r4, r3, r0
 8009c14:	42a2      	cmp	r2, r4
 8009c16:	d012      	beq.n	8009c3e <vPortFree+0xaa>
 8009c18:	601a      	str	r2, [r3, #0]
 8009c1a:	4299      	cmp	r1, r3
 8009c1c:	bf18      	it	ne
 8009c1e:	600b      	strne	r3, [r1, #0]
 8009c20:	f645 1374 	movw	r3, #22900	; 0x5974
 8009c24:	f2c2 0300 	movt	r3, #8192	; 0x2000
 8009c28:	681a      	ldr	r2, [r3, #0]
 8009c2a:	3201      	adds	r2, #1
 8009c2c:	601a      	str	r2, [r3, #0]
 8009c2e:	e8bd 4038 	ldmia.w	sp!, {r3, r4, r5, lr}
 8009c32:	f7fe bfbd 	b.w	8008bb0 <xTaskResumeAll>
 8009c36:	4420      	add	r0, r4
 8009c38:	6048      	str	r0, [r1, #4]
 8009c3a:	460b      	mov	r3, r1
 8009c3c:	e7e9      	b.n	8009c12 <vPortFree+0x7e>
 8009c3e:	f643 2420 	movw	r4, #14880	; 0x3a20
 8009c42:	f2c2 0400 	movt	r4, #8192	; 0x2000
 8009c46:	6824      	ldr	r4, [r4, #0]
 8009c48:	42a2      	cmp	r2, r4
 8009c4a:	d0e5      	beq.n	8009c18 <vPortFree+0x84>
 8009c4c:	e9d2 2400 	ldrd	r2, r4, [r2]
 8009c50:	4420      	add	r0, r4
 8009c52:	601a      	str	r2, [r3, #0]
 8009c54:	6058      	str	r0, [r3, #4]
 8009c56:	e7e0      	b.n	8009c1a <vPortFree+0x86>

08009c58 <__errno>:
 8009c58:	4b01      	ldr	r3, [pc, #4]	; (8009c60 <__errno+0x8>)
 8009c5a:	6818      	ldr	r0, [r3, #0]
 8009c5c:	4770      	bx	lr
 8009c5e:	bf00      	nop
 8009c60:	20000040 	.word	0x20000040

08009c64 <std>:
 8009c64:	2300      	movs	r3, #0
 8009c66:	b510      	push	{r4, lr}
 8009c68:	4604      	mov	r4, r0
 8009c6a:	e9c0 3300 	strd	r3, r3, [r0]
 8009c6e:	e9c0 3304 	strd	r3, r3, [r0, #16]
 8009c72:	6083      	str	r3, [r0, #8]
 8009c74:	8181      	strh	r1, [r0, #12]
 8009c76:	6643      	str	r3, [r0, #100]	; 0x64
 8009c78:	81c2      	strh	r2, [r0, #14]
 8009c7a:	6183      	str	r3, [r0, #24]
 8009c7c:	4619      	mov	r1, r3
 8009c7e:	2208      	movs	r2, #8
 8009c80:	305c      	adds	r0, #92	; 0x5c
 8009c82:	f000 f91a 	bl	8009eba <memset>
 8009c86:	4b05      	ldr	r3, [pc, #20]	; (8009c9c <std+0x38>)
 8009c88:	6263      	str	r3, [r4, #36]	; 0x24
 8009c8a:	4b05      	ldr	r3, [pc, #20]	; (8009ca0 <std+0x3c>)
 8009c8c:	62a3      	str	r3, [r4, #40]	; 0x28
 8009c8e:	4b05      	ldr	r3, [pc, #20]	; (8009ca4 <std+0x40>)
 8009c90:	62e3      	str	r3, [r4, #44]	; 0x2c
 8009c92:	4b05      	ldr	r3, [pc, #20]	; (8009ca8 <std+0x44>)
 8009c94:	6224      	str	r4, [r4, #32]
 8009c96:	6323      	str	r3, [r4, #48]	; 0x30
 8009c98:	bd10      	pop	{r4, pc}
 8009c9a:	bf00      	nop
 8009c9c:	0800adb5 	.word	0x0800adb5
 8009ca0:	0800add7 	.word	0x0800add7
 8009ca4:	0800ae0f 	.word	0x0800ae0f
 8009ca8:	0800ae33 	.word	0x0800ae33

08009cac <_cleanup_r>:
 8009cac:	4901      	ldr	r1, [pc, #4]	; (8009cb4 <_cleanup_r+0x8>)
 8009cae:	f000 b8af 	b.w	8009e10 <_fwalk_reent>
 8009cb2:	bf00      	nop
 8009cb4:	0800c9e5 	.word	0x0800c9e5

08009cb8 <__sfmoreglue>:
 8009cb8:	b570      	push	{r4, r5, r6, lr}
 8009cba:	1e4a      	subs	r2, r1, #1
 8009cbc:	2568      	movs	r5, #104	; 0x68
 8009cbe:	4355      	muls	r5, r2
 8009cc0:	460e      	mov	r6, r1
 8009cc2:	f105 0174 	add.w	r1, r5, #116	; 0x74
 8009cc6:	f000 f901 	bl	8009ecc <_malloc_r>
 8009cca:	4604      	mov	r4, r0
 8009ccc:	b140      	cbz	r0, 8009ce0 <__sfmoreglue+0x28>
 8009cce:	2100      	movs	r1, #0
 8009cd0:	e9c0 1600 	strd	r1, r6, [r0]
 8009cd4:	300c      	adds	r0, #12
 8009cd6:	60a0      	str	r0, [r4, #8]
 8009cd8:	f105 0268 	add.w	r2, r5, #104	; 0x68
 8009cdc:	f000 f8ed 	bl	8009eba <memset>
 8009ce0:	4620      	mov	r0, r4
 8009ce2:	bd70      	pop	{r4, r5, r6, pc}

08009ce4 <__sfp_lock_acquire>:
 8009ce4:	4801      	ldr	r0, [pc, #4]	; (8009cec <__sfp_lock_acquire+0x8>)
 8009ce6:	f000 b8d8 	b.w	8009e9a <__retarget_lock_acquire_recursive>
 8009cea:	bf00      	nop
 8009cec:	20006350 	.word	0x20006350

08009cf0 <__sfp_lock_release>:
 8009cf0:	4801      	ldr	r0, [pc, #4]	; (8009cf8 <__sfp_lock_release+0x8>)
 8009cf2:	f000 b8d3 	b.w	8009e9c <__retarget_lock_release_recursive>
 8009cf6:	bf00      	nop
 8009cf8:	20006350 	.word	0x20006350

08009cfc <__sinit_lock_acquire>:
 8009cfc:	4801      	ldr	r0, [pc, #4]	; (8009d04 <__sinit_lock_acquire+0x8>)
 8009cfe:	f000 b8cc 	b.w	8009e9a <__retarget_lock_acquire_recursive>
 8009d02:	bf00      	nop
 8009d04:	2000634b 	.word	0x2000634b

08009d08 <__sinit_lock_release>:
 8009d08:	4801      	ldr	r0, [pc, #4]	; (8009d10 <__sinit_lock_release+0x8>)
 8009d0a:	f000 b8c7 	b.w	8009e9c <__retarget_lock_release_recursive>
 8009d0e:	bf00      	nop
 8009d10:	2000634b 	.word	0x2000634b

08009d14 <__sinit>:
 8009d14:	b510      	push	{r4, lr}
 8009d16:	4604      	mov	r4, r0
 8009d18:	f7ff fff0 	bl	8009cfc <__sinit_lock_acquire>
 8009d1c:	69a3      	ldr	r3, [r4, #24]
 8009d1e:	b11b      	cbz	r3, 8009d28 <__sinit+0x14>
 8009d20:	e8bd 4010 	ldmia.w	sp!, {r4, lr}
 8009d24:	f7ff bff0 	b.w	8009d08 <__sinit_lock_release>
 8009d28:	e9c4 3312 	strd	r3, r3, [r4, #72]	; 0x48
 8009d2c:	6523      	str	r3, [r4, #80]	; 0x50
 8009d2e:	4b13      	ldr	r3, [pc, #76]	; (8009d7c <__sinit+0x68>)
 8009d30:	4a13      	ldr	r2, [pc, #76]	; (8009d80 <__sinit+0x6c>)
 8009d32:	681b      	ldr	r3, [r3, #0]
 8009d34:	62a2      	str	r2, [r4, #40]	; 0x28
 8009d36:	42a3      	cmp	r3, r4
 8009d38:	bf04      	itt	eq
 8009d3a:	2301      	moveq	r3, #1
 8009d3c:	61a3      	streq	r3, [r4, #24]
 8009d3e:	4620      	mov	r0, r4
 8009d40:	f000 f820 	bl	8009d84 <__sfp>
 8009d44:	6060      	str	r0, [r4, #4]
 8009d46:	4620      	mov	r0, r4
 8009d48:	f000 f81c 	bl	8009d84 <__sfp>
 8009d4c:	60a0      	str	r0, [r4, #8]
 8009d4e:	4620      	mov	r0, r4
 8009d50:	f000 f818 	bl	8009d84 <__sfp>
 8009d54:	2200      	movs	r2, #0
 8009d56:	60e0      	str	r0, [r4, #12]
 8009d58:	2104      	movs	r1, #4
 8009d5a:	6860      	ldr	r0, [r4, #4]
 8009d5c:	f7ff ff82 	bl	8009c64 <std>
 8009d60:	68a0      	ldr	r0, [r4, #8]
 8009d62:	2201      	movs	r2, #1
 8009d64:	2109      	movs	r1, #9
 8009d66:	f7ff ff7d 	bl	8009c64 <std>
 8009d6a:	68e0      	ldr	r0, [r4, #12]
 8009d6c:	2202      	movs	r2, #2
 8009d6e:	2112      	movs	r1, #18
 8009d70:	f7ff ff78 	bl	8009c64 <std>
 8009d74:	2301      	movs	r3, #1
 8009d76:	61a3      	str	r3, [r4, #24]
 8009d78:	e7d2      	b.n	8009d20 <__sinit+0xc>
 8009d7a:	bf00      	nop
 8009d7c:	0800fe90 	.word	0x0800fe90
 8009d80:	08009cad 	.word	0x08009cad

08009d84 <__sfp>:
 8009d84:	b5f8      	push	{r3, r4, r5, r6, r7, lr}
 8009d86:	4607      	mov	r7, r0
 8009d88:	f7ff ffac 	bl	8009ce4 <__sfp_lock_acquire>
 8009d8c:	4b1e      	ldr	r3, [pc, #120]	; (8009e08 <__sfp+0x84>)
 8009d8e:	681e      	ldr	r6, [r3, #0]
 8009d90:	69b3      	ldr	r3, [r6, #24]
 8009d92:	b913      	cbnz	r3, 8009d9a <__sfp+0x16>
 8009d94:	4630      	mov	r0, r6
 8009d96:	f7ff ffbd 	bl	8009d14 <__sinit>
 8009d9a:	3648      	adds	r6, #72	; 0x48
 8009d9c:	e9d6 3401 	ldrd	r3, r4, [r6, #4]
 8009da0:	3b01      	subs	r3, #1
 8009da2:	d503      	bpl.n	8009dac <__sfp+0x28>
 8009da4:	6833      	ldr	r3, [r6, #0]
 8009da6:	b30b      	cbz	r3, 8009dec <__sfp+0x68>
 8009da8:	6836      	ldr	r6, [r6, #0]
 8009daa:	e7f7      	b.n	8009d9c <__sfp+0x18>
 8009dac:	f9b4 500c 	ldrsh.w	r5, [r4, #12]
 8009db0:	b9d5      	cbnz	r5, 8009de8 <__sfp+0x64>
 8009db2:	4b16      	ldr	r3, [pc, #88]	; (8009e0c <__sfp+0x88>)
 8009db4:	60e3      	str	r3, [r4, #12]
 8009db6:	f104 0058 	add.w	r0, r4, #88	; 0x58
 8009dba:	6665      	str	r5, [r4, #100]	; 0x64
 8009dbc:	f000 f86c 	bl	8009e98 <__retarget_lock_init_recursive>
 8009dc0:	f7ff ff96 	bl	8009cf0 <__sfp_lock_release>
 8009dc4:	e9c4 5501 	strd	r5, r5, [r4, #4]
 8009dc8:	e9c4 5504 	strd	r5, r5, [r4, #16]
 8009dcc:	6025      	str	r5, [r4, #0]
 8009dce:	61a5      	str	r5, [r4, #24]
 8009dd0:	2208      	movs	r2, #8
 8009dd2:	4629      	mov	r1, r5
 8009dd4:	f104 005c 	add.w	r0, r4, #92	; 0x5c
 8009dd8:	f000 f86f 	bl	8009eba <memset>
 8009ddc:	e9c4 550d 	strd	r5, r5, [r4, #52]	; 0x34
 8009de0:	e9c4 5512 	strd	r5, r5, [r4, #72]	; 0x48
 8009de4:	4620      	mov	r0, r4
 8009de6:	bdf8      	pop	{r3, r4, r5, r6, r7, pc}
 8009de8:	3468      	adds	r4, #104	; 0x68
 8009dea:	e7d9      	b.n	8009da0 <__sfp+0x1c>
 8009dec:	2104      	movs	r1, #4
 8009dee:	4638      	mov	r0, r7
 8009df0:	f7ff ff62 	bl	8009cb8 <__sfmoreglue>
 8009df4:	4604      	mov	r4, r0
 8009df6:	6030      	str	r0, [r6, #0]
 8009df8:	2800      	cmp	r0, #0
 8009dfa:	d1d5      	bne.n	8009da8 <__sfp+0x24>
 8009dfc:	f7ff ff78 	bl	8009cf0 <__sfp_lock_release>
 8009e00:	230c      	movs	r3, #12
 8009e02:	603b      	str	r3, [r7, #0]
 8009e04:	e7ee      	b.n	8009de4 <__sfp+0x60>
 8009e06:	bf00      	nop
 8009e08:	0800fe90 	.word	0x0800fe90
 8009e0c:	ffff0001 	.word	0xffff0001

08009e10 <_fwalk_reent>:
 8009e10:	e92d 43f8 	stmdb	sp!, {r3, r4, r5, r6, r7, r8, r9, lr}
 8009e14:	4606      	mov	r6, r0
 8009e16:	4688      	mov	r8, r1
 8009e18:	f100 0448 	add.w	r4, r0, #72	; 0x48
 8009e1c:	2700      	movs	r7, #0
 8009e1e:	e9d4 9501 	ldrd	r9, r5, [r4, #4]
 8009e22:	f1b9 0901 	subs.w	r9, r9, #1
 8009e26:	d505      	bpl.n	8009e34 <_fwalk_reent+0x24>
 8009e28:	6824      	ldr	r4, [r4, #0]
 8009e2a:	2c00      	cmp	r4, #0
 8009e2c:	d1f7      	bne.n	8009e1e <_fwalk_reent+0xe>
 8009e2e:	4638      	mov	r0, r7
 8009e30:	e8bd 83f8 	ldmia.w	sp!, {r3, r4, r5, r6, r7, r8, r9, pc}
 8009e34:	89ab      	ldrh	r3, [r5, #12]
 8009e36:	2b01      	cmp	r3, #1
 8009e38:	d907      	bls.n	8009e4a <_fwalk_reent+0x3a>
 8009e3a:	f9b5 300e 	ldrsh.w	r3, [r5, #14]
 8009e3e:	3301      	adds	r3, #1
 8009e40:	d003      	beq.n	8009e4a <_fwalk_reent+0x3a>
 8009e42:	4629      	mov	r1, r5
 8009e44:	4630      	mov	r0, r6
 8009e46:	47c0      	blx	r8
 8009e48:	4307      	orrs	r7, r0
 8009e4a:	3568      	adds	r5, #104	; 0x68
 8009e4c:	e7e9      	b.n	8009e22 <_fwalk_reent+0x12>
	...

08009e50 <__libc_init_array>:
 8009e50:	b570      	push	{r4, r5, r6, lr}
 8009e52:	4d0d      	ldr	r5, [pc, #52]	; (8009e88 <__libc_init_array+0x38>)
 8009e54:	4c0d      	ldr	r4, [pc, #52]	; (8009e8c <__libc_init_array+0x3c>)
 8009e56:	1b64      	subs	r4, r4, r5
 8009e58:	10a4      	asrs	r4, r4, #2
 8009e5a:	2600      	movs	r6, #0
 8009e5c:	42a6      	cmp	r6, r4
 8009e5e:	d109      	bne.n	8009e74 <__libc_init_array+0x24>
 8009e60:	4d0b      	ldr	r5, [pc, #44]	; (8009e90 <__libc_init_array+0x40>)
 8009e62:	4c0c      	ldr	r4, [pc, #48]	; (8009e94 <__libc_init_array+0x44>)
 8009e64:	f005 fb66 	bl	800f534 <_init>
 8009e68:	1b64      	subs	r4, r4, r5
 8009e6a:	10a4      	asrs	r4, r4, #2
 8009e6c:	2600      	movs	r6, #0
 8009e6e:	42a6      	cmp	r6, r4
 8009e70:	d105      	bne.n	8009e7e <__libc_init_array+0x2e>
 8009e72:	bd70      	pop	{r4, r5, r6, pc}
 8009e74:	f855 3b04 	ldr.w	r3, [r5], #4
 8009e78:	4798      	blx	r3
 8009e7a:	3601      	adds	r6, #1
 8009e7c:	e7ee      	b.n	8009e5c <__libc_init_array+0xc>
 8009e7e:	f855 3b04 	ldr.w	r3, [r5], #4
 8009e82:	4798      	blx	r3
 8009e84:	3601      	adds	r6, #1
 8009e86:	e7f2      	b.n	8009e6e <__libc_init_array+0x1e>
 8009e88:	08010330 	.word	0x08010330
 8009e8c:	08010330 	.word	0x08010330
 8009e90:	08010330 	.word	0x08010330
 8009e94:	08010334 	.word	0x08010334

08009e98 <__retarget_lock_init_recursive>:
 8009e98:	4770      	bx	lr

08009e9a <__retarget_lock_acquire_recursive>:
 8009e9a:	4770      	bx	lr

08009e9c <__retarget_lock_release_recursive>:
 8009e9c:	4770      	bx	lr

08009e9e <memcpy>:
 8009e9e:	440a      	add	r2, r1
 8009ea0:	4291      	cmp	r1, r2
 8009ea2:	f100 33ff 	add.w	r3, r0, #4294967295
 8009ea6:	d100      	bne.n	8009eaa <memcpy+0xc>
 8009ea8:	4770      	bx	lr
 8009eaa:	b510      	push	{r4, lr}
 8009eac:	f811 4b01 	ldrb.w	r4, [r1], #1
 8009eb0:	f803 4f01 	strb.w	r4, [r3, #1]!
 8009eb4:	4291      	cmp	r1, r2
 8009eb6:	d1f9      	bne.n	8009eac <memcpy+0xe>
 8009eb8:	bd10      	pop	{r4, pc}

08009eba <memset>:
 8009eba:	4402      	add	r2, r0
 8009ebc:	4603      	mov	r3, r0
 8009ebe:	4293      	cmp	r3, r2
 8009ec0:	d100      	bne.n	8009ec4 <memset+0xa>
 8009ec2:	4770      	bx	lr
 8009ec4:	f803 1b01 	strb.w	r1, [r3], #1
 8009ec8:	e7f9      	b.n	8009ebe <memset+0x4>
	...

08009ecc <_malloc_r>:
 8009ecc:	b5f8      	push	{r3, r4, r5, r6, r7, lr}
 8009ece:	1ccd      	adds	r5, r1, #3
 8009ed0:	f025 0503 	bic.w	r5, r5, #3
 8009ed4:	3508      	adds	r5, #8
 8009ed6:	2d0c      	cmp	r5, #12
 8009ed8:	bf38      	it	cc
 8009eda:	250c      	movcc	r5, #12
 8009edc:	2d00      	cmp	r5, #0
 8009ede:	4606      	mov	r6, r0
 8009ee0:	db01      	blt.n	8009ee6 <_malloc_r+0x1a>
 8009ee2:	42a9      	cmp	r1, r5
 8009ee4:	d903      	bls.n	8009eee <_malloc_r+0x22>
 8009ee6:	230c      	movs	r3, #12
 8009ee8:	6033      	str	r3, [r6, #0]
 8009eea:	2000      	movs	r0, #0
 8009eec:	bdf8      	pop	{r3, r4, r5, r6, r7, pc}
 8009eee:	f003 f955 	bl	800d19c <__malloc_lock>
 8009ef2:	4921      	ldr	r1, [pc, #132]	; (8009f78 <_malloc_r+0xac>)
 8009ef4:	680a      	ldr	r2, [r1, #0]
 8009ef6:	4614      	mov	r4, r2
 8009ef8:	b99c      	cbnz	r4, 8009f22 <_malloc_r+0x56>
 8009efa:	4f20      	ldr	r7, [pc, #128]	; (8009f7c <_malloc_r+0xb0>)
 8009efc:	683b      	ldr	r3, [r7, #0]
 8009efe:	b923      	cbnz	r3, 8009f0a <_malloc_r+0x3e>
 8009f00:	4621      	mov	r1, r4
 8009f02:	4630      	mov	r0, r6
 8009f04:	f000 ff20 	bl	800ad48 <_sbrk_r>
 8009f08:	6038      	str	r0, [r7, #0]
 8009f0a:	4629      	mov	r1, r5
 8009f0c:	4630      	mov	r0, r6
 8009f0e:	f000 ff1b 	bl	800ad48 <_sbrk_r>
 8009f12:	1c43      	adds	r3, r0, #1
 8009f14:	d123      	bne.n	8009f5e <_malloc_r+0x92>
 8009f16:	230c      	movs	r3, #12
 8009f18:	6033      	str	r3, [r6, #0]
 8009f1a:	4630      	mov	r0, r6
 8009f1c:	f003 f944 	bl	800d1a8 <__malloc_unlock>
 8009f20:	e7e3      	b.n	8009eea <_malloc_r+0x1e>
 8009f22:	6823      	ldr	r3, [r4, #0]
 8009f24:	1b5b      	subs	r3, r3, r5
 8009f26:	d417      	bmi.n	8009f58 <_malloc_r+0x8c>
 8009f28:	2b0b      	cmp	r3, #11
 8009f2a:	d903      	bls.n	8009f34 <_malloc_r+0x68>
 8009f2c:	6023      	str	r3, [r4, #0]
 8009f2e:	441c      	add	r4, r3
 8009f30:	6025      	str	r5, [r4, #0]
 8009f32:	e004      	b.n	8009f3e <_malloc_r+0x72>
 8009f34:	6863      	ldr	r3, [r4, #4]
 8009f36:	42a2      	cmp	r2, r4
 8009f38:	bf0c      	ite	eq
 8009f3a:	600b      	streq	r3, [r1, #0]
 8009f3c:	6053      	strne	r3, [r2, #4]
 8009f3e:	4630      	mov	r0, r6
 8009f40:	f003 f932 	bl	800d1a8 <__malloc_unlock>
 8009f44:	f104 000b 	add.w	r0, r4, #11
 8009f48:	1d23      	adds	r3, r4, #4
 8009f4a:	f020 0007 	bic.w	r0, r0, #7
 8009f4e:	1ac2      	subs	r2, r0, r3
 8009f50:	d0cc      	beq.n	8009eec <_malloc_r+0x20>
 8009f52:	1a1b      	subs	r3, r3, r0
 8009f54:	50a3      	str	r3, [r4, r2]
 8009f56:	e7c9      	b.n	8009eec <_malloc_r+0x20>
 8009f58:	4622      	mov	r2, r4
 8009f5a:	6864      	ldr	r4, [r4, #4]
 8009f5c:	e7cc      	b.n	8009ef8 <_malloc_r+0x2c>
 8009f5e:	1cc4      	adds	r4, r0, #3
 8009f60:	f024 0403 	bic.w	r4, r4, #3
 8009f64:	42a0      	cmp	r0, r4
 8009f66:	d0e3      	beq.n	8009f30 <_malloc_r+0x64>
 8009f68:	1a21      	subs	r1, r4, r0
 8009f6a:	4630      	mov	r0, r6
 8009f6c:	f000 feec 	bl	800ad48 <_sbrk_r>
 8009f70:	3001      	adds	r0, #1
 8009f72:	d1dd      	bne.n	8009f30 <_malloc_r+0x64>
 8009f74:	e7cf      	b.n	8009f16 <_malloc_r+0x4a>
 8009f76:	bf00      	nop
 8009f78:	20005980 	.word	0x20005980
 8009f7c:	20005984 	.word	0x20005984

08009f80 <__cvt>:
 8009f80:	e92d 47ff 	stmdb	sp!, {r0, r1, r2, r3, r4, r5, r6, r7, r8, r9, sl, lr}
 8009f84:	ec55 4b10 	vmov	r4, r5, d0
 8009f88:	2d00      	cmp	r5, #0
 8009f8a:	460e      	mov	r6, r1
 8009f8c:	4619      	mov	r1, r3
 8009f8e:	462b      	mov	r3, r5
 8009f90:	bfbb      	ittet	lt
 8009f92:	f105 4300 	addlt.w	r3, r5, #2147483648	; 0x80000000
 8009f96:	461d      	movlt	r5, r3
 8009f98:	2300      	movge	r3, #0
 8009f9a:	232d      	movlt	r3, #45	; 0x2d
 8009f9c:	700b      	strb	r3, [r1, #0]
 8009f9e:	9b0d      	ldr	r3, [sp, #52]	; 0x34
 8009fa0:	f8dd a030 	ldr.w	sl, [sp, #48]	; 0x30
 8009fa4:	4691      	mov	r9, r2
 8009fa6:	f023 0820 	bic.w	r8, r3, #32
 8009faa:	bfbc      	itt	lt
 8009fac:	4622      	movlt	r2, r4
 8009fae:	4614      	movlt	r4, r2
 8009fb0:	f1b8 0f46 	cmp.w	r8, #70	; 0x46
 8009fb4:	d005      	beq.n	8009fc2 <__cvt+0x42>
 8009fb6:	f1b8 0f45 	cmp.w	r8, #69	; 0x45
 8009fba:	d100      	bne.n	8009fbe <__cvt+0x3e>
 8009fbc:	3601      	adds	r6, #1
 8009fbe:	2102      	movs	r1, #2
 8009fc0:	e000      	b.n	8009fc4 <__cvt+0x44>
 8009fc2:	2103      	movs	r1, #3
 8009fc4:	ab03      	add	r3, sp, #12
 8009fc6:	9301      	str	r3, [sp, #4]
 8009fc8:	ab02      	add	r3, sp, #8
 8009fca:	9300      	str	r3, [sp, #0]
 8009fcc:	ec45 4b10 	vmov	d0, r4, r5
 8009fd0:	4653      	mov	r3, sl
 8009fd2:	4632      	mov	r2, r6
 8009fd4:	f001 fe94 	bl	800bd00 <_dtoa_r>
 8009fd8:	f1b8 0f47 	cmp.w	r8, #71	; 0x47
 8009fdc:	4607      	mov	r7, r0
 8009fde:	d102      	bne.n	8009fe6 <__cvt+0x66>
 8009fe0:	f019 0f01 	tst.w	r9, #1
 8009fe4:	d022      	beq.n	800a02c <__cvt+0xac>
 8009fe6:	f1b8 0f46 	cmp.w	r8, #70	; 0x46
 8009fea:	eb07 0906 	add.w	r9, r7, r6
 8009fee:	d110      	bne.n	800a012 <__cvt+0x92>
 8009ff0:	783b      	ldrb	r3, [r7, #0]
 8009ff2:	2b30      	cmp	r3, #48	; 0x30
 8009ff4:	d10a      	bne.n	800a00c <__cvt+0x8c>
 8009ff6:	2200      	movs	r2, #0
 8009ff8:	2300      	movs	r3, #0
 8009ffa:	4620      	mov	r0, r4
 8009ffc:	4629      	mov	r1, r5
 8009ffe:	f7f6 fd63 	bl	8000ac8 <__aeabi_dcmpeq>
 800a002:	b918      	cbnz	r0, 800a00c <__cvt+0x8c>
 800a004:	f1c6 0601 	rsb	r6, r6, #1
 800a008:	f8ca 6000 	str.w	r6, [sl]
 800a00c:	f8da 3000 	ldr.w	r3, [sl]
 800a010:	4499      	add	r9, r3
 800a012:	2200      	movs	r2, #0
 800a014:	2300      	movs	r3, #0
 800a016:	4620      	mov	r0, r4
 800a018:	4629      	mov	r1, r5
 800a01a:	f7f6 fd55 	bl	8000ac8 <__aeabi_dcmpeq>
 800a01e:	b108      	cbz	r0, 800a024 <__cvt+0xa4>
 800a020:	f8cd 900c 	str.w	r9, [sp, #12]
 800a024:	2230      	movs	r2, #48	; 0x30
 800a026:	9b03      	ldr	r3, [sp, #12]
 800a028:	454b      	cmp	r3, r9
 800a02a:	d307      	bcc.n	800a03c <__cvt+0xbc>
 800a02c:	9b03      	ldr	r3, [sp, #12]
 800a02e:	9a0e      	ldr	r2, [sp, #56]	; 0x38
 800a030:	1bdb      	subs	r3, r3, r7
 800a032:	4638      	mov	r0, r7
 800a034:	6013      	str	r3, [r2, #0]
 800a036:	b004      	add	sp, #16
 800a038:	e8bd 87f0 	ldmia.w	sp!, {r4, r5, r6, r7, r8, r9, sl, pc}
 800a03c:	1c59      	adds	r1, r3, #1
 800a03e:	9103      	str	r1, [sp, #12]
 800a040:	701a      	strb	r2, [r3, #0]
 800a042:	e7f0      	b.n	800a026 <__cvt+0xa6>

0800a044 <__exponent>:
 800a044:	b5f7      	push	{r0, r1, r2, r4, r5, r6, r7, lr}
 800a046:	4603      	mov	r3, r0
 800a048:	2900      	cmp	r1, #0
 800a04a:	bfb8      	it	lt
 800a04c:	4249      	neglt	r1, r1
 800a04e:	f803 2b02 	strb.w	r2, [r3], #2
 800a052:	bfb4      	ite	lt
 800a054:	222d      	movlt	r2, #45	; 0x2d
 800a056:	222b      	movge	r2, #43	; 0x2b
 800a058:	2909      	cmp	r1, #9
 800a05a:	7042      	strb	r2, [r0, #1]
 800a05c:	dd2a      	ble.n	800a0b4 <__exponent+0x70>
 800a05e:	f10d 0407 	add.w	r4, sp, #7
 800a062:	46a4      	mov	ip, r4
 800a064:	270a      	movs	r7, #10
 800a066:	46a6      	mov	lr, r4
 800a068:	460a      	mov	r2, r1
 800a06a:	fb91 f6f7 	sdiv	r6, r1, r7
 800a06e:	fb07 1516 	mls	r5, r7, r6, r1
 800a072:	3530      	adds	r5, #48	; 0x30
 800a074:	2a63      	cmp	r2, #99	; 0x63
 800a076:	f104 34ff 	add.w	r4, r4, #4294967295
 800a07a:	f80e 5c01 	strb.w	r5, [lr, #-1]
 800a07e:	4631      	mov	r1, r6
 800a080:	dcf1      	bgt.n	800a066 <__exponent+0x22>
 800a082:	3130      	adds	r1, #48	; 0x30
 800a084:	f1ae 0502 	sub.w	r5, lr, #2
 800a088:	f804 1c01 	strb.w	r1, [r4, #-1]
 800a08c:	1c44      	adds	r4, r0, #1
 800a08e:	4629      	mov	r1, r5
 800a090:	4561      	cmp	r1, ip
 800a092:	d30a      	bcc.n	800a0aa <__exponent+0x66>
 800a094:	f10d 0209 	add.w	r2, sp, #9
 800a098:	eba2 020e 	sub.w	r2, r2, lr
 800a09c:	4565      	cmp	r5, ip
 800a09e:	bf88      	it	hi
 800a0a0:	2200      	movhi	r2, #0
 800a0a2:	4413      	add	r3, r2
 800a0a4:	1a18      	subs	r0, r3, r0
 800a0a6:	b003      	add	sp, #12
 800a0a8:	bdf0      	pop	{r4, r5, r6, r7, pc}
 800a0aa:	f811 2b01 	ldrb.w	r2, [r1], #1
 800a0ae:	f804 2f01 	strb.w	r2, [r4, #1]!
 800a0b2:	e7ed      	b.n	800a090 <__exponent+0x4c>
 800a0b4:	2330      	movs	r3, #48	; 0x30
 800a0b6:	3130      	adds	r1, #48	; 0x30
 800a0b8:	7083      	strb	r3, [r0, #2]
 800a0ba:	70c1      	strb	r1, [r0, #3]
 800a0bc:	1d03      	adds	r3, r0, #4
 800a0be:	e7f1      	b.n	800a0a4 <__exponent+0x60>

0800a0c0 <_printf_float>:
 800a0c0:	e92d 4ff0 	stmdb	sp!, {r4, r5, r6, r7, r8, r9, sl, fp, lr}
 800a0c4:	ed2d 8b02 	vpush	{d8}
 800a0c8:	b08d      	sub	sp, #52	; 0x34
 800a0ca:	460c      	mov	r4, r1
 800a0cc:	f8dd 8060 	ldr.w	r8, [sp, #96]	; 0x60
 800a0d0:	4616      	mov	r6, r2
 800a0d2:	461f      	mov	r7, r3
 800a0d4:	4605      	mov	r5, r0
 800a0d6:	f003 f831 	bl	800d13c <_localeconv_r>
 800a0da:	f8d0 a000 	ldr.w	sl, [r0]
 800a0de:	4650      	mov	r0, sl
 800a0e0:	f7f6 f876 	bl	80001d0 <strlen>
 800a0e4:	2300      	movs	r3, #0
 800a0e6:	930a      	str	r3, [sp, #40]	; 0x28
 800a0e8:	6823      	ldr	r3, [r4, #0]
 800a0ea:	9305      	str	r3, [sp, #20]
 800a0ec:	f8d8 3000 	ldr.w	r3, [r8]
 800a0f0:	f894 b018 	ldrb.w	fp, [r4, #24]
 800a0f4:	3307      	adds	r3, #7
 800a0f6:	f023 0307 	bic.w	r3, r3, #7
 800a0fa:	f103 0208 	add.w	r2, r3, #8
 800a0fe:	f8c8 2000 	str.w	r2, [r8]
 800a102:	e9d3 2300 	ldrd	r2, r3, [r3]
 800a106:	e9c4 2312 	strd	r2, r3, [r4, #72]	; 0x48
 800a10a:	e9d4 8912 	ldrd	r8, r9, [r4, #72]	; 0x48
 800a10e:	f029 4300 	bic.w	r3, r9, #2147483648	; 0x80000000
 800a112:	9307      	str	r3, [sp, #28]
 800a114:	f8cd 8018 	str.w	r8, [sp, #24]
 800a118:	ee08 0a10 	vmov	s16, r0
 800a11c:	4b9f      	ldr	r3, [pc, #636]	; (800a39c <_printf_float+0x2dc>)
 800a11e:	e9dd 0106 	ldrd	r0, r1, [sp, #24]
 800a122:	f04f 32ff 	mov.w	r2, #4294967295
 800a126:	f7f6 fd01 	bl	8000b2c <__aeabi_dcmpun>
 800a12a:	bb88      	cbnz	r0, 800a190 <_printf_float+0xd0>
 800a12c:	e9dd 0106 	ldrd	r0, r1, [sp, #24]
 800a130:	4b9a      	ldr	r3, [pc, #616]	; (800a39c <_printf_float+0x2dc>)
 800a132:	f04f 32ff 	mov.w	r2, #4294967295
 800a136:	f7f6 fcdb 	bl	8000af0 <__aeabi_dcmple>
 800a13a:	bb48      	cbnz	r0, 800a190 <_printf_float+0xd0>
 800a13c:	2200      	movs	r2, #0
 800a13e:	2300      	movs	r3, #0
 800a140:	4640      	mov	r0, r8
 800a142:	4649      	mov	r1, r9
 800a144:	f7f6 fcca 	bl	8000adc <__aeabi_dcmplt>
 800a148:	b110      	cbz	r0, 800a150 <_printf_float+0x90>
 800a14a:	232d      	movs	r3, #45	; 0x2d
 800a14c:	f884 3043 	strb.w	r3, [r4, #67]	; 0x43
 800a150:	4b93      	ldr	r3, [pc, #588]	; (800a3a0 <_printf_float+0x2e0>)
 800a152:	4894      	ldr	r0, [pc, #592]	; (800a3a4 <_printf_float+0x2e4>)
 800a154:	f1bb 0f47 	cmp.w	fp, #71	; 0x47
 800a158:	bf94      	ite	ls
 800a15a:	4698      	movls	r8, r3
 800a15c:	4680      	movhi	r8, r0
 800a15e:	2303      	movs	r3, #3
 800a160:	6123      	str	r3, [r4, #16]
 800a162:	9b05      	ldr	r3, [sp, #20]
 800a164:	f023 0204 	bic.w	r2, r3, #4
 800a168:	6022      	str	r2, [r4, #0]
 800a16a:	f04f 0900 	mov.w	r9, #0
 800a16e:	9700      	str	r7, [sp, #0]
 800a170:	4633      	mov	r3, r6
 800a172:	aa0b      	add	r2, sp, #44	; 0x2c
 800a174:	4621      	mov	r1, r4
 800a176:	4628      	mov	r0, r5
 800a178:	f000 f9d8 	bl	800a52c <_printf_common>
 800a17c:	3001      	adds	r0, #1
 800a17e:	f040 8090 	bne.w	800a2a2 <_printf_float+0x1e2>
 800a182:	f04f 30ff 	mov.w	r0, #4294967295
 800a186:	b00d      	add	sp, #52	; 0x34
 800a188:	ecbd 8b02 	vpop	{d8}
 800a18c:	e8bd 8ff0 	ldmia.w	sp!, {r4, r5, r6, r7, r8, r9, sl, fp, pc}
 800a190:	4642      	mov	r2, r8
 800a192:	464b      	mov	r3, r9
 800a194:	4640      	mov	r0, r8
 800a196:	4649      	mov	r1, r9
 800a198:	f7f6 fcc8 	bl	8000b2c <__aeabi_dcmpun>
 800a19c:	b140      	cbz	r0, 800a1b0 <_printf_float+0xf0>
 800a19e:	464b      	mov	r3, r9
 800a1a0:	2b00      	cmp	r3, #0
 800a1a2:	bfbc      	itt	lt
 800a1a4:	232d      	movlt	r3, #45	; 0x2d
 800a1a6:	f884 3043 	strblt.w	r3, [r4, #67]	; 0x43
 800a1aa:	487f      	ldr	r0, [pc, #508]	; (800a3a8 <_printf_float+0x2e8>)
 800a1ac:	4b7f      	ldr	r3, [pc, #508]	; (800a3ac <_printf_float+0x2ec>)
 800a1ae:	e7d1      	b.n	800a154 <_printf_float+0x94>
 800a1b0:	6863      	ldr	r3, [r4, #4]
 800a1b2:	f00b 02df 	and.w	r2, fp, #223	; 0xdf
 800a1b6:	9206      	str	r2, [sp, #24]
 800a1b8:	1c5a      	adds	r2, r3, #1
 800a1ba:	d13f      	bne.n	800a23c <_printf_float+0x17c>
 800a1bc:	2306      	movs	r3, #6
 800a1be:	6063      	str	r3, [r4, #4]
 800a1c0:	9b05      	ldr	r3, [sp, #20]
 800a1c2:	6861      	ldr	r1, [r4, #4]
 800a1c4:	f443 6280 	orr.w	r2, r3, #1024	; 0x400
 800a1c8:	2300      	movs	r3, #0
 800a1ca:	9303      	str	r3, [sp, #12]
 800a1cc:	ab0a      	add	r3, sp, #40	; 0x28
 800a1ce:	e9cd b301 	strd	fp, r3, [sp, #4]
 800a1d2:	ab09      	add	r3, sp, #36	; 0x24
 800a1d4:	ec49 8b10 	vmov	d0, r8, r9
 800a1d8:	9300      	str	r3, [sp, #0]
 800a1da:	6022      	str	r2, [r4, #0]
 800a1dc:	f10d 0323 	add.w	r3, sp, #35	; 0x23
 800a1e0:	4628      	mov	r0, r5
 800a1e2:	f7ff fecd 	bl	8009f80 <__cvt>
 800a1e6:	9b06      	ldr	r3, [sp, #24]
 800a1e8:	9909      	ldr	r1, [sp, #36]	; 0x24
 800a1ea:	2b47      	cmp	r3, #71	; 0x47
 800a1ec:	4680      	mov	r8, r0
 800a1ee:	d108      	bne.n	800a202 <_printf_float+0x142>
 800a1f0:	1cc8      	adds	r0, r1, #3
 800a1f2:	db02      	blt.n	800a1fa <_printf_float+0x13a>
 800a1f4:	6863      	ldr	r3, [r4, #4]
 800a1f6:	4299      	cmp	r1, r3
 800a1f8:	dd41      	ble.n	800a27e <_printf_float+0x1be>
 800a1fa:	f1ab 0b02 	sub.w	fp, fp, #2
 800a1fe:	fa5f fb8b 	uxtb.w	fp, fp
 800a202:	f1bb 0f65 	cmp.w	fp, #101	; 0x65
 800a206:	d820      	bhi.n	800a24a <_printf_float+0x18a>
 800a208:	3901      	subs	r1, #1
 800a20a:	465a      	mov	r2, fp
 800a20c:	f104 0050 	add.w	r0, r4, #80	; 0x50
 800a210:	9109      	str	r1, [sp, #36]	; 0x24
 800a212:	f7ff ff17 	bl	800a044 <__exponent>
 800a216:	9a0a      	ldr	r2, [sp, #40]	; 0x28
 800a218:	1813      	adds	r3, r2, r0
 800a21a:	2a01      	cmp	r2, #1
 800a21c:	4681      	mov	r9, r0
 800a21e:	6123      	str	r3, [r4, #16]
 800a220:	dc02      	bgt.n	800a228 <_printf_float+0x168>
 800a222:	6822      	ldr	r2, [r4, #0]
 800a224:	07d2      	lsls	r2, r2, #31
 800a226:	d501      	bpl.n	800a22c <_printf_float+0x16c>
 800a228:	3301      	adds	r3, #1
 800a22a:	6123      	str	r3, [r4, #16]
 800a22c:	f89d 3023 	ldrb.w	r3, [sp, #35]	; 0x23
 800a230:	2b00      	cmp	r3, #0
 800a232:	d09c      	beq.n	800a16e <_printf_float+0xae>
 800a234:	232d      	movs	r3, #45	; 0x2d
 800a236:	f884 3043 	strb.w	r3, [r4, #67]	; 0x43
 800a23a:	e798      	b.n	800a16e <_printf_float+0xae>
 800a23c:	9a06      	ldr	r2, [sp, #24]
 800a23e:	2a47      	cmp	r2, #71	; 0x47
 800a240:	d1be      	bne.n	800a1c0 <_printf_float+0x100>
 800a242:	2b00      	cmp	r3, #0
 800a244:	d1bc      	bne.n	800a1c0 <_printf_float+0x100>
 800a246:	2301      	movs	r3, #1
 800a248:	e7b9      	b.n	800a1be <_printf_float+0xfe>
 800a24a:	f1bb 0f66 	cmp.w	fp, #102	; 0x66
 800a24e:	d118      	bne.n	800a282 <_printf_float+0x1c2>
 800a250:	2900      	cmp	r1, #0
 800a252:	6863      	ldr	r3, [r4, #4]
 800a254:	dd0b      	ble.n	800a26e <_printf_float+0x1ae>
 800a256:	6121      	str	r1, [r4, #16]
 800a258:	b913      	cbnz	r3, 800a260 <_printf_float+0x1a0>
 800a25a:	6822      	ldr	r2, [r4, #0]
 800a25c:	07d0      	lsls	r0, r2, #31
 800a25e:	d502      	bpl.n	800a266 <_printf_float+0x1a6>
 800a260:	3301      	adds	r3, #1
 800a262:	440b      	add	r3, r1
 800a264:	6123      	str	r3, [r4, #16]
 800a266:	65a1      	str	r1, [r4, #88]	; 0x58
 800a268:	f04f 0900 	mov.w	r9, #0
 800a26c:	e7de      	b.n	800a22c <_printf_float+0x16c>
 800a26e:	b913      	cbnz	r3, 800a276 <_printf_float+0x1b6>
 800a270:	6822      	ldr	r2, [r4, #0]
 800a272:	07d2      	lsls	r2, r2, #31
 800a274:	d501      	bpl.n	800a27a <_printf_float+0x1ba>
 800a276:	3302      	adds	r3, #2
 800a278:	e7f4      	b.n	800a264 <_printf_float+0x1a4>
 800a27a:	2301      	movs	r3, #1
 800a27c:	e7f2      	b.n	800a264 <_printf_float+0x1a4>
 800a27e:	f04f 0b67 	mov.w	fp, #103	; 0x67
 800a282:	9b0a      	ldr	r3, [sp, #40]	; 0x28
 800a284:	4299      	cmp	r1, r3
 800a286:	db05      	blt.n	800a294 <_printf_float+0x1d4>
 800a288:	6823      	ldr	r3, [r4, #0]
 800a28a:	6121      	str	r1, [r4, #16]
 800a28c:	07d8      	lsls	r0, r3, #31
 800a28e:	d5ea      	bpl.n	800a266 <_printf_float+0x1a6>
 800a290:	1c4b      	adds	r3, r1, #1
 800a292:	e7e7      	b.n	800a264 <_printf_float+0x1a4>
 800a294:	2900      	cmp	r1, #0
 800a296:	bfd4      	ite	le
 800a298:	f1c1 0202 	rsble	r2, r1, #2
 800a29c:	2201      	movgt	r2, #1
 800a29e:	4413      	add	r3, r2
 800a2a0:	e7e0      	b.n	800a264 <_printf_float+0x1a4>
 800a2a2:	6823      	ldr	r3, [r4, #0]
 800a2a4:	055a      	lsls	r2, r3, #21
 800a2a6:	d407      	bmi.n	800a2b8 <_printf_float+0x1f8>
 800a2a8:	6923      	ldr	r3, [r4, #16]
 800a2aa:	4642      	mov	r2, r8
 800a2ac:	4631      	mov	r1, r6
 800a2ae:	4628      	mov	r0, r5
 800a2b0:	47b8      	blx	r7
 800a2b2:	3001      	adds	r0, #1
 800a2b4:	d12c      	bne.n	800a310 <_printf_float+0x250>
 800a2b6:	e764      	b.n	800a182 <_printf_float+0xc2>
 800a2b8:	f1bb 0f65 	cmp.w	fp, #101	; 0x65
 800a2bc:	f240 80e0 	bls.w	800a480 <_printf_float+0x3c0>
 800a2c0:	e9d4 0112 	ldrd	r0, r1, [r4, #72]	; 0x48
 800a2c4:	2200      	movs	r2, #0
 800a2c6:	2300      	movs	r3, #0
 800a2c8:	f7f6 fbfe 	bl	8000ac8 <__aeabi_dcmpeq>
 800a2cc:	2800      	cmp	r0, #0
 800a2ce:	d034      	beq.n	800a33a <_printf_float+0x27a>
 800a2d0:	4a37      	ldr	r2, [pc, #220]	; (800a3b0 <_printf_float+0x2f0>)
 800a2d2:	2301      	movs	r3, #1
 800a2d4:	4631      	mov	r1, r6
 800a2d6:	4628      	mov	r0, r5
 800a2d8:	47b8      	blx	r7
 800a2da:	3001      	adds	r0, #1
 800a2dc:	f43f af51 	beq.w	800a182 <_printf_float+0xc2>
 800a2e0:	e9dd 2309 	ldrd	r2, r3, [sp, #36]	; 0x24
 800a2e4:	429a      	cmp	r2, r3
 800a2e6:	db02      	blt.n	800a2ee <_printf_float+0x22e>
 800a2e8:	6823      	ldr	r3, [r4, #0]
 800a2ea:	07d8      	lsls	r0, r3, #31
 800a2ec:	d510      	bpl.n	800a310 <_printf_float+0x250>
 800a2ee:	ee18 3a10 	vmov	r3, s16
 800a2f2:	4652      	mov	r2, sl
 800a2f4:	4631      	mov	r1, r6
 800a2f6:	4628      	mov	r0, r5
 800a2f8:	47b8      	blx	r7
 800a2fa:	3001      	adds	r0, #1
 800a2fc:	f43f af41 	beq.w	800a182 <_printf_float+0xc2>
 800a300:	f04f 0800 	mov.w	r8, #0
 800a304:	f104 091a 	add.w	r9, r4, #26
 800a308:	9b0a      	ldr	r3, [sp, #40]	; 0x28
 800a30a:	3b01      	subs	r3, #1
 800a30c:	4543      	cmp	r3, r8
 800a30e:	dc09      	bgt.n	800a324 <_printf_float+0x264>
 800a310:	6823      	ldr	r3, [r4, #0]
 800a312:	079b      	lsls	r3, r3, #30
 800a314:	f100 8105 	bmi.w	800a522 <_printf_float+0x462>
 800a318:	68e0      	ldr	r0, [r4, #12]
 800a31a:	9b0b      	ldr	r3, [sp, #44]	; 0x2c
 800a31c:	4298      	cmp	r0, r3
 800a31e:	bfb8      	it	lt
 800a320:	4618      	movlt	r0, r3
 800a322:	e730      	b.n	800a186 <_printf_float+0xc6>
 800a324:	2301      	movs	r3, #1
 800a326:	464a      	mov	r2, r9
 800a328:	4631      	mov	r1, r6
 800a32a:	4628      	mov	r0, r5
 800a32c:	47b8      	blx	r7
 800a32e:	3001      	adds	r0, #1
 800a330:	f43f af27 	beq.w	800a182 <_printf_float+0xc2>
 800a334:	f108 0801 	add.w	r8, r8, #1
 800a338:	e7e6      	b.n	800a308 <_printf_float+0x248>
 800a33a:	9b09      	ldr	r3, [sp, #36]	; 0x24
 800a33c:	2b00      	cmp	r3, #0
 800a33e:	dc39      	bgt.n	800a3b4 <_printf_float+0x2f4>
 800a340:	4a1b      	ldr	r2, [pc, #108]	; (800a3b0 <_printf_float+0x2f0>)
 800a342:	2301      	movs	r3, #1
 800a344:	4631      	mov	r1, r6
 800a346:	4628      	mov	r0, r5
 800a348:	47b8      	blx	r7
 800a34a:	3001      	adds	r0, #1
 800a34c:	f43f af19 	beq.w	800a182 <_printf_float+0xc2>
 800a350:	e9dd 2309 	ldrd	r2, r3, [sp, #36]	; 0x24
 800a354:	4313      	orrs	r3, r2
 800a356:	d102      	bne.n	800a35e <_printf_float+0x29e>
 800a358:	6823      	ldr	r3, [r4, #0]
 800a35a:	07d9      	lsls	r1, r3, #31
 800a35c:	d5d8      	bpl.n	800a310 <_printf_float+0x250>
 800a35e:	ee18 3a10 	vmov	r3, s16
 800a362:	4652      	mov	r2, sl
 800a364:	4631      	mov	r1, r6
 800a366:	4628      	mov	r0, r5
 800a368:	47b8      	blx	r7
 800a36a:	3001      	adds	r0, #1
 800a36c:	f43f af09 	beq.w	800a182 <_printf_float+0xc2>
 800a370:	f04f 0900 	mov.w	r9, #0
 800a374:	f104 0a1a 	add.w	sl, r4, #26
 800a378:	9b09      	ldr	r3, [sp, #36]	; 0x24
 800a37a:	425b      	negs	r3, r3
 800a37c:	454b      	cmp	r3, r9
 800a37e:	dc01      	bgt.n	800a384 <_printf_float+0x2c4>
 800a380:	9b0a      	ldr	r3, [sp, #40]	; 0x28
 800a382:	e792      	b.n	800a2aa <_printf_float+0x1ea>
 800a384:	2301      	movs	r3, #1
 800a386:	4652      	mov	r2, sl
 800a388:	4631      	mov	r1, r6
 800a38a:	4628      	mov	r0, r5
 800a38c:	47b8      	blx	r7
 800a38e:	3001      	adds	r0, #1
 800a390:	f43f aef7 	beq.w	800a182 <_printf_float+0xc2>
 800a394:	f109 0901 	add.w	r9, r9, #1
 800a398:	e7ee      	b.n	800a378 <_printf_float+0x2b8>
 800a39a:	bf00      	nop
 800a39c:	7fefffff 	.word	0x7fefffff
 800a3a0:	0800fe94 	.word	0x0800fe94
 800a3a4:	0800fe98 	.word	0x0800fe98
 800a3a8:	0800fea0 	.word	0x0800fea0
 800a3ac:	0800fe9c 	.word	0x0800fe9c
 800a3b0:	0800fea4 	.word	0x0800fea4
 800a3b4:	9a0a      	ldr	r2, [sp, #40]	; 0x28
 800a3b6:	6da3      	ldr	r3, [r4, #88]	; 0x58
 800a3b8:	429a      	cmp	r2, r3
 800a3ba:	bfa8      	it	ge
 800a3bc:	461a      	movge	r2, r3
 800a3be:	2a00      	cmp	r2, #0
 800a3c0:	4691      	mov	r9, r2
 800a3c2:	dc37      	bgt.n	800a434 <_printf_float+0x374>
 800a3c4:	f04f 0b00 	mov.w	fp, #0
 800a3c8:	ea29 79e9 	bic.w	r9, r9, r9, asr #31
 800a3cc:	f104 021a 	add.w	r2, r4, #26
 800a3d0:	6da3      	ldr	r3, [r4, #88]	; 0x58
 800a3d2:	9305      	str	r3, [sp, #20]
 800a3d4:	eba3 0309 	sub.w	r3, r3, r9
 800a3d8:	455b      	cmp	r3, fp
 800a3da:	dc33      	bgt.n	800a444 <_printf_float+0x384>
 800a3dc:	e9dd 2309 	ldrd	r2, r3, [sp, #36]	; 0x24
 800a3e0:	429a      	cmp	r2, r3
 800a3e2:	db3b      	blt.n	800a45c <_printf_float+0x39c>
 800a3e4:	6823      	ldr	r3, [r4, #0]
 800a3e6:	07da      	lsls	r2, r3, #31
 800a3e8:	d438      	bmi.n	800a45c <_printf_float+0x39c>
 800a3ea:	9a0a      	ldr	r2, [sp, #40]	; 0x28
 800a3ec:	9b05      	ldr	r3, [sp, #20]
 800a3ee:	9909      	ldr	r1, [sp, #36]	; 0x24
 800a3f0:	1ad3      	subs	r3, r2, r3
 800a3f2:	eba2 0901 	sub.w	r9, r2, r1
 800a3f6:	4599      	cmp	r9, r3
 800a3f8:	bfa8      	it	ge
 800a3fa:	4699      	movge	r9, r3
 800a3fc:	f1b9 0f00 	cmp.w	r9, #0
 800a400:	dc35      	bgt.n	800a46e <_printf_float+0x3ae>
 800a402:	f04f 0800 	mov.w	r8, #0
 800a406:	ea29 79e9 	bic.w	r9, r9, r9, asr #31
 800a40a:	f104 0a1a 	add.w	sl, r4, #26
 800a40e:	e9dd 2309 	ldrd	r2, r3, [sp, #36]	; 0x24
 800a412:	1a9b      	subs	r3, r3, r2
 800a414:	eba3 0309 	sub.w	r3, r3, r9
 800a418:	4543      	cmp	r3, r8
 800a41a:	f77f af79 	ble.w	800a310 <_printf_float+0x250>
 800a41e:	2301      	movs	r3, #1
 800a420:	4652      	mov	r2, sl
 800a422:	4631      	mov	r1, r6
 800a424:	4628      	mov	r0, r5
 800a426:	47b8      	blx	r7
 800a428:	3001      	adds	r0, #1
 800a42a:	f43f aeaa 	beq.w	800a182 <_printf_float+0xc2>
 800a42e:	f108 0801 	add.w	r8, r8, #1
 800a432:	e7ec      	b.n	800a40e <_printf_float+0x34e>
 800a434:	4613      	mov	r3, r2
 800a436:	4631      	mov	r1, r6
 800a438:	4642      	mov	r2, r8
 800a43a:	4628      	mov	r0, r5
 800a43c:	47b8      	blx	r7
 800a43e:	3001      	adds	r0, #1
 800a440:	d1c0      	bne.n	800a3c4 <_printf_float+0x304>
 800a442:	e69e      	b.n	800a182 <_printf_float+0xc2>
 800a444:	2301      	movs	r3, #1
 800a446:	4631      	mov	r1, r6
 800a448:	4628      	mov	r0, r5
 800a44a:	9205      	str	r2, [sp, #20]
 800a44c:	47b8      	blx	r7
 800a44e:	3001      	adds	r0, #1
 800a450:	f43f ae97 	beq.w	800a182 <_printf_float+0xc2>
 800a454:	9a05      	ldr	r2, [sp, #20]
 800a456:	f10b 0b01 	add.w	fp, fp, #1
 800a45a:	e7b9      	b.n	800a3d0 <_printf_float+0x310>
 800a45c:	ee18 3a10 	vmov	r3, s16
 800a460:	4652      	mov	r2, sl
 800a462:	4631      	mov	r1, r6
 800a464:	4628      	mov	r0, r5
 800a466:	47b8      	blx	r7
 800a468:	3001      	adds	r0, #1
 800a46a:	d1be      	bne.n	800a3ea <_printf_float+0x32a>
 800a46c:	e689      	b.n	800a182 <_printf_float+0xc2>
 800a46e:	9a05      	ldr	r2, [sp, #20]
 800a470:	464b      	mov	r3, r9
 800a472:	4442      	add	r2, r8
 800a474:	4631      	mov	r1, r6
 800a476:	4628      	mov	r0, r5
 800a478:	47b8      	blx	r7
 800a47a:	3001      	adds	r0, #1
 800a47c:	d1c1      	bne.n	800a402 <_printf_float+0x342>
 800a47e:	e680      	b.n	800a182 <_printf_float+0xc2>
 800a480:	9a0a      	ldr	r2, [sp, #40]	; 0x28
 800a482:	2a01      	cmp	r2, #1
 800a484:	dc01      	bgt.n	800a48a <_printf_float+0x3ca>
 800a486:	07db      	lsls	r3, r3, #31
 800a488:	d538      	bpl.n	800a4fc <_printf_float+0x43c>
 800a48a:	2301      	movs	r3, #1
 800a48c:	4642      	mov	r2, r8
 800a48e:	4631      	mov	r1, r6
 800a490:	4628      	mov	r0, r5
 800a492:	47b8      	blx	r7
 800a494:	3001      	adds	r0, #1
 800a496:	f43f ae74 	beq.w	800a182 <_printf_float+0xc2>
 800a49a:	ee18 3a10 	vmov	r3, s16
 800a49e:	4652      	mov	r2, sl
 800a4a0:	4631      	mov	r1, r6
 800a4a2:	4628      	mov	r0, r5
 800a4a4:	47b8      	blx	r7
 800a4a6:	3001      	adds	r0, #1
 800a4a8:	f43f ae6b 	beq.w	800a182 <_printf_float+0xc2>
 800a4ac:	e9d4 0112 	ldrd	r0, r1, [r4, #72]	; 0x48
 800a4b0:	2200      	movs	r2, #0
 800a4b2:	2300      	movs	r3, #0
 800a4b4:	f7f6 fb08 	bl	8000ac8 <__aeabi_dcmpeq>
 800a4b8:	b9d8      	cbnz	r0, 800a4f2 <_printf_float+0x432>
 800a4ba:	9b0a      	ldr	r3, [sp, #40]	; 0x28
 800a4bc:	f108 0201 	add.w	r2, r8, #1
 800a4c0:	3b01      	subs	r3, #1
 800a4c2:	4631      	mov	r1, r6
 800a4c4:	4628      	mov	r0, r5
 800a4c6:	47b8      	blx	r7
 800a4c8:	3001      	adds	r0, #1
 800a4ca:	d10e      	bne.n	800a4ea <_printf_float+0x42a>
 800a4cc:	e659      	b.n	800a182 <_printf_float+0xc2>
 800a4ce:	2301      	movs	r3, #1
 800a4d0:	4652      	mov	r2, sl
 800a4d2:	4631      	mov	r1, r6
 800a4d4:	4628      	mov	r0, r5
 800a4d6:	47b8      	blx	r7
 800a4d8:	3001      	adds	r0, #1
 800a4da:	f43f ae52 	beq.w	800a182 <_printf_float+0xc2>
 800a4de:	f108 0801 	add.w	r8, r8, #1
 800a4e2:	9b0a      	ldr	r3, [sp, #40]	; 0x28
 800a4e4:	3b01      	subs	r3, #1
 800a4e6:	4543      	cmp	r3, r8
 800a4e8:	dcf1      	bgt.n	800a4ce <_printf_float+0x40e>
 800a4ea:	464b      	mov	r3, r9
 800a4ec:	f104 0250 	add.w	r2, r4, #80	; 0x50
 800a4f0:	e6dc      	b.n	800a2ac <_printf_float+0x1ec>
 800a4f2:	f04f 0800 	mov.w	r8, #0
 800a4f6:	f104 0a1a 	add.w	sl, r4, #26
 800a4fa:	e7f2      	b.n	800a4e2 <_printf_float+0x422>
 800a4fc:	2301      	movs	r3, #1
 800a4fe:	4642      	mov	r2, r8
 800a500:	e7df      	b.n	800a4c2 <_printf_float+0x402>
 800a502:	2301      	movs	r3, #1
 800a504:	464a      	mov	r2, r9
 800a506:	4631      	mov	r1, r6
 800a508:	4628      	mov	r0, r5
 800a50a:	47b8      	blx	r7
 800a50c:	3001      	adds	r0, #1
 800a50e:	f43f ae38 	beq.w	800a182 <_printf_float+0xc2>
 800a512:	f108 0801 	add.w	r8, r8, #1
 800a516:	68e3      	ldr	r3, [r4, #12]
 800a518:	990b      	ldr	r1, [sp, #44]	; 0x2c
 800a51a:	1a5b      	subs	r3, r3, r1
 800a51c:	4543      	cmp	r3, r8
 800a51e:	dcf0      	bgt.n	800a502 <_printf_float+0x442>
 800a520:	e6fa      	b.n	800a318 <_printf_float+0x258>
 800a522:	f04f 0800 	mov.w	r8, #0
 800a526:	f104 0919 	add.w	r9, r4, #25
 800a52a:	e7f4      	b.n	800a516 <_printf_float+0x456>

0800a52c <_printf_common>:
 800a52c:	e92d 47f0 	stmdb	sp!, {r4, r5, r6, r7, r8, r9, sl, lr}
 800a530:	4616      	mov	r6, r2
 800a532:	4699      	mov	r9, r3
 800a534:	688a      	ldr	r2, [r1, #8]
 800a536:	690b      	ldr	r3, [r1, #16]
 800a538:	f8dd 8020 	ldr.w	r8, [sp, #32]
 800a53c:	4293      	cmp	r3, r2
 800a53e:	bfb8      	it	lt
 800a540:	4613      	movlt	r3, r2
 800a542:	6033      	str	r3, [r6, #0]
 800a544:	f891 2043 	ldrb.w	r2, [r1, #67]	; 0x43
 800a548:	4607      	mov	r7, r0
 800a54a:	460c      	mov	r4, r1
 800a54c:	b10a      	cbz	r2, 800a552 <_printf_common+0x26>
 800a54e:	3301      	adds	r3, #1
 800a550:	6033      	str	r3, [r6, #0]
 800a552:	6823      	ldr	r3, [r4, #0]
 800a554:	0699      	lsls	r1, r3, #26
 800a556:	bf42      	ittt	mi
 800a558:	6833      	ldrmi	r3, [r6, #0]
 800a55a:	3302      	addmi	r3, #2
 800a55c:	6033      	strmi	r3, [r6, #0]
 800a55e:	6825      	ldr	r5, [r4, #0]
 800a560:	f015 0506 	ands.w	r5, r5, #6
 800a564:	d106      	bne.n	800a574 <_printf_common+0x48>
 800a566:	f104 0a19 	add.w	sl, r4, #25
 800a56a:	68e3      	ldr	r3, [r4, #12]
 800a56c:	6832      	ldr	r2, [r6, #0]
 800a56e:	1a9b      	subs	r3, r3, r2
 800a570:	42ab      	cmp	r3, r5
 800a572:	dc26      	bgt.n	800a5c2 <_printf_common+0x96>
 800a574:	f894 2043 	ldrb.w	r2, [r4, #67]	; 0x43
 800a578:	1e13      	subs	r3, r2, #0
 800a57a:	6822      	ldr	r2, [r4, #0]
 800a57c:	bf18      	it	ne
 800a57e:	2301      	movne	r3, #1
 800a580:	0692      	lsls	r2, r2, #26
 800a582:	d42b      	bmi.n	800a5dc <_printf_common+0xb0>
 800a584:	f104 0243 	add.w	r2, r4, #67	; 0x43
 800a588:	4649      	mov	r1, r9
 800a58a:	4638      	mov	r0, r7
 800a58c:	47c0      	blx	r8
 800a58e:	3001      	adds	r0, #1
 800a590:	d01e      	beq.n	800a5d0 <_printf_common+0xa4>
 800a592:	6823      	ldr	r3, [r4, #0]
 800a594:	68e5      	ldr	r5, [r4, #12]
 800a596:	6832      	ldr	r2, [r6, #0]
 800a598:	f003 0306 	and.w	r3, r3, #6
 800a59c:	2b04      	cmp	r3, #4
 800a59e:	bf08      	it	eq
 800a5a0:	1aad      	subeq	r5, r5, r2
 800a5a2:	68a3      	ldr	r3, [r4, #8]
 800a5a4:	6922      	ldr	r2, [r4, #16]
 800a5a6:	bf0c      	ite	eq
 800a5a8:	ea25 75e5 	biceq.w	r5, r5, r5, asr #31
 800a5ac:	2500      	movne	r5, #0
 800a5ae:	4293      	cmp	r3, r2
 800a5b0:	bfc4      	itt	gt
 800a5b2:	1a9b      	subgt	r3, r3, r2
 800a5b4:	18ed      	addgt	r5, r5, r3
 800a5b6:	2600      	movs	r6, #0
 800a5b8:	341a      	adds	r4, #26
 800a5ba:	42b5      	cmp	r5, r6
 800a5bc:	d11a      	bne.n	800a5f4 <_printf_common+0xc8>
 800a5be:	2000      	movs	r0, #0
 800a5c0:	e008      	b.n	800a5d4 <_printf_common+0xa8>
 800a5c2:	2301      	movs	r3, #1
 800a5c4:	4652      	mov	r2, sl
 800a5c6:	4649      	mov	r1, r9
 800a5c8:	4638      	mov	r0, r7
 800a5ca:	47c0      	blx	r8
 800a5cc:	3001      	adds	r0, #1
 800a5ce:	d103      	bne.n	800a5d8 <_printf_common+0xac>
 800a5d0:	f04f 30ff 	mov.w	r0, #4294967295
 800a5d4:	e8bd 87f0 	ldmia.w	sp!, {r4, r5, r6, r7, r8, r9, sl, pc}
 800a5d8:	3501      	adds	r5, #1
 800a5da:	e7c6      	b.n	800a56a <_printf_common+0x3e>
 800a5dc:	18e1      	adds	r1, r4, r3
 800a5de:	1c5a      	adds	r2, r3, #1
 800a5e0:	2030      	movs	r0, #48	; 0x30
 800a5e2:	f881 0043 	strb.w	r0, [r1, #67]	; 0x43
 800a5e6:	4422      	add	r2, r4
 800a5e8:	f894 1045 	ldrb.w	r1, [r4, #69]	; 0x45
 800a5ec:	f882 1043 	strb.w	r1, [r2, #67]	; 0x43
 800a5f0:	3302      	adds	r3, #2
 800a5f2:	e7c7      	b.n	800a584 <_printf_common+0x58>
 800a5f4:	2301      	movs	r3, #1
 800a5f6:	4622      	mov	r2, r4
 800a5f8:	4649      	mov	r1, r9
 800a5fa:	4638      	mov	r0, r7
 800a5fc:	47c0      	blx	r8
 800a5fe:	3001      	adds	r0, #1
 800a600:	d0e6      	beq.n	800a5d0 <_printf_common+0xa4>
 800a602:	3601      	adds	r6, #1
 800a604:	e7d9      	b.n	800a5ba <_printf_common+0x8e>
	...

0800a608 <_printf_i>:
 800a608:	e92d 47ff 	stmdb	sp!, {r0, r1, r2, r3, r4, r5, r6, r7, r8, r9, sl, lr}
 800a60c:	460c      	mov	r4, r1
 800a60e:	4691      	mov	r9, r2
 800a610:	7e27      	ldrb	r7, [r4, #24]
 800a612:	990c      	ldr	r1, [sp, #48]	; 0x30
 800a614:	2f78      	cmp	r7, #120	; 0x78
 800a616:	4680      	mov	r8, r0
 800a618:	469a      	mov	sl, r3
 800a61a:	f104 0243 	add.w	r2, r4, #67	; 0x43
 800a61e:	d807      	bhi.n	800a630 <_printf_i+0x28>
 800a620:	2f62      	cmp	r7, #98	; 0x62
 800a622:	d80a      	bhi.n	800a63a <_printf_i+0x32>
 800a624:	2f00      	cmp	r7, #0
 800a626:	f000 80d8 	beq.w	800a7da <_printf_i+0x1d2>
 800a62a:	2f58      	cmp	r7, #88	; 0x58
 800a62c:	f000 80a3 	beq.w	800a776 <_printf_i+0x16e>
 800a630:	f104 0642 	add.w	r6, r4, #66	; 0x42
 800a634:	f884 7042 	strb.w	r7, [r4, #66]	; 0x42
 800a638:	e03a      	b.n	800a6b0 <_printf_i+0xa8>
 800a63a:	f1a7 0363 	sub.w	r3, r7, #99	; 0x63
 800a63e:	2b15      	cmp	r3, #21
 800a640:	d8f6      	bhi.n	800a630 <_printf_i+0x28>
 800a642:	a001      	add	r0, pc, #4	; (adr r0, 800a648 <_printf_i+0x40>)
 800a644:	f850 f023 	ldr.w	pc, [r0, r3, lsl #2]
 800a648:	0800a6a1 	.word	0x0800a6a1
 800a64c:	0800a6b5 	.word	0x0800a6b5
 800a650:	0800a631 	.word	0x0800a631
 800a654:	0800a631 	.word	0x0800a631
 800a658:	0800a631 	.word	0x0800a631
 800a65c:	0800a631 	.word	0x0800a631
 800a660:	0800a6b5 	.word	0x0800a6b5
 800a664:	0800a631 	.word	0x0800a631
 800a668:	0800a631 	.word	0x0800a631
 800a66c:	0800a631 	.word	0x0800a631
 800a670:	0800a631 	.word	0x0800a631
 800a674:	0800a7c1 	.word	0x0800a7c1
 800a678:	0800a6e5 	.word	0x0800a6e5
 800a67c:	0800a7a3 	.word	0x0800a7a3
 800a680:	0800a631 	.word	0x0800a631
 800a684:	0800a631 	.word	0x0800a631
 800a688:	0800a7e3 	.word	0x0800a7e3
 800a68c:	0800a631 	.word	0x0800a631
 800a690:	0800a6e5 	.word	0x0800a6e5
 800a694:	0800a631 	.word	0x0800a631
 800a698:	0800a631 	.word	0x0800a631
 800a69c:	0800a7ab 	.word	0x0800a7ab
 800a6a0:	680b      	ldr	r3, [r1, #0]
 800a6a2:	1d1a      	adds	r2, r3, #4
 800a6a4:	681b      	ldr	r3, [r3, #0]
 800a6a6:	600a      	str	r2, [r1, #0]
 800a6a8:	f104 0642 	add.w	r6, r4, #66	; 0x42
 800a6ac:	f884 3042 	strb.w	r3, [r4, #66]	; 0x42
 800a6b0:	2301      	movs	r3, #1
 800a6b2:	e0a3      	b.n	800a7fc <_printf_i+0x1f4>
 800a6b4:	6825      	ldr	r5, [r4, #0]
 800a6b6:	6808      	ldr	r0, [r1, #0]
 800a6b8:	062e      	lsls	r6, r5, #24
 800a6ba:	f100 0304 	add.w	r3, r0, #4
 800a6be:	d50a      	bpl.n	800a6d6 <_printf_i+0xce>
 800a6c0:	6805      	ldr	r5, [r0, #0]
 800a6c2:	600b      	str	r3, [r1, #0]
 800a6c4:	2d00      	cmp	r5, #0
 800a6c6:	da03      	bge.n	800a6d0 <_printf_i+0xc8>
 800a6c8:	232d      	movs	r3, #45	; 0x2d
 800a6ca:	426d      	negs	r5, r5
 800a6cc:	f884 3043 	strb.w	r3, [r4, #67]	; 0x43
 800a6d0:	485e      	ldr	r0, [pc, #376]	; (800a84c <_printf_i+0x244>)
 800a6d2:	230a      	movs	r3, #10
 800a6d4:	e019      	b.n	800a70a <_printf_i+0x102>
 800a6d6:	f015 0f40 	tst.w	r5, #64	; 0x40
 800a6da:	6805      	ldr	r5, [r0, #0]
 800a6dc:	600b      	str	r3, [r1, #0]
 800a6de:	bf18      	it	ne
 800a6e0:	b22d      	sxthne	r5, r5
 800a6e2:	e7ef      	b.n	800a6c4 <_printf_i+0xbc>
 800a6e4:	680b      	ldr	r3, [r1, #0]
 800a6e6:	6825      	ldr	r5, [r4, #0]
 800a6e8:	1d18      	adds	r0, r3, #4
 800a6ea:	6008      	str	r0, [r1, #0]
 800a6ec:	0628      	lsls	r0, r5, #24
 800a6ee:	d501      	bpl.n	800a6f4 <_printf_i+0xec>
 800a6f0:	681d      	ldr	r5, [r3, #0]
 800a6f2:	e002      	b.n	800a6fa <_printf_i+0xf2>
 800a6f4:	0669      	lsls	r1, r5, #25
 800a6f6:	d5fb      	bpl.n	800a6f0 <_printf_i+0xe8>
 800a6f8:	881d      	ldrh	r5, [r3, #0]
 800a6fa:	4854      	ldr	r0, [pc, #336]	; (800a84c <_printf_i+0x244>)
 800a6fc:	2f6f      	cmp	r7, #111	; 0x6f
 800a6fe:	bf0c      	ite	eq
 800a700:	2308      	moveq	r3, #8
 800a702:	230a      	movne	r3, #10
 800a704:	2100      	movs	r1, #0
 800a706:	f884 1043 	strb.w	r1, [r4, #67]	; 0x43
 800a70a:	6866      	ldr	r6, [r4, #4]
 800a70c:	60a6      	str	r6, [r4, #8]
 800a70e:	2e00      	cmp	r6, #0
 800a710:	bfa2      	ittt	ge
 800a712:	6821      	ldrge	r1, [r4, #0]
 800a714:	f021 0104 	bicge.w	r1, r1, #4
 800a718:	6021      	strge	r1, [r4, #0]
 800a71a:	b90d      	cbnz	r5, 800a720 <_printf_i+0x118>
 800a71c:	2e00      	cmp	r6, #0
 800a71e:	d04d      	beq.n	800a7bc <_printf_i+0x1b4>
 800a720:	4616      	mov	r6, r2
 800a722:	fbb5 f1f3 	udiv	r1, r5, r3
 800a726:	fb03 5711 	mls	r7, r3, r1, r5
 800a72a:	5dc7      	ldrb	r7, [r0, r7]
 800a72c:	f806 7d01 	strb.w	r7, [r6, #-1]!
 800a730:	462f      	mov	r7, r5
 800a732:	42bb      	cmp	r3, r7
 800a734:	460d      	mov	r5, r1
 800a736:	d9f4      	bls.n	800a722 <_printf_i+0x11a>
 800a738:	2b08      	cmp	r3, #8
 800a73a:	d10b      	bne.n	800a754 <_printf_i+0x14c>
 800a73c:	6823      	ldr	r3, [r4, #0]
 800a73e:	07df      	lsls	r7, r3, #31
 800a740:	d508      	bpl.n	800a754 <_printf_i+0x14c>
 800a742:	6923      	ldr	r3, [r4, #16]
 800a744:	6861      	ldr	r1, [r4, #4]
 800a746:	4299      	cmp	r1, r3
 800a748:	bfde      	ittt	le
 800a74a:	2330      	movle	r3, #48	; 0x30
 800a74c:	f806 3c01 	strble.w	r3, [r6, #-1]
 800a750:	f106 36ff 	addle.w	r6, r6, #4294967295
 800a754:	1b92      	subs	r2, r2, r6
 800a756:	6122      	str	r2, [r4, #16]
 800a758:	f8cd a000 	str.w	sl, [sp]
 800a75c:	464b      	mov	r3, r9
 800a75e:	aa03      	add	r2, sp, #12
 800a760:	4621      	mov	r1, r4
 800a762:	4640      	mov	r0, r8
 800a764:	f7ff fee2 	bl	800a52c <_printf_common>
 800a768:	3001      	adds	r0, #1
 800a76a:	d14c      	bne.n	800a806 <_printf_i+0x1fe>
 800a76c:	f04f 30ff 	mov.w	r0, #4294967295
 800a770:	b004      	add	sp, #16
 800a772:	e8bd 87f0 	ldmia.w	sp!, {r4, r5, r6, r7, r8, r9, sl, pc}
 800a776:	4835      	ldr	r0, [pc, #212]	; (800a84c <_printf_i+0x244>)
 800a778:	f884 7045 	strb.w	r7, [r4, #69]	; 0x45
 800a77c:	6823      	ldr	r3, [r4, #0]
 800a77e:	680e      	ldr	r6, [r1, #0]
 800a780:	061f      	lsls	r7, r3, #24
 800a782:	f856 5b04 	ldr.w	r5, [r6], #4
 800a786:	600e      	str	r6, [r1, #0]
 800a788:	d514      	bpl.n	800a7b4 <_printf_i+0x1ac>
 800a78a:	07d9      	lsls	r1, r3, #31
 800a78c:	bf44      	itt	mi
 800a78e:	f043 0320 	orrmi.w	r3, r3, #32
 800a792:	6023      	strmi	r3, [r4, #0]
 800a794:	b91d      	cbnz	r5, 800a79e <_printf_i+0x196>
 800a796:	6823      	ldr	r3, [r4, #0]
 800a798:	f023 0320 	bic.w	r3, r3, #32
 800a79c:	6023      	str	r3, [r4, #0]
 800a79e:	2310      	movs	r3, #16
 800a7a0:	e7b0      	b.n	800a704 <_printf_i+0xfc>
 800a7a2:	6823      	ldr	r3, [r4, #0]
 800a7a4:	f043 0320 	orr.w	r3, r3, #32
 800a7a8:	6023      	str	r3, [r4, #0]
 800a7aa:	2378      	movs	r3, #120	; 0x78
 800a7ac:	4828      	ldr	r0, [pc, #160]	; (800a850 <_printf_i+0x248>)
 800a7ae:	f884 3045 	strb.w	r3, [r4, #69]	; 0x45
 800a7b2:	e7e3      	b.n	800a77c <_printf_i+0x174>
 800a7b4:	065e      	lsls	r6, r3, #25
 800a7b6:	bf48      	it	mi
 800a7b8:	b2ad      	uxthmi	r5, r5
 800a7ba:	e7e6      	b.n	800a78a <_printf_i+0x182>
 800a7bc:	4616      	mov	r6, r2
 800a7be:	e7bb      	b.n	800a738 <_printf_i+0x130>
 800a7c0:	680b      	ldr	r3, [r1, #0]
 800a7c2:	6826      	ldr	r6, [r4, #0]
 800a7c4:	6960      	ldr	r0, [r4, #20]
 800a7c6:	1d1d      	adds	r5, r3, #4
 800a7c8:	600d      	str	r5, [r1, #0]
 800a7ca:	0635      	lsls	r5, r6, #24
 800a7cc:	681b      	ldr	r3, [r3, #0]
 800a7ce:	d501      	bpl.n	800a7d4 <_printf_i+0x1cc>
 800a7d0:	6018      	str	r0, [r3, #0]
 800a7d2:	e002      	b.n	800a7da <_printf_i+0x1d2>
 800a7d4:	0671      	lsls	r1, r6, #25
 800a7d6:	d5fb      	bpl.n	800a7d0 <_printf_i+0x1c8>
 800a7d8:	8018      	strh	r0, [r3, #0]
 800a7da:	2300      	movs	r3, #0
 800a7dc:	6123      	str	r3, [r4, #16]
 800a7de:	4616      	mov	r6, r2
 800a7e0:	e7ba      	b.n	800a758 <_printf_i+0x150>
 800a7e2:	680b      	ldr	r3, [r1, #0]
 800a7e4:	1d1a      	adds	r2, r3, #4
 800a7e6:	600a      	str	r2, [r1, #0]
 800a7e8:	681e      	ldr	r6, [r3, #0]
 800a7ea:	6862      	ldr	r2, [r4, #4]
 800a7ec:	2100      	movs	r1, #0
 800a7ee:	4630      	mov	r0, r6
 800a7f0:	f7f5 fcf6 	bl	80001e0 <memchr>
 800a7f4:	b108      	cbz	r0, 800a7fa <_printf_i+0x1f2>
 800a7f6:	1b80      	subs	r0, r0, r6
 800a7f8:	6060      	str	r0, [r4, #4]
 800a7fa:	6863      	ldr	r3, [r4, #4]
 800a7fc:	6123      	str	r3, [r4, #16]
 800a7fe:	2300      	movs	r3, #0
 800a800:	f884 3043 	strb.w	r3, [r4, #67]	; 0x43
 800a804:	e7a8      	b.n	800a758 <_printf_i+0x150>
 800a806:	6923      	ldr	r3, [r4, #16]
 800a808:	4632      	mov	r2, r6
 800a80a:	4649      	mov	r1, r9
 800a80c:	4640      	mov	r0, r8
 800a80e:	47d0      	blx	sl
 800a810:	3001      	adds	r0, #1
 800a812:	d0ab      	beq.n	800a76c <_printf_i+0x164>
 800a814:	6823      	ldr	r3, [r4, #0]
 800a816:	079b      	lsls	r3, r3, #30
 800a818:	d413      	bmi.n	800a842 <_printf_i+0x23a>
 800a81a:	68e0      	ldr	r0, [r4, #12]
 800a81c:	9b03      	ldr	r3, [sp, #12]
 800a81e:	4298      	cmp	r0, r3
 800a820:	bfb8      	it	lt
 800a822:	4618      	movlt	r0, r3
 800a824:	e7a4      	b.n	800a770 <_printf_i+0x168>
 800a826:	2301      	movs	r3, #1
 800a828:	4632      	mov	r2, r6
 800a82a:	4649      	mov	r1, r9
 800a82c:	4640      	mov	r0, r8
 800a82e:	47d0      	blx	sl
 800a830:	3001      	adds	r0, #1
 800a832:	d09b      	beq.n	800a76c <_printf_i+0x164>
 800a834:	3501      	adds	r5, #1
 800a836:	68e3      	ldr	r3, [r4, #12]
 800a838:	9903      	ldr	r1, [sp, #12]
 800a83a:	1a5b      	subs	r3, r3, r1
 800a83c:	42ab      	cmp	r3, r5
 800a83e:	dcf2      	bgt.n	800a826 <_printf_i+0x21e>
 800a840:	e7eb      	b.n	800a81a <_printf_i+0x212>
 800a842:	2500      	movs	r5, #0
 800a844:	f104 0619 	add.w	r6, r4, #25
 800a848:	e7f5      	b.n	800a836 <_printf_i+0x22e>
 800a84a:	bf00      	nop
 800a84c:	0800fea6 	.word	0x0800fea6
 800a850:	0800feb7 	.word	0x0800feb7

0800a854 <_scanf_float>:
 800a854:	e92d 4ff0 	stmdb	sp!, {r4, r5, r6, r7, r8, r9, sl, fp, lr}
 800a858:	b087      	sub	sp, #28
 800a85a:	4617      	mov	r7, r2
 800a85c:	9303      	str	r3, [sp, #12]
 800a85e:	688b      	ldr	r3, [r1, #8]
 800a860:	1e5a      	subs	r2, r3, #1
 800a862:	f5b2 7fae 	cmp.w	r2, #348	; 0x15c
 800a866:	bf83      	ittte	hi
 800a868:	f46f 75ae 	mvnhi.w	r5, #348	; 0x15c
 800a86c:	195b      	addhi	r3, r3, r5
 800a86e:	9302      	strhi	r3, [sp, #8]
 800a870:	2300      	movls	r3, #0
 800a872:	bf86      	itte	hi
 800a874:	f240 135d 	movwhi	r3, #349	; 0x15d
 800a878:	608b      	strhi	r3, [r1, #8]
 800a87a:	9302      	strls	r3, [sp, #8]
 800a87c:	680b      	ldr	r3, [r1, #0]
 800a87e:	468b      	mov	fp, r1
 800a880:	2500      	movs	r5, #0
 800a882:	f443 63f0 	orr.w	r3, r3, #1920	; 0x780
 800a886:	f84b 3b1c 	str.w	r3, [fp], #28
 800a88a:	e9cd 5504 	strd	r5, r5, [sp, #16]
 800a88e:	4680      	mov	r8, r0
 800a890:	460c      	mov	r4, r1
 800a892:	465e      	mov	r6, fp
 800a894:	46aa      	mov	sl, r5
 800a896:	46a9      	mov	r9, r5
 800a898:	9501      	str	r5, [sp, #4]
 800a89a:	68a2      	ldr	r2, [r4, #8]
 800a89c:	b152      	cbz	r2, 800a8b4 <_scanf_float+0x60>
 800a89e:	683b      	ldr	r3, [r7, #0]
 800a8a0:	781b      	ldrb	r3, [r3, #0]
 800a8a2:	2b4e      	cmp	r3, #78	; 0x4e
 800a8a4:	d864      	bhi.n	800a970 <_scanf_float+0x11c>
 800a8a6:	2b40      	cmp	r3, #64	; 0x40
 800a8a8:	d83c      	bhi.n	800a924 <_scanf_float+0xd0>
 800a8aa:	f1a3 012b 	sub.w	r1, r3, #43	; 0x2b
 800a8ae:	b2c8      	uxtb	r0, r1
 800a8b0:	280e      	cmp	r0, #14
 800a8b2:	d93a      	bls.n	800a92a <_scanf_float+0xd6>
 800a8b4:	f1b9 0f00 	cmp.w	r9, #0
 800a8b8:	d003      	beq.n	800a8c2 <_scanf_float+0x6e>
 800a8ba:	6823      	ldr	r3, [r4, #0]
 800a8bc:	f423 7380 	bic.w	r3, r3, #256	; 0x100
 800a8c0:	6023      	str	r3, [r4, #0]
 800a8c2:	f10a 3aff 	add.w	sl, sl, #4294967295
 800a8c6:	f1ba 0f01 	cmp.w	sl, #1
 800a8ca:	f200 8113 	bhi.w	800aaf4 <_scanf_float+0x2a0>
 800a8ce:	455e      	cmp	r6, fp
 800a8d0:	f200 8105 	bhi.w	800aade <_scanf_float+0x28a>
 800a8d4:	2501      	movs	r5, #1
 800a8d6:	4628      	mov	r0, r5
 800a8d8:	b007      	add	sp, #28
 800a8da:	e8bd 8ff0 	ldmia.w	sp!, {r4, r5, r6, r7, r8, r9, sl, fp, pc}
 800a8de:	f1a3 0261 	sub.w	r2, r3, #97	; 0x61
 800a8e2:	2a0d      	cmp	r2, #13
 800a8e4:	d8e6      	bhi.n	800a8b4 <_scanf_float+0x60>
 800a8e6:	a101      	add	r1, pc, #4	; (adr r1, 800a8ec <_scanf_float+0x98>)
 800a8e8:	f851 f022 	ldr.w	pc, [r1, r2, lsl #2]
 800a8ec:	0800aa2b 	.word	0x0800aa2b
 800a8f0:	0800a8b5 	.word	0x0800a8b5
 800a8f4:	0800a8b5 	.word	0x0800a8b5
 800a8f8:	0800a8b5 	.word	0x0800a8b5
 800a8fc:	0800aa8b 	.word	0x0800aa8b
 800a900:	0800aa63 	.word	0x0800aa63
 800a904:	0800a8b5 	.word	0x0800a8b5
 800a908:	0800a8b5 	.word	0x0800a8b5
 800a90c:	0800aa39 	.word	0x0800aa39
 800a910:	0800a8b5 	.word	0x0800a8b5
 800a914:	0800a8b5 	.word	0x0800a8b5
 800a918:	0800a8b5 	.word	0x0800a8b5
 800a91c:	0800a8b5 	.word	0x0800a8b5
 800a920:	0800a9f1 	.word	0x0800a9f1
 800a924:	f1a3 0241 	sub.w	r2, r3, #65	; 0x41
 800a928:	e7db      	b.n	800a8e2 <_scanf_float+0x8e>
 800a92a:	290e      	cmp	r1, #14
 800a92c:	d8c2      	bhi.n	800a8b4 <_scanf_float+0x60>
 800a92e:	a001      	add	r0, pc, #4	; (adr r0, 800a934 <_scanf_float+0xe0>)
 800a930:	f850 f021 	ldr.w	pc, [r0, r1, lsl #2]
 800a934:	0800a9e3 	.word	0x0800a9e3
 800a938:	0800a8b5 	.word	0x0800a8b5
 800a93c:	0800a9e3 	.word	0x0800a9e3
 800a940:	0800aa77 	.word	0x0800aa77
 800a944:	0800a8b5 	.word	0x0800a8b5
 800a948:	0800a991 	.word	0x0800a991
 800a94c:	0800a9cd 	.word	0x0800a9cd
 800a950:	0800a9cd 	.word	0x0800a9cd
 800a954:	0800a9cd 	.word	0x0800a9cd
 800a958:	0800a9cd 	.word	0x0800a9cd
 800a95c:	0800a9cd 	.word	0x0800a9cd
 800a960:	0800a9cd 	.word	0x0800a9cd
 800a964:	0800a9cd 	.word	0x0800a9cd
 800a968:	0800a9cd 	.word	0x0800a9cd
 800a96c:	0800a9cd 	.word	0x0800a9cd
 800a970:	2b6e      	cmp	r3, #110	; 0x6e
 800a972:	d809      	bhi.n	800a988 <_scanf_float+0x134>
 800a974:	2b60      	cmp	r3, #96	; 0x60
 800a976:	d8b2      	bhi.n	800a8de <_scanf_float+0x8a>
 800a978:	2b54      	cmp	r3, #84	; 0x54
 800a97a:	d077      	beq.n	800aa6c <_scanf_float+0x218>
 800a97c:	2b59      	cmp	r3, #89	; 0x59
 800a97e:	d199      	bne.n	800a8b4 <_scanf_float+0x60>
 800a980:	2d07      	cmp	r5, #7
 800a982:	d197      	bne.n	800a8b4 <_scanf_float+0x60>
 800a984:	2508      	movs	r5, #8
 800a986:	e029      	b.n	800a9dc <_scanf_float+0x188>
 800a988:	2b74      	cmp	r3, #116	; 0x74
 800a98a:	d06f      	beq.n	800aa6c <_scanf_float+0x218>
 800a98c:	2b79      	cmp	r3, #121	; 0x79
 800a98e:	e7f6      	b.n	800a97e <_scanf_float+0x12a>
 800a990:	6821      	ldr	r1, [r4, #0]
 800a992:	05c8      	lsls	r0, r1, #23
 800a994:	d51a      	bpl.n	800a9cc <_scanf_float+0x178>
 800a996:	9b02      	ldr	r3, [sp, #8]
 800a998:	f021 0180 	bic.w	r1, r1, #128	; 0x80
 800a99c:	6021      	str	r1, [r4, #0]
 800a99e:	f109 0901 	add.w	r9, r9, #1
 800a9a2:	b11b      	cbz	r3, 800a9ac <_scanf_float+0x158>
 800a9a4:	3b01      	subs	r3, #1
 800a9a6:	3201      	adds	r2, #1
 800a9a8:	9302      	str	r3, [sp, #8]
 800a9aa:	60a2      	str	r2, [r4, #8]
 800a9ac:	68a3      	ldr	r3, [r4, #8]
 800a9ae:	3b01      	subs	r3, #1
 800a9b0:	60a3      	str	r3, [r4, #8]
 800a9b2:	6923      	ldr	r3, [r4, #16]
 800a9b4:	3301      	adds	r3, #1
 800a9b6:	6123      	str	r3, [r4, #16]
 800a9b8:	687b      	ldr	r3, [r7, #4]
 800a9ba:	3b01      	subs	r3, #1
 800a9bc:	2b00      	cmp	r3, #0
 800a9be:	607b      	str	r3, [r7, #4]
 800a9c0:	f340 8084 	ble.w	800aacc <_scanf_float+0x278>
 800a9c4:	683b      	ldr	r3, [r7, #0]
 800a9c6:	3301      	adds	r3, #1
 800a9c8:	603b      	str	r3, [r7, #0]
 800a9ca:	e766      	b.n	800a89a <_scanf_float+0x46>
 800a9cc:	eb1a 0f05 	cmn.w	sl, r5
 800a9d0:	f47f af70 	bne.w	800a8b4 <_scanf_float+0x60>
 800a9d4:	6822      	ldr	r2, [r4, #0]
 800a9d6:	f422 72c0 	bic.w	r2, r2, #384	; 0x180
 800a9da:	6022      	str	r2, [r4, #0]
 800a9dc:	f806 3b01 	strb.w	r3, [r6], #1
 800a9e0:	e7e4      	b.n	800a9ac <_scanf_float+0x158>
 800a9e2:	6822      	ldr	r2, [r4, #0]
 800a9e4:	0610      	lsls	r0, r2, #24
 800a9e6:	f57f af65 	bpl.w	800a8b4 <_scanf_float+0x60>
 800a9ea:	f022 0280 	bic.w	r2, r2, #128	; 0x80
 800a9ee:	e7f4      	b.n	800a9da <_scanf_float+0x186>
 800a9f0:	f1ba 0f00 	cmp.w	sl, #0
 800a9f4:	d10e      	bne.n	800aa14 <_scanf_float+0x1c0>
 800a9f6:	f1b9 0f00 	cmp.w	r9, #0
 800a9fa:	d10e      	bne.n	800aa1a <_scanf_float+0x1c6>
 800a9fc:	6822      	ldr	r2, [r4, #0]
 800a9fe:	f402 61e0 	and.w	r1, r2, #1792	; 0x700
 800aa02:	f5b1 6fe0 	cmp.w	r1, #1792	; 0x700
 800aa06:	d108      	bne.n	800aa1a <_scanf_float+0x1c6>
 800aa08:	f422 62f0 	bic.w	r2, r2, #1920	; 0x780
 800aa0c:	6022      	str	r2, [r4, #0]
 800aa0e:	f04f 0a01 	mov.w	sl, #1
 800aa12:	e7e3      	b.n	800a9dc <_scanf_float+0x188>
 800aa14:	f1ba 0f02 	cmp.w	sl, #2
 800aa18:	d055      	beq.n	800aac6 <_scanf_float+0x272>
 800aa1a:	2d01      	cmp	r5, #1
 800aa1c:	d002      	beq.n	800aa24 <_scanf_float+0x1d0>
 800aa1e:	2d04      	cmp	r5, #4
 800aa20:	f47f af48 	bne.w	800a8b4 <_scanf_float+0x60>
 800aa24:	3501      	adds	r5, #1
 800aa26:	b2ed      	uxtb	r5, r5
 800aa28:	e7d8      	b.n	800a9dc <_scanf_float+0x188>
 800aa2a:	f1ba 0f01 	cmp.w	sl, #1
 800aa2e:	f47f af41 	bne.w	800a8b4 <_scanf_float+0x60>
 800aa32:	f04f 0a02 	mov.w	sl, #2
 800aa36:	e7d1      	b.n	800a9dc <_scanf_float+0x188>
 800aa38:	b97d      	cbnz	r5, 800aa5a <_scanf_float+0x206>
 800aa3a:	f1b9 0f00 	cmp.w	r9, #0
 800aa3e:	f47f af3c 	bne.w	800a8ba <_scanf_float+0x66>
 800aa42:	6822      	ldr	r2, [r4, #0]
 800aa44:	f402 61e0 	and.w	r1, r2, #1792	; 0x700
 800aa48:	f5b1 6fe0 	cmp.w	r1, #1792	; 0x700
 800aa4c:	f47f af39 	bne.w	800a8c2 <_scanf_float+0x6e>
 800aa50:	f422 62f0 	bic.w	r2, r2, #1920	; 0x780
 800aa54:	6022      	str	r2, [r4, #0]
 800aa56:	2501      	movs	r5, #1
 800aa58:	e7c0      	b.n	800a9dc <_scanf_float+0x188>
 800aa5a:	2d03      	cmp	r5, #3
 800aa5c:	d0e2      	beq.n	800aa24 <_scanf_float+0x1d0>
 800aa5e:	2d05      	cmp	r5, #5
 800aa60:	e7de      	b.n	800aa20 <_scanf_float+0x1cc>
 800aa62:	2d02      	cmp	r5, #2
 800aa64:	f47f af26 	bne.w	800a8b4 <_scanf_float+0x60>
 800aa68:	2503      	movs	r5, #3
 800aa6a:	e7b7      	b.n	800a9dc <_scanf_float+0x188>
 800aa6c:	2d06      	cmp	r5, #6
 800aa6e:	f47f af21 	bne.w	800a8b4 <_scanf_float+0x60>
 800aa72:	2507      	movs	r5, #7
 800aa74:	e7b2      	b.n	800a9dc <_scanf_float+0x188>
 800aa76:	6822      	ldr	r2, [r4, #0]
 800aa78:	0591      	lsls	r1, r2, #22
 800aa7a:	f57f af1b 	bpl.w	800a8b4 <_scanf_float+0x60>
 800aa7e:	f422 7220 	bic.w	r2, r2, #640	; 0x280
 800aa82:	6022      	str	r2, [r4, #0]
 800aa84:	f8cd 9004 	str.w	r9, [sp, #4]
 800aa88:	e7a8      	b.n	800a9dc <_scanf_float+0x188>
 800aa8a:	6822      	ldr	r2, [r4, #0]
 800aa8c:	f402 61a0 	and.w	r1, r2, #1280	; 0x500
 800aa90:	f5b1 6f80 	cmp.w	r1, #1024	; 0x400
 800aa94:	d006      	beq.n	800aaa4 <_scanf_float+0x250>
 800aa96:	0550      	lsls	r0, r2, #21
 800aa98:	f57f af0c 	bpl.w	800a8b4 <_scanf_float+0x60>
 800aa9c:	f1b9 0f00 	cmp.w	r9, #0
 800aaa0:	f43f af0f 	beq.w	800a8c2 <_scanf_float+0x6e>
 800aaa4:	0591      	lsls	r1, r2, #22
 800aaa6:	bf58      	it	pl
 800aaa8:	9901      	ldrpl	r1, [sp, #4]
 800aaaa:	f422 62f0 	bic.w	r2, r2, #1920	; 0x780
 800aaae:	bf58      	it	pl
 800aab0:	eba9 0101 	subpl.w	r1, r9, r1
 800aab4:	f442 72c0 	orr.w	r2, r2, #384	; 0x180
 800aab8:	bf58      	it	pl
 800aaba:	e9cd 1604 	strdpl	r1, r6, [sp, #16]
 800aabe:	6022      	str	r2, [r4, #0]
 800aac0:	f04f 0900 	mov.w	r9, #0
 800aac4:	e78a      	b.n	800a9dc <_scanf_float+0x188>
 800aac6:	f04f 0a03 	mov.w	sl, #3
 800aaca:	e787      	b.n	800a9dc <_scanf_float+0x188>
 800aacc:	f8d4 3180 	ldr.w	r3, [r4, #384]	; 0x180
 800aad0:	4639      	mov	r1, r7
 800aad2:	4640      	mov	r0, r8
 800aad4:	4798      	blx	r3
 800aad6:	2800      	cmp	r0, #0
 800aad8:	f43f aedf 	beq.w	800a89a <_scanf_float+0x46>
 800aadc:	e6ea      	b.n	800a8b4 <_scanf_float+0x60>
 800aade:	f8d4 317c 	ldr.w	r3, [r4, #380]	; 0x17c
 800aae2:	f816 1d01 	ldrb.w	r1, [r6, #-1]!
 800aae6:	463a      	mov	r2, r7
 800aae8:	4640      	mov	r0, r8
 800aaea:	4798      	blx	r3
 800aaec:	6923      	ldr	r3, [r4, #16]
 800aaee:	3b01      	subs	r3, #1
 800aaf0:	6123      	str	r3, [r4, #16]
 800aaf2:	e6ec      	b.n	800a8ce <_scanf_float+0x7a>
 800aaf4:	1e6b      	subs	r3, r5, #1
 800aaf6:	2b06      	cmp	r3, #6
 800aaf8:	d825      	bhi.n	800ab46 <_scanf_float+0x2f2>
 800aafa:	2d02      	cmp	r5, #2
 800aafc:	d836      	bhi.n	800ab6c <_scanf_float+0x318>
 800aafe:	455e      	cmp	r6, fp
 800ab00:	f67f aee8 	bls.w	800a8d4 <_scanf_float+0x80>
 800ab04:	f8d4 317c 	ldr.w	r3, [r4, #380]	; 0x17c
 800ab08:	f816 1d01 	ldrb.w	r1, [r6, #-1]!
 800ab0c:	463a      	mov	r2, r7
 800ab0e:	4640      	mov	r0, r8
 800ab10:	4798      	blx	r3
 800ab12:	6923      	ldr	r3, [r4, #16]
 800ab14:	3b01      	subs	r3, #1
 800ab16:	6123      	str	r3, [r4, #16]
 800ab18:	e7f1      	b.n	800aafe <_scanf_float+0x2aa>
 800ab1a:	9802      	ldr	r0, [sp, #8]
 800ab1c:	f8d4 317c 	ldr.w	r3, [r4, #380]	; 0x17c
 800ab20:	f810 1d01 	ldrb.w	r1, [r0, #-1]!
 800ab24:	9002      	str	r0, [sp, #8]
 800ab26:	463a      	mov	r2, r7
 800ab28:	4640      	mov	r0, r8
 800ab2a:	4798      	blx	r3
 800ab2c:	6923      	ldr	r3, [r4, #16]
 800ab2e:	3b01      	subs	r3, #1
 800ab30:	6123      	str	r3, [r4, #16]
 800ab32:	f10a 3aff 	add.w	sl, sl, #4294967295
 800ab36:	fa5f fa8a 	uxtb.w	sl, sl
 800ab3a:	f1ba 0f02 	cmp.w	sl, #2
 800ab3e:	d1ec      	bne.n	800ab1a <_scanf_float+0x2c6>
 800ab40:	3d03      	subs	r5, #3
 800ab42:	b2ed      	uxtb	r5, r5
 800ab44:	1b76      	subs	r6, r6, r5
 800ab46:	6823      	ldr	r3, [r4, #0]
 800ab48:	05da      	lsls	r2, r3, #23
 800ab4a:	d52f      	bpl.n	800abac <_scanf_float+0x358>
 800ab4c:	055b      	lsls	r3, r3, #21
 800ab4e:	d510      	bpl.n	800ab72 <_scanf_float+0x31e>
 800ab50:	455e      	cmp	r6, fp
 800ab52:	f67f aebf 	bls.w	800a8d4 <_scanf_float+0x80>
 800ab56:	f8d4 317c 	ldr.w	r3, [r4, #380]	; 0x17c
 800ab5a:	f816 1d01 	ldrb.w	r1, [r6, #-1]!
 800ab5e:	463a      	mov	r2, r7
 800ab60:	4640      	mov	r0, r8
 800ab62:	4798      	blx	r3
 800ab64:	6923      	ldr	r3, [r4, #16]
 800ab66:	3b01      	subs	r3, #1
 800ab68:	6123      	str	r3, [r4, #16]
 800ab6a:	e7f1      	b.n	800ab50 <_scanf_float+0x2fc>
 800ab6c:	46aa      	mov	sl, r5
 800ab6e:	9602      	str	r6, [sp, #8]
 800ab70:	e7df      	b.n	800ab32 <_scanf_float+0x2de>
 800ab72:	f816 1c01 	ldrb.w	r1, [r6, #-1]
 800ab76:	6923      	ldr	r3, [r4, #16]
 800ab78:	2965      	cmp	r1, #101	; 0x65
 800ab7a:	f103 33ff 	add.w	r3, r3, #4294967295
 800ab7e:	f106 35ff 	add.w	r5, r6, #4294967295
 800ab82:	6123      	str	r3, [r4, #16]
 800ab84:	d00c      	beq.n	800aba0 <_scanf_float+0x34c>
 800ab86:	2945      	cmp	r1, #69	; 0x45
 800ab88:	d00a      	beq.n	800aba0 <_scanf_float+0x34c>
 800ab8a:	f8d4 317c 	ldr.w	r3, [r4, #380]	; 0x17c
 800ab8e:	463a      	mov	r2, r7
 800ab90:	4640      	mov	r0, r8
 800ab92:	4798      	blx	r3
 800ab94:	6923      	ldr	r3, [r4, #16]
 800ab96:	f816 1c02 	ldrb.w	r1, [r6, #-2]
 800ab9a:	3b01      	subs	r3, #1
 800ab9c:	1eb5      	subs	r5, r6, #2
 800ab9e:	6123      	str	r3, [r4, #16]
 800aba0:	f8d4 317c 	ldr.w	r3, [r4, #380]	; 0x17c
 800aba4:	463a      	mov	r2, r7
 800aba6:	4640      	mov	r0, r8
 800aba8:	4798      	blx	r3
 800abaa:	462e      	mov	r6, r5
 800abac:	6825      	ldr	r5, [r4, #0]
 800abae:	f015 0510 	ands.w	r5, r5, #16
 800abb2:	d158      	bne.n	800ac66 <_scanf_float+0x412>
 800abb4:	7035      	strb	r5, [r6, #0]
 800abb6:	6823      	ldr	r3, [r4, #0]
 800abb8:	f403 63c0 	and.w	r3, r3, #1536	; 0x600
 800abbc:	f5b3 6f80 	cmp.w	r3, #1024	; 0x400
 800abc0:	d11c      	bne.n	800abfc <_scanf_float+0x3a8>
 800abc2:	9b01      	ldr	r3, [sp, #4]
 800abc4:	454b      	cmp	r3, r9
 800abc6:	eba3 0209 	sub.w	r2, r3, r9
 800abca:	d124      	bne.n	800ac16 <_scanf_float+0x3c2>
 800abcc:	2200      	movs	r2, #0
 800abce:	4659      	mov	r1, fp
 800abd0:	4640      	mov	r0, r8
 800abd2:	f000 ff5b 	bl	800ba8c <_strtod_r>
 800abd6:	9b03      	ldr	r3, [sp, #12]
 800abd8:	6821      	ldr	r1, [r4, #0]
 800abda:	681b      	ldr	r3, [r3, #0]
 800abdc:	f011 0f02 	tst.w	r1, #2
 800abe0:	ec57 6b10 	vmov	r6, r7, d0
 800abe4:	f103 0204 	add.w	r2, r3, #4
 800abe8:	d020      	beq.n	800ac2c <_scanf_float+0x3d8>
 800abea:	9903      	ldr	r1, [sp, #12]
 800abec:	600a      	str	r2, [r1, #0]
 800abee:	681b      	ldr	r3, [r3, #0]
 800abf0:	e9c3 6700 	strd	r6, r7, [r3]
 800abf4:	68e3      	ldr	r3, [r4, #12]
 800abf6:	3301      	adds	r3, #1
 800abf8:	60e3      	str	r3, [r4, #12]
 800abfa:	e66c      	b.n	800a8d6 <_scanf_float+0x82>
 800abfc:	9b04      	ldr	r3, [sp, #16]
 800abfe:	2b00      	cmp	r3, #0
 800ac00:	d0e4      	beq.n	800abcc <_scanf_float+0x378>
 800ac02:	9905      	ldr	r1, [sp, #20]
 800ac04:	230a      	movs	r3, #10
 800ac06:	462a      	mov	r2, r5
 800ac08:	3101      	adds	r1, #1
 800ac0a:	4640      	mov	r0, r8
 800ac0c:	f000 ffc8 	bl	800bba0 <_strtol_r>
 800ac10:	9b04      	ldr	r3, [sp, #16]
 800ac12:	9e05      	ldr	r6, [sp, #20]
 800ac14:	1ac2      	subs	r2, r0, r3
 800ac16:	f204 136f 	addw	r3, r4, #367	; 0x16f
 800ac1a:	429e      	cmp	r6, r3
 800ac1c:	bf28      	it	cs
 800ac1e:	f504 76b7 	addcs.w	r6, r4, #366	; 0x16e
 800ac22:	4912      	ldr	r1, [pc, #72]	; (800ac6c <_scanf_float+0x418>)
 800ac24:	4630      	mov	r0, r6
 800ac26:	f000 f8a5 	bl	800ad74 <siprintf>
 800ac2a:	e7cf      	b.n	800abcc <_scanf_float+0x378>
 800ac2c:	f011 0f04 	tst.w	r1, #4
 800ac30:	9903      	ldr	r1, [sp, #12]
 800ac32:	600a      	str	r2, [r1, #0]
 800ac34:	d1db      	bne.n	800abee <_scanf_float+0x39a>
 800ac36:	f8d3 8000 	ldr.w	r8, [r3]
 800ac3a:	ee10 2a10 	vmov	r2, s0
 800ac3e:	ee10 0a10 	vmov	r0, s0
 800ac42:	463b      	mov	r3, r7
 800ac44:	4639      	mov	r1, r7
 800ac46:	f7f5 ff71 	bl	8000b2c <__aeabi_dcmpun>
 800ac4a:	b128      	cbz	r0, 800ac58 <_scanf_float+0x404>
 800ac4c:	4808      	ldr	r0, [pc, #32]	; (800ac70 <_scanf_float+0x41c>)
 800ac4e:	f000 f88b 	bl	800ad68 <nanf>
 800ac52:	ed88 0a00 	vstr	s0, [r8]
 800ac56:	e7cd      	b.n	800abf4 <_scanf_float+0x3a0>
 800ac58:	4630      	mov	r0, r6
 800ac5a:	4639      	mov	r1, r7
 800ac5c:	f7f5 ffc4 	bl	8000be8 <__aeabi_d2f>
 800ac60:	f8c8 0000 	str.w	r0, [r8]
 800ac64:	e7c6      	b.n	800abf4 <_scanf_float+0x3a0>
 800ac66:	2500      	movs	r5, #0
 800ac68:	e635      	b.n	800a8d6 <_scanf_float+0x82>
 800ac6a:	bf00      	nop
 800ac6c:	0800fec8 	.word	0x0800fec8
 800ac70:	080102e0 	.word	0x080102e0

0800ac74 <cleanup_glue>:
 800ac74:	b538      	push	{r3, r4, r5, lr}
 800ac76:	460c      	mov	r4, r1
 800ac78:	6809      	ldr	r1, [r1, #0]
 800ac7a:	4605      	mov	r5, r0
 800ac7c:	b109      	cbz	r1, 800ac82 <cleanup_glue+0xe>
 800ac7e:	f7ff fff9 	bl	800ac74 <cleanup_glue>
 800ac82:	4621      	mov	r1, r4
 800ac84:	4628      	mov	r0, r5
 800ac86:	e8bd 4038 	ldmia.w	sp!, {r3, r4, r5, lr}
 800ac8a:	f002 bf5d 	b.w	800db48 <_free_r>
	...

0800ac90 <_reclaim_reent>:
 800ac90:	4b2c      	ldr	r3, [pc, #176]	; (800ad44 <_reclaim_reent+0xb4>)
 800ac92:	681b      	ldr	r3, [r3, #0]
 800ac94:	4283      	cmp	r3, r0
 800ac96:	b570      	push	{r4, r5, r6, lr}
 800ac98:	4604      	mov	r4, r0
 800ac9a:	d051      	beq.n	800ad40 <_reclaim_reent+0xb0>
 800ac9c:	6a43      	ldr	r3, [r0, #36]	; 0x24
 800ac9e:	b143      	cbz	r3, 800acb2 <_reclaim_reent+0x22>
 800aca0:	68db      	ldr	r3, [r3, #12]
 800aca2:	2b00      	cmp	r3, #0
 800aca4:	d14a      	bne.n	800ad3c <_reclaim_reent+0xac>
 800aca6:	6a63      	ldr	r3, [r4, #36]	; 0x24
 800aca8:	6819      	ldr	r1, [r3, #0]
 800acaa:	b111      	cbz	r1, 800acb2 <_reclaim_reent+0x22>
 800acac:	4620      	mov	r0, r4
 800acae:	f002 ff4b 	bl	800db48 <_free_r>
 800acb2:	6961      	ldr	r1, [r4, #20]
 800acb4:	b111      	cbz	r1, 800acbc <_reclaim_reent+0x2c>
 800acb6:	4620      	mov	r0, r4
 800acb8:	f002 ff46 	bl	800db48 <_free_r>
 800acbc:	6a61      	ldr	r1, [r4, #36]	; 0x24
 800acbe:	b111      	cbz	r1, 800acc6 <_reclaim_reent+0x36>
 800acc0:	4620      	mov	r0, r4
 800acc2:	f002 ff41 	bl	800db48 <_free_r>
 800acc6:	6ba1      	ldr	r1, [r4, #56]	; 0x38
 800acc8:	b111      	cbz	r1, 800acd0 <_reclaim_reent+0x40>
 800acca:	4620      	mov	r0, r4
 800accc:	f002 ff3c 	bl	800db48 <_free_r>
 800acd0:	6be1      	ldr	r1, [r4, #60]	; 0x3c
 800acd2:	b111      	cbz	r1, 800acda <_reclaim_reent+0x4a>
 800acd4:	4620      	mov	r0, r4
 800acd6:	f002 ff37 	bl	800db48 <_free_r>
 800acda:	6c21      	ldr	r1, [r4, #64]	; 0x40
 800acdc:	b111      	cbz	r1, 800ace4 <_reclaim_reent+0x54>
 800acde:	4620      	mov	r0, r4
 800ace0:	f002 ff32 	bl	800db48 <_free_r>
 800ace4:	6de1      	ldr	r1, [r4, #92]	; 0x5c
 800ace6:	b111      	cbz	r1, 800acee <_reclaim_reent+0x5e>
 800ace8:	4620      	mov	r0, r4
 800acea:	f002 ff2d 	bl	800db48 <_free_r>
 800acee:	6da1      	ldr	r1, [r4, #88]	; 0x58
 800acf0:	b111      	cbz	r1, 800acf8 <_reclaim_reent+0x68>
 800acf2:	4620      	mov	r0, r4
 800acf4:	f002 ff28 	bl	800db48 <_free_r>
 800acf8:	6b61      	ldr	r1, [r4, #52]	; 0x34
 800acfa:	b111      	cbz	r1, 800ad02 <_reclaim_reent+0x72>
 800acfc:	4620      	mov	r0, r4
 800acfe:	f002 ff23 	bl	800db48 <_free_r>
 800ad02:	69a3      	ldr	r3, [r4, #24]
 800ad04:	b1e3      	cbz	r3, 800ad40 <_reclaim_reent+0xb0>
 800ad06:	6aa3      	ldr	r3, [r4, #40]	; 0x28
 800ad08:	4620      	mov	r0, r4
 800ad0a:	4798      	blx	r3
 800ad0c:	6ca1      	ldr	r1, [r4, #72]	; 0x48
 800ad0e:	b1b9      	cbz	r1, 800ad40 <_reclaim_reent+0xb0>
 800ad10:	4620      	mov	r0, r4
 800ad12:	e8bd 4070 	ldmia.w	sp!, {r4, r5, r6, lr}
 800ad16:	f7ff bfad 	b.w	800ac74 <cleanup_glue>
 800ad1a:	5949      	ldr	r1, [r1, r5]
 800ad1c:	b941      	cbnz	r1, 800ad30 <_reclaim_reent+0xa0>
 800ad1e:	3504      	adds	r5, #4
 800ad20:	6a63      	ldr	r3, [r4, #36]	; 0x24
 800ad22:	2d80      	cmp	r5, #128	; 0x80
 800ad24:	68d9      	ldr	r1, [r3, #12]
 800ad26:	d1f8      	bne.n	800ad1a <_reclaim_reent+0x8a>
 800ad28:	4620      	mov	r0, r4
 800ad2a:	f002 ff0d 	bl	800db48 <_free_r>
 800ad2e:	e7ba      	b.n	800aca6 <_reclaim_reent+0x16>
 800ad30:	680e      	ldr	r6, [r1, #0]
 800ad32:	4620      	mov	r0, r4
 800ad34:	f002 ff08 	bl	800db48 <_free_r>
 800ad38:	4631      	mov	r1, r6
 800ad3a:	e7ef      	b.n	800ad1c <_reclaim_reent+0x8c>
 800ad3c:	2500      	movs	r5, #0
 800ad3e:	e7ef      	b.n	800ad20 <_reclaim_reent+0x90>
 800ad40:	bd70      	pop	{r4, r5, r6, pc}
 800ad42:	bf00      	nop
 800ad44:	20000040 	.word	0x20000040

0800ad48 <_sbrk_r>:
 800ad48:	b538      	push	{r3, r4, r5, lr}
 800ad4a:	4d06      	ldr	r5, [pc, #24]	; (800ad64 <_sbrk_r+0x1c>)
 800ad4c:	2300      	movs	r3, #0
 800ad4e:	4604      	mov	r4, r0
 800ad50:	4608      	mov	r0, r1
 800ad52:	602b      	str	r3, [r5, #0]
 800ad54:	f7f8 ff52 	bl	8003bfc <_sbrk>
 800ad58:	1c43      	adds	r3, r0, #1
 800ad5a:	d102      	bne.n	800ad62 <_sbrk_r+0x1a>
 800ad5c:	682b      	ldr	r3, [r5, #0]
 800ad5e:	b103      	cbz	r3, 800ad62 <_sbrk_r+0x1a>
 800ad60:	6023      	str	r3, [r4, #0]
 800ad62:	bd38      	pop	{r3, r4, r5, pc}
 800ad64:	20006354 	.word	0x20006354

0800ad68 <nanf>:
 800ad68:	ed9f 0a01 	vldr	s0, [pc, #4]	; 800ad70 <nanf+0x8>
 800ad6c:	4770      	bx	lr
 800ad6e:	bf00      	nop
 800ad70:	7fc00000 	.word	0x7fc00000

0800ad74 <siprintf>:
 800ad74:	b40e      	push	{r1, r2, r3}
 800ad76:	b500      	push	{lr}
 800ad78:	b09c      	sub	sp, #112	; 0x70
 800ad7a:	ab1d      	add	r3, sp, #116	; 0x74
 800ad7c:	9002      	str	r0, [sp, #8]
 800ad7e:	9006      	str	r0, [sp, #24]
 800ad80:	f06f 4100 	mvn.w	r1, #2147483648	; 0x80000000
 800ad84:	4809      	ldr	r0, [pc, #36]	; (800adac <siprintf+0x38>)
 800ad86:	9107      	str	r1, [sp, #28]
 800ad88:	9104      	str	r1, [sp, #16]
 800ad8a:	4909      	ldr	r1, [pc, #36]	; (800adb0 <siprintf+0x3c>)
 800ad8c:	f853 2b04 	ldr.w	r2, [r3], #4
 800ad90:	9105      	str	r1, [sp, #20]
 800ad92:	6800      	ldr	r0, [r0, #0]
 800ad94:	9301      	str	r3, [sp, #4]
 800ad96:	a902      	add	r1, sp, #8
 800ad98:	f002 ff82 	bl	800dca0 <_svfiprintf_r>
 800ad9c:	9b02      	ldr	r3, [sp, #8]
 800ad9e:	2200      	movs	r2, #0
 800ada0:	701a      	strb	r2, [r3, #0]
 800ada2:	b01c      	add	sp, #112	; 0x70
 800ada4:	f85d eb04 	ldr.w	lr, [sp], #4
 800ada8:	b003      	add	sp, #12
 800adaa:	4770      	bx	lr
 800adac:	20000040 	.word	0x20000040
 800adb0:	ffff0208 	.word	0xffff0208

0800adb4 <__sread>:
 800adb4:	b510      	push	{r4, lr}
 800adb6:	460c      	mov	r4, r1
 800adb8:	f9b1 100e 	ldrsh.w	r1, [r1, #14]
 800adbc:	f003 f870 	bl	800dea0 <_read_r>
 800adc0:	2800      	cmp	r0, #0
 800adc2:	bfab      	itete	ge
 800adc4:	6d63      	ldrge	r3, [r4, #84]	; 0x54
 800adc6:	89a3      	ldrhlt	r3, [r4, #12]
 800adc8:	181b      	addge	r3, r3, r0
 800adca:	f423 5380 	biclt.w	r3, r3, #4096	; 0x1000
 800adce:	bfac      	ite	ge
 800add0:	6563      	strge	r3, [r4, #84]	; 0x54
 800add2:	81a3      	strhlt	r3, [r4, #12]
 800add4:	bd10      	pop	{r4, pc}

0800add6 <__swrite>:
 800add6:	e92d 41f0 	stmdb	sp!, {r4, r5, r6, r7, r8, lr}
 800adda:	461f      	mov	r7, r3
 800addc:	898b      	ldrh	r3, [r1, #12]
 800adde:	05db      	lsls	r3, r3, #23
 800ade0:	4605      	mov	r5, r0
 800ade2:	460c      	mov	r4, r1
 800ade4:	4616      	mov	r6, r2
 800ade6:	d505      	bpl.n	800adf4 <__swrite+0x1e>
 800ade8:	f9b1 100e 	ldrsh.w	r1, [r1, #14]
 800adec:	2302      	movs	r3, #2
 800adee:	2200      	movs	r2, #0
 800adf0:	f002 f9a8 	bl	800d144 <_lseek_r>
 800adf4:	89a3      	ldrh	r3, [r4, #12]
 800adf6:	f9b4 100e 	ldrsh.w	r1, [r4, #14]
 800adfa:	f423 5380 	bic.w	r3, r3, #4096	; 0x1000
 800adfe:	81a3      	strh	r3, [r4, #12]
 800ae00:	4632      	mov	r2, r6
 800ae02:	463b      	mov	r3, r7
 800ae04:	4628      	mov	r0, r5
 800ae06:	e8bd 41f0 	ldmia.w	sp!, {r4, r5, r6, r7, r8, lr}
 800ae0a:	f000 becb 	b.w	800bba4 <_write_r>

0800ae0e <__sseek>:
 800ae0e:	b510      	push	{r4, lr}
 800ae10:	460c      	mov	r4, r1
 800ae12:	f9b1 100e 	ldrsh.w	r1, [r1, #14]
 800ae16:	f002 f995 	bl	800d144 <_lseek_r>
 800ae1a:	1c43      	adds	r3, r0, #1
 800ae1c:	89a3      	ldrh	r3, [r4, #12]
 800ae1e:	bf15      	itete	ne
 800ae20:	6560      	strne	r0, [r4, #84]	; 0x54
 800ae22:	f423 5380 	biceq.w	r3, r3, #4096	; 0x1000
 800ae26:	f443 5380 	orrne.w	r3, r3, #4096	; 0x1000
 800ae2a:	81a3      	strheq	r3, [r4, #12]
 800ae2c:	bf18      	it	ne
 800ae2e:	81a3      	strhne	r3, [r4, #12]
 800ae30:	bd10      	pop	{r4, pc}

0800ae32 <__sclose>:
 800ae32:	f9b1 100e 	ldrsh.w	r1, [r1, #14]
 800ae36:	f000 bec7 	b.w	800bbc8 <_close_r>

0800ae3a <sulp>:
 800ae3a:	b570      	push	{r4, r5, r6, lr}
 800ae3c:	4604      	mov	r4, r0
 800ae3e:	460d      	mov	r5, r1
 800ae40:	ec45 4b10 	vmov	d0, r4, r5
 800ae44:	4616      	mov	r6, r2
 800ae46:	f002 fd21 	bl	800d88c <__ulp>
 800ae4a:	ec51 0b10 	vmov	r0, r1, d0
 800ae4e:	b17e      	cbz	r6, 800ae70 <sulp+0x36>
 800ae50:	f3c5 530a 	ubfx	r3, r5, #20, #11
 800ae54:	f1c3 036b 	rsb	r3, r3, #107	; 0x6b
 800ae58:	2b00      	cmp	r3, #0
 800ae5a:	dd09      	ble.n	800ae70 <sulp+0x36>
 800ae5c:	051b      	lsls	r3, r3, #20
 800ae5e:	f103 557f 	add.w	r5, r3, #1069547520	; 0x3fc00000
 800ae62:	2400      	movs	r4, #0
 800ae64:	f505 1540 	add.w	r5, r5, #3145728	; 0x300000
 800ae68:	4622      	mov	r2, r4
 800ae6a:	462b      	mov	r3, r5
 800ae6c:	f7f5 fbc4 	bl	80005f8 <__aeabi_dmul>
 800ae70:	bd70      	pop	{r4, r5, r6, pc}
 800ae72:	0000      	movs	r0, r0
 800ae74:	0000      	movs	r0, r0
	...

0800ae78 <_strtod_l>:
 800ae78:	e92d 4ff0 	stmdb	sp!, {r4, r5, r6, r7, r8, r9, sl, fp, lr}
 800ae7c:	b0a3      	sub	sp, #140	; 0x8c
 800ae7e:	461f      	mov	r7, r3
 800ae80:	2300      	movs	r3, #0
 800ae82:	931e      	str	r3, [sp, #120]	; 0x78
 800ae84:	4ba4      	ldr	r3, [pc, #656]	; (800b118 <_strtod_l+0x2a0>)
 800ae86:	9219      	str	r2, [sp, #100]	; 0x64
 800ae88:	681b      	ldr	r3, [r3, #0]
 800ae8a:	9307      	str	r3, [sp, #28]
 800ae8c:	4604      	mov	r4, r0
 800ae8e:	4618      	mov	r0, r3
 800ae90:	4688      	mov	r8, r1
 800ae92:	f7f5 f99d 	bl	80001d0 <strlen>
 800ae96:	f04f 0a00 	mov.w	sl, #0
 800ae9a:	4605      	mov	r5, r0
 800ae9c:	f04f 0b00 	mov.w	fp, #0
 800aea0:	f8cd 8074 	str.w	r8, [sp, #116]	; 0x74
 800aea4:	9b1d      	ldr	r3, [sp, #116]	; 0x74
 800aea6:	781a      	ldrb	r2, [r3, #0]
 800aea8:	2a2b      	cmp	r2, #43	; 0x2b
 800aeaa:	d04c      	beq.n	800af46 <_strtod_l+0xce>
 800aeac:	d839      	bhi.n	800af22 <_strtod_l+0xaa>
 800aeae:	2a0d      	cmp	r2, #13
 800aeb0:	d832      	bhi.n	800af18 <_strtod_l+0xa0>
 800aeb2:	2a08      	cmp	r2, #8
 800aeb4:	d832      	bhi.n	800af1c <_strtod_l+0xa4>
 800aeb6:	2a00      	cmp	r2, #0
 800aeb8:	d03c      	beq.n	800af34 <_strtod_l+0xbc>
 800aeba:	2300      	movs	r3, #0
 800aebc:	930e      	str	r3, [sp, #56]	; 0x38
 800aebe:	9e1d      	ldr	r6, [sp, #116]	; 0x74
 800aec0:	7833      	ldrb	r3, [r6, #0]
 800aec2:	2b30      	cmp	r3, #48	; 0x30
 800aec4:	f040 80b4 	bne.w	800b030 <_strtod_l+0x1b8>
 800aec8:	7873      	ldrb	r3, [r6, #1]
 800aeca:	f003 03df 	and.w	r3, r3, #223	; 0xdf
 800aece:	2b58      	cmp	r3, #88	; 0x58
 800aed0:	d16c      	bne.n	800afac <_strtod_l+0x134>
 800aed2:	9b0e      	ldr	r3, [sp, #56]	; 0x38
 800aed4:	9301      	str	r3, [sp, #4]
 800aed6:	ab1e      	add	r3, sp, #120	; 0x78
 800aed8:	9702      	str	r7, [sp, #8]
 800aeda:	9300      	str	r3, [sp, #0]
 800aedc:	4a8f      	ldr	r2, [pc, #572]	; (800b11c <_strtod_l+0x2a4>)
 800aede:	ab1f      	add	r3, sp, #124	; 0x7c
 800aee0:	a91d      	add	r1, sp, #116	; 0x74
 800aee2:	4620      	mov	r0, r4
 800aee4:	f001 fe22 	bl	800cb2c <__gethex>
 800aee8:	f010 0707 	ands.w	r7, r0, #7
 800aeec:	4605      	mov	r5, r0
 800aeee:	d005      	beq.n	800aefc <_strtod_l+0x84>
 800aef0:	2f06      	cmp	r7, #6
 800aef2:	d12a      	bne.n	800af4a <_strtod_l+0xd2>
 800aef4:	3601      	adds	r6, #1
 800aef6:	2300      	movs	r3, #0
 800aef8:	961d      	str	r6, [sp, #116]	; 0x74
 800aefa:	930e      	str	r3, [sp, #56]	; 0x38
 800aefc:	9b19      	ldr	r3, [sp, #100]	; 0x64
 800aefe:	2b00      	cmp	r3, #0
 800af00:	f040 8596 	bne.w	800ba30 <_strtod_l+0xbb8>
 800af04:	9b0e      	ldr	r3, [sp, #56]	; 0x38
 800af06:	b1db      	cbz	r3, 800af40 <_strtod_l+0xc8>
 800af08:	4652      	mov	r2, sl
 800af0a:	f10b 4300 	add.w	r3, fp, #2147483648	; 0x80000000
 800af0e:	ec43 2b10 	vmov	d0, r2, r3
 800af12:	b023      	add	sp, #140	; 0x8c
 800af14:	e8bd 8ff0 	ldmia.w	sp!, {r4, r5, r6, r7, r8, r9, sl, fp, pc}
 800af18:	2a20      	cmp	r2, #32
 800af1a:	d1ce      	bne.n	800aeba <_strtod_l+0x42>
 800af1c:	3301      	adds	r3, #1
 800af1e:	931d      	str	r3, [sp, #116]	; 0x74
 800af20:	e7c0      	b.n	800aea4 <_strtod_l+0x2c>
 800af22:	2a2d      	cmp	r2, #45	; 0x2d
 800af24:	d1c9      	bne.n	800aeba <_strtod_l+0x42>
 800af26:	2201      	movs	r2, #1
 800af28:	920e      	str	r2, [sp, #56]	; 0x38
 800af2a:	1c5a      	adds	r2, r3, #1
 800af2c:	921d      	str	r2, [sp, #116]	; 0x74
 800af2e:	785b      	ldrb	r3, [r3, #1]
 800af30:	2b00      	cmp	r3, #0
 800af32:	d1c4      	bne.n	800aebe <_strtod_l+0x46>
 800af34:	9b19      	ldr	r3, [sp, #100]	; 0x64
 800af36:	f8cd 8074 	str.w	r8, [sp, #116]	; 0x74
 800af3a:	2b00      	cmp	r3, #0
 800af3c:	f040 8576 	bne.w	800ba2c <_strtod_l+0xbb4>
 800af40:	4652      	mov	r2, sl
 800af42:	465b      	mov	r3, fp
 800af44:	e7e3      	b.n	800af0e <_strtod_l+0x96>
 800af46:	2200      	movs	r2, #0
 800af48:	e7ee      	b.n	800af28 <_strtod_l+0xb0>
 800af4a:	9a1e      	ldr	r2, [sp, #120]	; 0x78
 800af4c:	b13a      	cbz	r2, 800af5e <_strtod_l+0xe6>
 800af4e:	2135      	movs	r1, #53	; 0x35
 800af50:	a820      	add	r0, sp, #128	; 0x80
 800af52:	f002 fda6 	bl	800daa2 <__copybits>
 800af56:	991e      	ldr	r1, [sp, #120]	; 0x78
 800af58:	4620      	mov	r0, r4
 800af5a:	f002 f96b 	bl	800d234 <_Bfree>
 800af5e:	3f01      	subs	r7, #1
 800af60:	2f05      	cmp	r7, #5
 800af62:	d807      	bhi.n	800af74 <_strtod_l+0xfc>
 800af64:	e8df f007 	tbb	[pc, r7]
 800af68:	1d180b0e 	.word	0x1d180b0e
 800af6c:	030e      	.short	0x030e
 800af6e:	f04f 0b00 	mov.w	fp, #0
 800af72:	46da      	mov	sl, fp
 800af74:	0728      	lsls	r0, r5, #28
 800af76:	d5c1      	bpl.n	800aefc <_strtod_l+0x84>
 800af78:	f04b 4b00 	orr.w	fp, fp, #2147483648	; 0x80000000
 800af7c:	e7be      	b.n	800aefc <_strtod_l+0x84>
 800af7e:	e9dd ab20 	ldrd	sl, fp, [sp, #128]	; 0x80
 800af82:	e7f7      	b.n	800af74 <_strtod_l+0xfc>
 800af84:	e9dd a320 	ldrd	sl, r3, [sp, #128]	; 0x80
 800af88:	9a1f      	ldr	r2, [sp, #124]	; 0x7c
 800af8a:	f423 1380 	bic.w	r3, r3, #1048576	; 0x100000
 800af8e:	f202 4233 	addw	r2, r2, #1075	; 0x433
 800af92:	ea43 5b02 	orr.w	fp, r3, r2, lsl #20
 800af96:	e7ed      	b.n	800af74 <_strtod_l+0xfc>
 800af98:	f8df b184 	ldr.w	fp, [pc, #388]	; 800b120 <_strtod_l+0x2a8>
 800af9c:	f04f 0a00 	mov.w	sl, #0
 800afa0:	e7e8      	b.n	800af74 <_strtod_l+0xfc>
 800afa2:	f06f 4b00 	mvn.w	fp, #2147483648	; 0x80000000
 800afa6:	f04f 3aff 	mov.w	sl, #4294967295
 800afaa:	e7e3      	b.n	800af74 <_strtod_l+0xfc>
 800afac:	9b1d      	ldr	r3, [sp, #116]	; 0x74
 800afae:	1c5a      	adds	r2, r3, #1
 800afb0:	921d      	str	r2, [sp, #116]	; 0x74
 800afb2:	785b      	ldrb	r3, [r3, #1]
 800afb4:	2b30      	cmp	r3, #48	; 0x30
 800afb6:	d0f9      	beq.n	800afac <_strtod_l+0x134>
 800afb8:	2b00      	cmp	r3, #0
 800afba:	d09f      	beq.n	800aefc <_strtod_l+0x84>
 800afbc:	2301      	movs	r3, #1
 800afbe:	f04f 0900 	mov.w	r9, #0
 800afc2:	9304      	str	r3, [sp, #16]
 800afc4:	9b1d      	ldr	r3, [sp, #116]	; 0x74
 800afc6:	930a      	str	r3, [sp, #40]	; 0x28
 800afc8:	f8cd 9024 	str.w	r9, [sp, #36]	; 0x24
 800afcc:	464f      	mov	r7, r9
 800afce:	220a      	movs	r2, #10
 800afd0:	981d      	ldr	r0, [sp, #116]	; 0x74
 800afd2:	7806      	ldrb	r6, [r0, #0]
 800afd4:	f1a6 0330 	sub.w	r3, r6, #48	; 0x30
 800afd8:	b2d9      	uxtb	r1, r3
 800afda:	2909      	cmp	r1, #9
 800afdc:	d92a      	bls.n	800b034 <_strtod_l+0x1bc>
 800afde:	9907      	ldr	r1, [sp, #28]
 800afe0:	462a      	mov	r2, r5
 800afe2:	f002 ff79 	bl	800ded8 <strncmp>
 800afe6:	b398      	cbz	r0, 800b050 <_strtod_l+0x1d8>
 800afe8:	2000      	movs	r0, #0
 800afea:	4633      	mov	r3, r6
 800afec:	463d      	mov	r5, r7
 800afee:	9007      	str	r0, [sp, #28]
 800aff0:	4602      	mov	r2, r0
 800aff2:	2b65      	cmp	r3, #101	; 0x65
 800aff4:	d001      	beq.n	800affa <_strtod_l+0x182>
 800aff6:	2b45      	cmp	r3, #69	; 0x45
 800aff8:	d118      	bne.n	800b02c <_strtod_l+0x1b4>
 800affa:	b91d      	cbnz	r5, 800b004 <_strtod_l+0x18c>
 800affc:	9b04      	ldr	r3, [sp, #16]
 800affe:	4303      	orrs	r3, r0
 800b000:	d098      	beq.n	800af34 <_strtod_l+0xbc>
 800b002:	2500      	movs	r5, #0
 800b004:	f8dd 8074 	ldr.w	r8, [sp, #116]	; 0x74
 800b008:	f108 0301 	add.w	r3, r8, #1
 800b00c:	931d      	str	r3, [sp, #116]	; 0x74
 800b00e:	f898 3001 	ldrb.w	r3, [r8, #1]
 800b012:	2b2b      	cmp	r3, #43	; 0x2b
 800b014:	d075      	beq.n	800b102 <_strtod_l+0x28a>
 800b016:	2b2d      	cmp	r3, #45	; 0x2d
 800b018:	d07b      	beq.n	800b112 <_strtod_l+0x29a>
 800b01a:	f04f 0c00 	mov.w	ip, #0
 800b01e:	f1a3 0130 	sub.w	r1, r3, #48	; 0x30
 800b022:	2909      	cmp	r1, #9
 800b024:	f240 8082 	bls.w	800b12c <_strtod_l+0x2b4>
 800b028:	f8cd 8074 	str.w	r8, [sp, #116]	; 0x74
 800b02c:	2600      	movs	r6, #0
 800b02e:	e09d      	b.n	800b16c <_strtod_l+0x2f4>
 800b030:	2300      	movs	r3, #0
 800b032:	e7c4      	b.n	800afbe <_strtod_l+0x146>
 800b034:	2f08      	cmp	r7, #8
 800b036:	bfd8      	it	le
 800b038:	9909      	ldrle	r1, [sp, #36]	; 0x24
 800b03a:	f100 0001 	add.w	r0, r0, #1
 800b03e:	bfda      	itte	le
 800b040:	fb02 3301 	mlale	r3, r2, r1, r3
 800b044:	9309      	strle	r3, [sp, #36]	; 0x24
 800b046:	fb02 3909 	mlagt	r9, r2, r9, r3
 800b04a:	3701      	adds	r7, #1
 800b04c:	901d      	str	r0, [sp, #116]	; 0x74
 800b04e:	e7bf      	b.n	800afd0 <_strtod_l+0x158>
 800b050:	9b1d      	ldr	r3, [sp, #116]	; 0x74
 800b052:	195a      	adds	r2, r3, r5
 800b054:	921d      	str	r2, [sp, #116]	; 0x74
 800b056:	5d5b      	ldrb	r3, [r3, r5]
 800b058:	2f00      	cmp	r7, #0
 800b05a:	d037      	beq.n	800b0cc <_strtod_l+0x254>
 800b05c:	9007      	str	r0, [sp, #28]
 800b05e:	463d      	mov	r5, r7
 800b060:	f1a3 0230 	sub.w	r2, r3, #48	; 0x30
 800b064:	2a09      	cmp	r2, #9
 800b066:	d912      	bls.n	800b08e <_strtod_l+0x216>
 800b068:	2201      	movs	r2, #1
 800b06a:	e7c2      	b.n	800aff2 <_strtod_l+0x17a>
 800b06c:	9b1d      	ldr	r3, [sp, #116]	; 0x74
 800b06e:	1c5a      	adds	r2, r3, #1
 800b070:	921d      	str	r2, [sp, #116]	; 0x74
 800b072:	785b      	ldrb	r3, [r3, #1]
 800b074:	3001      	adds	r0, #1
 800b076:	2b30      	cmp	r3, #48	; 0x30
 800b078:	d0f8      	beq.n	800b06c <_strtod_l+0x1f4>
 800b07a:	f1a3 0231 	sub.w	r2, r3, #49	; 0x31
 800b07e:	2a08      	cmp	r2, #8
 800b080:	f200 84db 	bhi.w	800ba3a <_strtod_l+0xbc2>
 800b084:	9a1d      	ldr	r2, [sp, #116]	; 0x74
 800b086:	9007      	str	r0, [sp, #28]
 800b088:	2000      	movs	r0, #0
 800b08a:	920a      	str	r2, [sp, #40]	; 0x28
 800b08c:	4605      	mov	r5, r0
 800b08e:	3b30      	subs	r3, #48	; 0x30
 800b090:	f100 0201 	add.w	r2, r0, #1
 800b094:	d014      	beq.n	800b0c0 <_strtod_l+0x248>
 800b096:	9907      	ldr	r1, [sp, #28]
 800b098:	4411      	add	r1, r2
 800b09a:	9107      	str	r1, [sp, #28]
 800b09c:	462a      	mov	r2, r5
 800b09e:	eb00 0e05 	add.w	lr, r0, r5
 800b0a2:	210a      	movs	r1, #10
 800b0a4:	4572      	cmp	r2, lr
 800b0a6:	d113      	bne.n	800b0d0 <_strtod_l+0x258>
 800b0a8:	182a      	adds	r2, r5, r0
 800b0aa:	2a08      	cmp	r2, #8
 800b0ac:	f105 0501 	add.w	r5, r5, #1
 800b0b0:	4405      	add	r5, r0
 800b0b2:	dc1c      	bgt.n	800b0ee <_strtod_l+0x276>
 800b0b4:	9909      	ldr	r1, [sp, #36]	; 0x24
 800b0b6:	220a      	movs	r2, #10
 800b0b8:	fb02 3301 	mla	r3, r2, r1, r3
 800b0bc:	9309      	str	r3, [sp, #36]	; 0x24
 800b0be:	2200      	movs	r2, #0
 800b0c0:	9b1d      	ldr	r3, [sp, #116]	; 0x74
 800b0c2:	1c59      	adds	r1, r3, #1
 800b0c4:	911d      	str	r1, [sp, #116]	; 0x74
 800b0c6:	785b      	ldrb	r3, [r3, #1]
 800b0c8:	4610      	mov	r0, r2
 800b0ca:	e7c9      	b.n	800b060 <_strtod_l+0x1e8>
 800b0cc:	4638      	mov	r0, r7
 800b0ce:	e7d2      	b.n	800b076 <_strtod_l+0x1fe>
 800b0d0:	2a08      	cmp	r2, #8
 800b0d2:	dc04      	bgt.n	800b0de <_strtod_l+0x266>
 800b0d4:	9e09      	ldr	r6, [sp, #36]	; 0x24
 800b0d6:	434e      	muls	r6, r1
 800b0d8:	9609      	str	r6, [sp, #36]	; 0x24
 800b0da:	3201      	adds	r2, #1
 800b0dc:	e7e2      	b.n	800b0a4 <_strtod_l+0x22c>
 800b0de:	f102 0c01 	add.w	ip, r2, #1
 800b0e2:	f1bc 0f10 	cmp.w	ip, #16
 800b0e6:	bfd8      	it	le
 800b0e8:	fb01 f909 	mulle.w	r9, r1, r9
 800b0ec:	e7f5      	b.n	800b0da <_strtod_l+0x262>
 800b0ee:	2d10      	cmp	r5, #16
 800b0f0:	bfdc      	itt	le
 800b0f2:	220a      	movle	r2, #10
 800b0f4:	fb02 3909 	mlale	r9, r2, r9, r3
 800b0f8:	e7e1      	b.n	800b0be <_strtod_l+0x246>
 800b0fa:	2300      	movs	r3, #0
 800b0fc:	9307      	str	r3, [sp, #28]
 800b0fe:	2201      	movs	r2, #1
 800b100:	e77c      	b.n	800affc <_strtod_l+0x184>
 800b102:	f04f 0c00 	mov.w	ip, #0
 800b106:	f108 0302 	add.w	r3, r8, #2
 800b10a:	931d      	str	r3, [sp, #116]	; 0x74
 800b10c:	f898 3002 	ldrb.w	r3, [r8, #2]
 800b110:	e785      	b.n	800b01e <_strtod_l+0x1a6>
 800b112:	f04f 0c01 	mov.w	ip, #1
 800b116:	e7f6      	b.n	800b106 <_strtod_l+0x28e>
 800b118:	08010120 	.word	0x08010120
 800b11c:	0800fed0 	.word	0x0800fed0
 800b120:	7ff00000 	.word	0x7ff00000
 800b124:	9b1d      	ldr	r3, [sp, #116]	; 0x74
 800b126:	1c59      	adds	r1, r3, #1
 800b128:	911d      	str	r1, [sp, #116]	; 0x74
 800b12a:	785b      	ldrb	r3, [r3, #1]
 800b12c:	2b30      	cmp	r3, #48	; 0x30
 800b12e:	d0f9      	beq.n	800b124 <_strtod_l+0x2ac>
 800b130:	f1a3 0131 	sub.w	r1, r3, #49	; 0x31
 800b134:	2908      	cmp	r1, #8
 800b136:	f63f af79 	bhi.w	800b02c <_strtod_l+0x1b4>
 800b13a:	f1a3 0e30 	sub.w	lr, r3, #48	; 0x30
 800b13e:	9b1d      	ldr	r3, [sp, #116]	; 0x74
 800b140:	9308      	str	r3, [sp, #32]
 800b142:	9b1d      	ldr	r3, [sp, #116]	; 0x74
 800b144:	1c59      	adds	r1, r3, #1
 800b146:	911d      	str	r1, [sp, #116]	; 0x74
 800b148:	785b      	ldrb	r3, [r3, #1]
 800b14a:	f1a3 0630 	sub.w	r6, r3, #48	; 0x30
 800b14e:	2e09      	cmp	r6, #9
 800b150:	d937      	bls.n	800b1c2 <_strtod_l+0x34a>
 800b152:	9e08      	ldr	r6, [sp, #32]
 800b154:	1b89      	subs	r1, r1, r6
 800b156:	2908      	cmp	r1, #8
 800b158:	f644 661f 	movw	r6, #19999	; 0x4e1f
 800b15c:	dc02      	bgt.n	800b164 <_strtod_l+0x2ec>
 800b15e:	4576      	cmp	r6, lr
 800b160:	bfa8      	it	ge
 800b162:	4676      	movge	r6, lr
 800b164:	f1bc 0f00 	cmp.w	ip, #0
 800b168:	d000      	beq.n	800b16c <_strtod_l+0x2f4>
 800b16a:	4276      	negs	r6, r6
 800b16c:	2d00      	cmp	r5, #0
 800b16e:	d14f      	bne.n	800b210 <_strtod_l+0x398>
 800b170:	9904      	ldr	r1, [sp, #16]
 800b172:	4301      	orrs	r1, r0
 800b174:	f47f aec2 	bne.w	800aefc <_strtod_l+0x84>
 800b178:	2a00      	cmp	r2, #0
 800b17a:	f47f aedb 	bne.w	800af34 <_strtod_l+0xbc>
 800b17e:	2b69      	cmp	r3, #105	; 0x69
 800b180:	d027      	beq.n	800b1d2 <_strtod_l+0x35a>
 800b182:	dc24      	bgt.n	800b1ce <_strtod_l+0x356>
 800b184:	2b49      	cmp	r3, #73	; 0x49
 800b186:	d024      	beq.n	800b1d2 <_strtod_l+0x35a>
 800b188:	2b4e      	cmp	r3, #78	; 0x4e
 800b18a:	f47f aed3 	bne.w	800af34 <_strtod_l+0xbc>
 800b18e:	499e      	ldr	r1, [pc, #632]	; (800b408 <_strtod_l+0x590>)
 800b190:	a81d      	add	r0, sp, #116	; 0x74
 800b192:	f001 ff23 	bl	800cfdc <__match>
 800b196:	2800      	cmp	r0, #0
 800b198:	f43f aecc 	beq.w	800af34 <_strtod_l+0xbc>
 800b19c:	9b1d      	ldr	r3, [sp, #116]	; 0x74
 800b19e:	781b      	ldrb	r3, [r3, #0]
 800b1a0:	2b28      	cmp	r3, #40	; 0x28
 800b1a2:	d12d      	bne.n	800b200 <_strtod_l+0x388>
 800b1a4:	4999      	ldr	r1, [pc, #612]	; (800b40c <_strtod_l+0x594>)
 800b1a6:	aa20      	add	r2, sp, #128	; 0x80
 800b1a8:	a81d      	add	r0, sp, #116	; 0x74
 800b1aa:	f001 ff2b 	bl	800d004 <__hexnan>
 800b1ae:	2805      	cmp	r0, #5
 800b1b0:	d126      	bne.n	800b200 <_strtod_l+0x388>
 800b1b2:	9b21      	ldr	r3, [sp, #132]	; 0x84
 800b1b4:	f8dd a080 	ldr.w	sl, [sp, #128]	; 0x80
 800b1b8:	f043 4bff 	orr.w	fp, r3, #2139095040	; 0x7f800000
 800b1bc:	f44b 0be0 	orr.w	fp, fp, #7340032	; 0x700000
 800b1c0:	e69c      	b.n	800aefc <_strtod_l+0x84>
 800b1c2:	210a      	movs	r1, #10
 800b1c4:	fb01 3e0e 	mla	lr, r1, lr, r3
 800b1c8:	f1ae 0e30 	sub.w	lr, lr, #48	; 0x30
 800b1cc:	e7b9      	b.n	800b142 <_strtod_l+0x2ca>
 800b1ce:	2b6e      	cmp	r3, #110	; 0x6e
 800b1d0:	e7db      	b.n	800b18a <_strtod_l+0x312>
 800b1d2:	498f      	ldr	r1, [pc, #572]	; (800b410 <_strtod_l+0x598>)
 800b1d4:	a81d      	add	r0, sp, #116	; 0x74
 800b1d6:	f001 ff01 	bl	800cfdc <__match>
 800b1da:	2800      	cmp	r0, #0
 800b1dc:	f43f aeaa 	beq.w	800af34 <_strtod_l+0xbc>
 800b1e0:	9b1d      	ldr	r3, [sp, #116]	; 0x74
 800b1e2:	498c      	ldr	r1, [pc, #560]	; (800b414 <_strtod_l+0x59c>)
 800b1e4:	3b01      	subs	r3, #1
 800b1e6:	a81d      	add	r0, sp, #116	; 0x74
 800b1e8:	931d      	str	r3, [sp, #116]	; 0x74
 800b1ea:	f001 fef7 	bl	800cfdc <__match>
 800b1ee:	b910      	cbnz	r0, 800b1f6 <_strtod_l+0x37e>
 800b1f0:	9b1d      	ldr	r3, [sp, #116]	; 0x74
 800b1f2:	3301      	adds	r3, #1
 800b1f4:	931d      	str	r3, [sp, #116]	; 0x74
 800b1f6:	f8df b22c 	ldr.w	fp, [pc, #556]	; 800b424 <_strtod_l+0x5ac>
 800b1fa:	f04f 0a00 	mov.w	sl, #0
 800b1fe:	e67d      	b.n	800aefc <_strtod_l+0x84>
 800b200:	4885      	ldr	r0, [pc, #532]	; (800b418 <_strtod_l+0x5a0>)
 800b202:	f002 fe61 	bl	800dec8 <nan>
 800b206:	ed8d 0b04 	vstr	d0, [sp, #16]
 800b20a:	e9dd ab04 	ldrd	sl, fp, [sp, #16]
 800b20e:	e675      	b.n	800aefc <_strtod_l+0x84>
 800b210:	9b07      	ldr	r3, [sp, #28]
 800b212:	9809      	ldr	r0, [sp, #36]	; 0x24
 800b214:	1af3      	subs	r3, r6, r3
 800b216:	2f00      	cmp	r7, #0
 800b218:	bf08      	it	eq
 800b21a:	462f      	moveq	r7, r5
 800b21c:	2d10      	cmp	r5, #16
 800b21e:	9308      	str	r3, [sp, #32]
 800b220:	46a8      	mov	r8, r5
 800b222:	bfa8      	it	ge
 800b224:	f04f 0810 	movge.w	r8, #16
 800b228:	f7f5 f96c 	bl	8000504 <__aeabi_ui2d>
 800b22c:	2d09      	cmp	r5, #9
 800b22e:	4682      	mov	sl, r0
 800b230:	468b      	mov	fp, r1
 800b232:	dd13      	ble.n	800b25c <_strtod_l+0x3e4>
 800b234:	4b79      	ldr	r3, [pc, #484]	; (800b41c <_strtod_l+0x5a4>)
 800b236:	eb03 03c8 	add.w	r3, r3, r8, lsl #3
 800b23a:	e953 2312 	ldrd	r2, r3, [r3, #-72]	; 0x48
 800b23e:	f7f5 f9db 	bl	80005f8 <__aeabi_dmul>
 800b242:	4682      	mov	sl, r0
 800b244:	4648      	mov	r0, r9
 800b246:	468b      	mov	fp, r1
 800b248:	f7f5 f95c 	bl	8000504 <__aeabi_ui2d>
 800b24c:	4602      	mov	r2, r0
 800b24e:	460b      	mov	r3, r1
 800b250:	4650      	mov	r0, sl
 800b252:	4659      	mov	r1, fp
 800b254:	f7f5 f81a 	bl	800028c <__adddf3>
 800b258:	4682      	mov	sl, r0
 800b25a:	468b      	mov	fp, r1
 800b25c:	2d0f      	cmp	r5, #15
 800b25e:	dc38      	bgt.n	800b2d2 <_strtod_l+0x45a>
 800b260:	9b08      	ldr	r3, [sp, #32]
 800b262:	2b00      	cmp	r3, #0
 800b264:	f43f ae4a 	beq.w	800aefc <_strtod_l+0x84>
 800b268:	dd24      	ble.n	800b2b4 <_strtod_l+0x43c>
 800b26a:	2b16      	cmp	r3, #22
 800b26c:	dc0b      	bgt.n	800b286 <_strtod_l+0x40e>
 800b26e:	4d6b      	ldr	r5, [pc, #428]	; (800b41c <_strtod_l+0x5a4>)
 800b270:	eb05 05c3 	add.w	r5, r5, r3, lsl #3
 800b274:	e9d5 0100 	ldrd	r0, r1, [r5]
 800b278:	4652      	mov	r2, sl
 800b27a:	465b      	mov	r3, fp
 800b27c:	f7f5 f9bc 	bl	80005f8 <__aeabi_dmul>
 800b280:	4682      	mov	sl, r0
 800b282:	468b      	mov	fp, r1
 800b284:	e63a      	b.n	800aefc <_strtod_l+0x84>
 800b286:	9a08      	ldr	r2, [sp, #32]
 800b288:	f1c5 0325 	rsb	r3, r5, #37	; 0x25
 800b28c:	4293      	cmp	r3, r2
 800b28e:	db20      	blt.n	800b2d2 <_strtod_l+0x45a>
 800b290:	4c62      	ldr	r4, [pc, #392]	; (800b41c <_strtod_l+0x5a4>)
 800b292:	f1c5 050f 	rsb	r5, r5, #15
 800b296:	eb04 01c5 	add.w	r1, r4, r5, lsl #3
 800b29a:	4652      	mov	r2, sl
 800b29c:	465b      	mov	r3, fp
 800b29e:	e9d1 0100 	ldrd	r0, r1, [r1]
 800b2a2:	f7f5 f9a9 	bl	80005f8 <__aeabi_dmul>
 800b2a6:	9b08      	ldr	r3, [sp, #32]
 800b2a8:	1b5d      	subs	r5, r3, r5
 800b2aa:	eb04 04c5 	add.w	r4, r4, r5, lsl #3
 800b2ae:	e9d4 2300 	ldrd	r2, r3, [r4]
 800b2b2:	e7e3      	b.n	800b27c <_strtod_l+0x404>
 800b2b4:	9b08      	ldr	r3, [sp, #32]
 800b2b6:	3316      	adds	r3, #22
 800b2b8:	db0b      	blt.n	800b2d2 <_strtod_l+0x45a>
 800b2ba:	9b07      	ldr	r3, [sp, #28]
 800b2bc:	4a57      	ldr	r2, [pc, #348]	; (800b41c <_strtod_l+0x5a4>)
 800b2be:	1b9e      	subs	r6, r3, r6
 800b2c0:	eb02 06c6 	add.w	r6, r2, r6, lsl #3
 800b2c4:	e9d6 2300 	ldrd	r2, r3, [r6]
 800b2c8:	4650      	mov	r0, sl
 800b2ca:	4659      	mov	r1, fp
 800b2cc:	f7f5 fabe 	bl	800084c <__aeabi_ddiv>
 800b2d0:	e7d6      	b.n	800b280 <_strtod_l+0x408>
 800b2d2:	9b08      	ldr	r3, [sp, #32]
 800b2d4:	eba5 0808 	sub.w	r8, r5, r8
 800b2d8:	4498      	add	r8, r3
 800b2da:	f1b8 0f00 	cmp.w	r8, #0
 800b2de:	dd71      	ble.n	800b3c4 <_strtod_l+0x54c>
 800b2e0:	f018 030f 	ands.w	r3, r8, #15
 800b2e4:	d00a      	beq.n	800b2fc <_strtod_l+0x484>
 800b2e6:	494d      	ldr	r1, [pc, #308]	; (800b41c <_strtod_l+0x5a4>)
 800b2e8:	eb01 01c3 	add.w	r1, r1, r3, lsl #3
 800b2ec:	4652      	mov	r2, sl
 800b2ee:	465b      	mov	r3, fp
 800b2f0:	e9d1 0100 	ldrd	r0, r1, [r1]
 800b2f4:	f7f5 f980 	bl	80005f8 <__aeabi_dmul>
 800b2f8:	4682      	mov	sl, r0
 800b2fa:	468b      	mov	fp, r1
 800b2fc:	f038 080f 	bics.w	r8, r8, #15
 800b300:	d04d      	beq.n	800b39e <_strtod_l+0x526>
 800b302:	f5b8 7f9a 	cmp.w	r8, #308	; 0x134
 800b306:	dd22      	ble.n	800b34e <_strtod_l+0x4d6>
 800b308:	2500      	movs	r5, #0
 800b30a:	462e      	mov	r6, r5
 800b30c:	9509      	str	r5, [sp, #36]	; 0x24
 800b30e:	9507      	str	r5, [sp, #28]
 800b310:	2322      	movs	r3, #34	; 0x22
 800b312:	f8df b110 	ldr.w	fp, [pc, #272]	; 800b424 <_strtod_l+0x5ac>
 800b316:	6023      	str	r3, [r4, #0]
 800b318:	f04f 0a00 	mov.w	sl, #0
 800b31c:	9b09      	ldr	r3, [sp, #36]	; 0x24
 800b31e:	2b00      	cmp	r3, #0
 800b320:	f43f adec 	beq.w	800aefc <_strtod_l+0x84>
 800b324:	991e      	ldr	r1, [sp, #120]	; 0x78
 800b326:	4620      	mov	r0, r4
 800b328:	f001 ff84 	bl	800d234 <_Bfree>
 800b32c:	9907      	ldr	r1, [sp, #28]
 800b32e:	4620      	mov	r0, r4
 800b330:	f001 ff80 	bl	800d234 <_Bfree>
 800b334:	4631      	mov	r1, r6
 800b336:	4620      	mov	r0, r4
 800b338:	f001 ff7c 	bl	800d234 <_Bfree>
 800b33c:	9909      	ldr	r1, [sp, #36]	; 0x24
 800b33e:	4620      	mov	r0, r4
 800b340:	f001 ff78 	bl	800d234 <_Bfree>
 800b344:	4629      	mov	r1, r5
 800b346:	4620      	mov	r0, r4
 800b348:	f001 ff74 	bl	800d234 <_Bfree>
 800b34c:	e5d6      	b.n	800aefc <_strtod_l+0x84>
 800b34e:	2300      	movs	r3, #0
 800b350:	ea4f 1828 	mov.w	r8, r8, asr #4
 800b354:	4650      	mov	r0, sl
 800b356:	4659      	mov	r1, fp
 800b358:	4699      	mov	r9, r3
 800b35a:	f1b8 0f01 	cmp.w	r8, #1
 800b35e:	dc21      	bgt.n	800b3a4 <_strtod_l+0x52c>
 800b360:	b10b      	cbz	r3, 800b366 <_strtod_l+0x4ee>
 800b362:	4682      	mov	sl, r0
 800b364:	468b      	mov	fp, r1
 800b366:	4b2e      	ldr	r3, [pc, #184]	; (800b420 <_strtod_l+0x5a8>)
 800b368:	f1ab 7b54 	sub.w	fp, fp, #55574528	; 0x3500000
 800b36c:	eb03 09c9 	add.w	r9, r3, r9, lsl #3
 800b370:	4652      	mov	r2, sl
 800b372:	465b      	mov	r3, fp
 800b374:	e9d9 0100 	ldrd	r0, r1, [r9]
 800b378:	f7f5 f93e 	bl	80005f8 <__aeabi_dmul>
 800b37c:	4b29      	ldr	r3, [pc, #164]	; (800b424 <_strtod_l+0x5ac>)
 800b37e:	460a      	mov	r2, r1
 800b380:	400b      	ands	r3, r1
 800b382:	4929      	ldr	r1, [pc, #164]	; (800b428 <_strtod_l+0x5b0>)
 800b384:	428b      	cmp	r3, r1
 800b386:	4682      	mov	sl, r0
 800b388:	d8be      	bhi.n	800b308 <_strtod_l+0x490>
 800b38a:	f5a1 1180 	sub.w	r1, r1, #1048576	; 0x100000
 800b38e:	428b      	cmp	r3, r1
 800b390:	bf86      	itte	hi
 800b392:	f8df b098 	ldrhi.w	fp, [pc, #152]	; 800b42c <_strtod_l+0x5b4>
 800b396:	f04f 3aff 	movhi.w	sl, #4294967295
 800b39a:	f102 7b54 	addls.w	fp, r2, #55574528	; 0x3500000
 800b39e:	2300      	movs	r3, #0
 800b3a0:	9304      	str	r3, [sp, #16]
 800b3a2:	e081      	b.n	800b4a8 <_strtod_l+0x630>
 800b3a4:	f018 0f01 	tst.w	r8, #1
 800b3a8:	d007      	beq.n	800b3ba <_strtod_l+0x542>
 800b3aa:	4b1d      	ldr	r3, [pc, #116]	; (800b420 <_strtod_l+0x5a8>)
 800b3ac:	eb03 03c9 	add.w	r3, r3, r9, lsl #3
 800b3b0:	e9d3 2300 	ldrd	r2, r3, [r3]
 800b3b4:	f7f5 f920 	bl	80005f8 <__aeabi_dmul>
 800b3b8:	2301      	movs	r3, #1
 800b3ba:	f109 0901 	add.w	r9, r9, #1
 800b3be:	ea4f 0868 	mov.w	r8, r8, asr #1
 800b3c2:	e7ca      	b.n	800b35a <_strtod_l+0x4e2>
 800b3c4:	d0eb      	beq.n	800b39e <_strtod_l+0x526>
 800b3c6:	f1c8 0800 	rsb	r8, r8, #0
 800b3ca:	f018 020f 	ands.w	r2, r8, #15
 800b3ce:	d00a      	beq.n	800b3e6 <_strtod_l+0x56e>
 800b3d0:	4b12      	ldr	r3, [pc, #72]	; (800b41c <_strtod_l+0x5a4>)
 800b3d2:	eb03 03c2 	add.w	r3, r3, r2, lsl #3
 800b3d6:	4650      	mov	r0, sl
 800b3d8:	4659      	mov	r1, fp
 800b3da:	e9d3 2300 	ldrd	r2, r3, [r3]
 800b3de:	f7f5 fa35 	bl	800084c <__aeabi_ddiv>
 800b3e2:	4682      	mov	sl, r0
 800b3e4:	468b      	mov	fp, r1
 800b3e6:	ea5f 1828 	movs.w	r8, r8, asr #4
 800b3ea:	d0d8      	beq.n	800b39e <_strtod_l+0x526>
 800b3ec:	f1b8 0f1f 	cmp.w	r8, #31
 800b3f0:	dd1e      	ble.n	800b430 <_strtod_l+0x5b8>
 800b3f2:	2500      	movs	r5, #0
 800b3f4:	462e      	mov	r6, r5
 800b3f6:	9509      	str	r5, [sp, #36]	; 0x24
 800b3f8:	9507      	str	r5, [sp, #28]
 800b3fa:	2322      	movs	r3, #34	; 0x22
 800b3fc:	f04f 0a00 	mov.w	sl, #0
 800b400:	f04f 0b00 	mov.w	fp, #0
 800b404:	6023      	str	r3, [r4, #0]
 800b406:	e789      	b.n	800b31c <_strtod_l+0x4a4>
 800b408:	0800fea1 	.word	0x0800fea1
 800b40c:	0800fee4 	.word	0x0800fee4
 800b410:	0800fe99 	.word	0x0800fe99
 800b414:	08010024 	.word	0x08010024
 800b418:	080102e0 	.word	0x080102e0
 800b41c:	080101c0 	.word	0x080101c0
 800b420:	08010198 	.word	0x08010198
 800b424:	7ff00000 	.word	0x7ff00000
 800b428:	7ca00000 	.word	0x7ca00000
 800b42c:	7fefffff 	.word	0x7fefffff
 800b430:	f018 0310 	ands.w	r3, r8, #16
 800b434:	bf18      	it	ne
 800b436:	236a      	movne	r3, #106	; 0x6a
 800b438:	f8df 93b4 	ldr.w	r9, [pc, #948]	; 800b7f0 <_strtod_l+0x978>
 800b43c:	9304      	str	r3, [sp, #16]
 800b43e:	4650      	mov	r0, sl
 800b440:	4659      	mov	r1, fp
 800b442:	2300      	movs	r3, #0
 800b444:	f018 0f01 	tst.w	r8, #1
 800b448:	d004      	beq.n	800b454 <_strtod_l+0x5dc>
 800b44a:	e9d9 2300 	ldrd	r2, r3, [r9]
 800b44e:	f7f5 f8d3 	bl	80005f8 <__aeabi_dmul>
 800b452:	2301      	movs	r3, #1
 800b454:	ea5f 0868 	movs.w	r8, r8, asr #1
 800b458:	f109 0908 	add.w	r9, r9, #8
 800b45c:	d1f2      	bne.n	800b444 <_strtod_l+0x5cc>
 800b45e:	b10b      	cbz	r3, 800b464 <_strtod_l+0x5ec>
 800b460:	4682      	mov	sl, r0
 800b462:	468b      	mov	fp, r1
 800b464:	9b04      	ldr	r3, [sp, #16]
 800b466:	b1bb      	cbz	r3, 800b498 <_strtod_l+0x620>
 800b468:	f3cb 530a 	ubfx	r3, fp, #20, #11
 800b46c:	f1c3 036b 	rsb	r3, r3, #107	; 0x6b
 800b470:	2b00      	cmp	r3, #0
 800b472:	4659      	mov	r1, fp
 800b474:	dd10      	ble.n	800b498 <_strtod_l+0x620>
 800b476:	2b1f      	cmp	r3, #31
 800b478:	f340 8128 	ble.w	800b6cc <_strtod_l+0x854>
 800b47c:	2b34      	cmp	r3, #52	; 0x34
 800b47e:	bfde      	ittt	le
 800b480:	3b20      	suble	r3, #32
 800b482:	f04f 32ff 	movle.w	r2, #4294967295
 800b486:	fa02 f303 	lslle.w	r3, r2, r3
 800b48a:	f04f 0a00 	mov.w	sl, #0
 800b48e:	bfcc      	ite	gt
 800b490:	f04f 7b5c 	movgt.w	fp, #57671680	; 0x3700000
 800b494:	ea03 0b01 	andle.w	fp, r3, r1
 800b498:	2200      	movs	r2, #0
 800b49a:	2300      	movs	r3, #0
 800b49c:	4650      	mov	r0, sl
 800b49e:	4659      	mov	r1, fp
 800b4a0:	f7f5 fb12 	bl	8000ac8 <__aeabi_dcmpeq>
 800b4a4:	2800      	cmp	r0, #0
 800b4a6:	d1a4      	bne.n	800b3f2 <_strtod_l+0x57a>
 800b4a8:	9b09      	ldr	r3, [sp, #36]	; 0x24
 800b4aa:	9300      	str	r3, [sp, #0]
 800b4ac:	990a      	ldr	r1, [sp, #40]	; 0x28
 800b4ae:	462b      	mov	r3, r5
 800b4b0:	463a      	mov	r2, r7
 800b4b2:	4620      	mov	r0, r4
 800b4b4:	f001 ff2a 	bl	800d30c <__s2b>
 800b4b8:	9009      	str	r0, [sp, #36]	; 0x24
 800b4ba:	2800      	cmp	r0, #0
 800b4bc:	f43f af24 	beq.w	800b308 <_strtod_l+0x490>
 800b4c0:	9b07      	ldr	r3, [sp, #28]
 800b4c2:	1b9e      	subs	r6, r3, r6
 800b4c4:	9b08      	ldr	r3, [sp, #32]
 800b4c6:	2b00      	cmp	r3, #0
 800b4c8:	bfb4      	ite	lt
 800b4ca:	4633      	movlt	r3, r6
 800b4cc:	2300      	movge	r3, #0
 800b4ce:	9310      	str	r3, [sp, #64]	; 0x40
 800b4d0:	9b08      	ldr	r3, [sp, #32]
 800b4d2:	2500      	movs	r5, #0
 800b4d4:	ea23 73e3 	bic.w	r3, r3, r3, asr #31
 800b4d8:	9318      	str	r3, [sp, #96]	; 0x60
 800b4da:	462e      	mov	r6, r5
 800b4dc:	9b09      	ldr	r3, [sp, #36]	; 0x24
 800b4de:	4620      	mov	r0, r4
 800b4e0:	6859      	ldr	r1, [r3, #4]
 800b4e2:	f001 fe67 	bl	800d1b4 <_Balloc>
 800b4e6:	9007      	str	r0, [sp, #28]
 800b4e8:	2800      	cmp	r0, #0
 800b4ea:	f43f af11 	beq.w	800b310 <_strtod_l+0x498>
 800b4ee:	9b09      	ldr	r3, [sp, #36]	; 0x24
 800b4f0:	691a      	ldr	r2, [r3, #16]
 800b4f2:	3202      	adds	r2, #2
 800b4f4:	f103 010c 	add.w	r1, r3, #12
 800b4f8:	0092      	lsls	r2, r2, #2
 800b4fa:	300c      	adds	r0, #12
 800b4fc:	f7fe fccf 	bl	8009e9e <memcpy>
 800b500:	ec4b ab10 	vmov	d0, sl, fp
 800b504:	aa20      	add	r2, sp, #128	; 0x80
 800b506:	a91f      	add	r1, sp, #124	; 0x7c
 800b508:	4620      	mov	r0, r4
 800b50a:	e9cd ab0a 	strd	sl, fp, [sp, #40]	; 0x28
 800b50e:	f002 fa39 	bl	800d984 <__d2b>
 800b512:	901e      	str	r0, [sp, #120]	; 0x78
 800b514:	2800      	cmp	r0, #0
 800b516:	f43f aefb 	beq.w	800b310 <_strtod_l+0x498>
 800b51a:	2101      	movs	r1, #1
 800b51c:	4620      	mov	r0, r4
 800b51e:	f001 ff8f 	bl	800d440 <__i2b>
 800b522:	4606      	mov	r6, r0
 800b524:	2800      	cmp	r0, #0
 800b526:	f43f aef3 	beq.w	800b310 <_strtod_l+0x498>
 800b52a:	9b1f      	ldr	r3, [sp, #124]	; 0x7c
 800b52c:	9904      	ldr	r1, [sp, #16]
 800b52e:	2b00      	cmp	r3, #0
 800b530:	bfab      	itete	ge
 800b532:	9a10      	ldrge	r2, [sp, #64]	; 0x40
 800b534:	9a18      	ldrlt	r2, [sp, #96]	; 0x60
 800b536:	9f18      	ldrge	r7, [sp, #96]	; 0x60
 800b538:	f8dd 9040 	ldrlt.w	r9, [sp, #64]	; 0x40
 800b53c:	bfac      	ite	ge
 800b53e:	eb03 0902 	addge.w	r9, r3, r2
 800b542:	1ad7      	sublt	r7, r2, r3
 800b544:	9a20      	ldr	r2, [sp, #128]	; 0x80
 800b546:	eba3 0801 	sub.w	r8, r3, r1
 800b54a:	4490      	add	r8, r2
 800b54c:	4ba3      	ldr	r3, [pc, #652]	; (800b7dc <_strtod_l+0x964>)
 800b54e:	f108 38ff 	add.w	r8, r8, #4294967295
 800b552:	4598      	cmp	r8, r3
 800b554:	f1c2 0236 	rsb	r2, r2, #54	; 0x36
 800b558:	f280 80cc 	bge.w	800b6f4 <_strtod_l+0x87c>
 800b55c:	eba3 0308 	sub.w	r3, r3, r8
 800b560:	2b1f      	cmp	r3, #31
 800b562:	eba2 0203 	sub.w	r2, r2, r3
 800b566:	f04f 0101 	mov.w	r1, #1
 800b56a:	f300 80b6 	bgt.w	800b6da <_strtod_l+0x862>
 800b56e:	fa01 f303 	lsl.w	r3, r1, r3
 800b572:	9311      	str	r3, [sp, #68]	; 0x44
 800b574:	2300      	movs	r3, #0
 800b576:	930c      	str	r3, [sp, #48]	; 0x30
 800b578:	eb09 0802 	add.w	r8, r9, r2
 800b57c:	9b04      	ldr	r3, [sp, #16]
 800b57e:	45c1      	cmp	r9, r8
 800b580:	4417      	add	r7, r2
 800b582:	441f      	add	r7, r3
 800b584:	464b      	mov	r3, r9
 800b586:	bfa8      	it	ge
 800b588:	4643      	movge	r3, r8
 800b58a:	42bb      	cmp	r3, r7
 800b58c:	bfa8      	it	ge
 800b58e:	463b      	movge	r3, r7
 800b590:	2b00      	cmp	r3, #0
 800b592:	bfc2      	ittt	gt
 800b594:	eba8 0803 	subgt.w	r8, r8, r3
 800b598:	1aff      	subgt	r7, r7, r3
 800b59a:	eba9 0903 	subgt.w	r9, r9, r3
 800b59e:	9b10      	ldr	r3, [sp, #64]	; 0x40
 800b5a0:	2b00      	cmp	r3, #0
 800b5a2:	dd17      	ble.n	800b5d4 <_strtod_l+0x75c>
 800b5a4:	4631      	mov	r1, r6
 800b5a6:	461a      	mov	r2, r3
 800b5a8:	4620      	mov	r0, r4
 800b5aa:	f002 f805 	bl	800d5b8 <__pow5mult>
 800b5ae:	4606      	mov	r6, r0
 800b5b0:	2800      	cmp	r0, #0
 800b5b2:	f43f aead 	beq.w	800b310 <_strtod_l+0x498>
 800b5b6:	4601      	mov	r1, r0
 800b5b8:	9a1e      	ldr	r2, [sp, #120]	; 0x78
 800b5ba:	4620      	mov	r0, r4
 800b5bc:	f001 ff56 	bl	800d46c <__multiply>
 800b5c0:	900f      	str	r0, [sp, #60]	; 0x3c
 800b5c2:	2800      	cmp	r0, #0
 800b5c4:	f43f aea4 	beq.w	800b310 <_strtod_l+0x498>
 800b5c8:	991e      	ldr	r1, [sp, #120]	; 0x78
 800b5ca:	4620      	mov	r0, r4
 800b5cc:	f001 fe32 	bl	800d234 <_Bfree>
 800b5d0:	9b0f      	ldr	r3, [sp, #60]	; 0x3c
 800b5d2:	931e      	str	r3, [sp, #120]	; 0x78
 800b5d4:	f1b8 0f00 	cmp.w	r8, #0
 800b5d8:	f300 8091 	bgt.w	800b6fe <_strtod_l+0x886>
 800b5dc:	9b08      	ldr	r3, [sp, #32]
 800b5de:	2b00      	cmp	r3, #0
 800b5e0:	dd08      	ble.n	800b5f4 <_strtod_l+0x77c>
 800b5e2:	9a18      	ldr	r2, [sp, #96]	; 0x60
 800b5e4:	9907      	ldr	r1, [sp, #28]
 800b5e6:	4620      	mov	r0, r4
 800b5e8:	f001 ffe6 	bl	800d5b8 <__pow5mult>
 800b5ec:	9007      	str	r0, [sp, #28]
 800b5ee:	2800      	cmp	r0, #0
 800b5f0:	f43f ae8e 	beq.w	800b310 <_strtod_l+0x498>
 800b5f4:	2f00      	cmp	r7, #0
 800b5f6:	dd08      	ble.n	800b60a <_strtod_l+0x792>
 800b5f8:	9907      	ldr	r1, [sp, #28]
 800b5fa:	463a      	mov	r2, r7
 800b5fc:	4620      	mov	r0, r4
 800b5fe:	f002 f835 	bl	800d66c <__lshift>
 800b602:	9007      	str	r0, [sp, #28]
 800b604:	2800      	cmp	r0, #0
 800b606:	f43f ae83 	beq.w	800b310 <_strtod_l+0x498>
 800b60a:	f1b9 0f00 	cmp.w	r9, #0
 800b60e:	dd08      	ble.n	800b622 <_strtod_l+0x7aa>
 800b610:	4631      	mov	r1, r6
 800b612:	464a      	mov	r2, r9
 800b614:	4620      	mov	r0, r4
 800b616:	f002 f829 	bl	800d66c <__lshift>
 800b61a:	4606      	mov	r6, r0
 800b61c:	2800      	cmp	r0, #0
 800b61e:	f43f ae77 	beq.w	800b310 <_strtod_l+0x498>
 800b622:	9a07      	ldr	r2, [sp, #28]
 800b624:	991e      	ldr	r1, [sp, #120]	; 0x78
 800b626:	4620      	mov	r0, r4
 800b628:	f002 f8a8 	bl	800d77c <__mdiff>
 800b62c:	4605      	mov	r5, r0
 800b62e:	2800      	cmp	r0, #0
 800b630:	f43f ae6e 	beq.w	800b310 <_strtod_l+0x498>
 800b634:	68c3      	ldr	r3, [r0, #12]
 800b636:	930f      	str	r3, [sp, #60]	; 0x3c
 800b638:	2300      	movs	r3, #0
 800b63a:	60c3      	str	r3, [r0, #12]
 800b63c:	4631      	mov	r1, r6
 800b63e:	f002 f881 	bl	800d744 <__mcmp>
 800b642:	2800      	cmp	r0, #0
 800b644:	da65      	bge.n	800b712 <_strtod_l+0x89a>
 800b646:	9b0f      	ldr	r3, [sp, #60]	; 0x3c
 800b648:	ea53 030a 	orrs.w	r3, r3, sl
 800b64c:	f040 8087 	bne.w	800b75e <_strtod_l+0x8e6>
 800b650:	f3cb 0313 	ubfx	r3, fp, #0, #20
 800b654:	2b00      	cmp	r3, #0
 800b656:	f040 8082 	bne.w	800b75e <_strtod_l+0x8e6>
 800b65a:	f02b 4300 	bic.w	r3, fp, #2147483648	; 0x80000000
 800b65e:	0d1b      	lsrs	r3, r3, #20
 800b660:	051b      	lsls	r3, r3, #20
 800b662:	f1b3 6fd6 	cmp.w	r3, #112197632	; 0x6b00000
 800b666:	d97a      	bls.n	800b75e <_strtod_l+0x8e6>
 800b668:	696b      	ldr	r3, [r5, #20]
 800b66a:	b913      	cbnz	r3, 800b672 <_strtod_l+0x7fa>
 800b66c:	692b      	ldr	r3, [r5, #16]
 800b66e:	2b01      	cmp	r3, #1
 800b670:	dd75      	ble.n	800b75e <_strtod_l+0x8e6>
 800b672:	4629      	mov	r1, r5
 800b674:	2201      	movs	r2, #1
 800b676:	4620      	mov	r0, r4
 800b678:	f001 fff8 	bl	800d66c <__lshift>
 800b67c:	4631      	mov	r1, r6
 800b67e:	4605      	mov	r5, r0
 800b680:	f002 f860 	bl	800d744 <__mcmp>
 800b684:	2800      	cmp	r0, #0
 800b686:	dd6a      	ble.n	800b75e <_strtod_l+0x8e6>
 800b688:	9904      	ldr	r1, [sp, #16]
 800b68a:	4a55      	ldr	r2, [pc, #340]	; (800b7e0 <_strtod_l+0x968>)
 800b68c:	465b      	mov	r3, fp
 800b68e:	2900      	cmp	r1, #0
 800b690:	f000 8085 	beq.w	800b79e <_strtod_l+0x926>
 800b694:	ea02 010b 	and.w	r1, r2, fp
 800b698:	f1b1 6fd6 	cmp.w	r1, #112197632	; 0x6b00000
 800b69c:	dc7f      	bgt.n	800b79e <_strtod_l+0x926>
 800b69e:	f1b1 7f5c 	cmp.w	r1, #57671680	; 0x3700000
 800b6a2:	f77f aeaa 	ble.w	800b3fa <_strtod_l+0x582>
 800b6a6:	4a4f      	ldr	r2, [pc, #316]	; (800b7e4 <_strtod_l+0x96c>)
 800b6a8:	2300      	movs	r3, #0
 800b6aa:	e9cd 3216 	strd	r3, r2, [sp, #88]	; 0x58
 800b6ae:	4650      	mov	r0, sl
 800b6b0:	e9dd 2316 	ldrd	r2, r3, [sp, #88]	; 0x58
 800b6b4:	4659      	mov	r1, fp
 800b6b6:	f7f4 ff9f 	bl	80005f8 <__aeabi_dmul>
 800b6ba:	460b      	mov	r3, r1
 800b6bc:	4303      	orrs	r3, r0
 800b6be:	bf08      	it	eq
 800b6c0:	2322      	moveq	r3, #34	; 0x22
 800b6c2:	4682      	mov	sl, r0
 800b6c4:	468b      	mov	fp, r1
 800b6c6:	bf08      	it	eq
 800b6c8:	6023      	streq	r3, [r4, #0]
 800b6ca:	e62b      	b.n	800b324 <_strtod_l+0x4ac>
 800b6cc:	f04f 32ff 	mov.w	r2, #4294967295
 800b6d0:	fa02 f303 	lsl.w	r3, r2, r3
 800b6d4:	ea03 0a0a 	and.w	sl, r3, sl
 800b6d8:	e6de      	b.n	800b498 <_strtod_l+0x620>
 800b6da:	f1c8 487f 	rsb	r8, r8, #4278190080	; 0xff000000
 800b6de:	f508 087f 	add.w	r8, r8, #16711680	; 0xff0000
 800b6e2:	f508 487b 	add.w	r8, r8, #64256	; 0xfb00
 800b6e6:	f108 08e2 	add.w	r8, r8, #226	; 0xe2
 800b6ea:	fa01 f308 	lsl.w	r3, r1, r8
 800b6ee:	930c      	str	r3, [sp, #48]	; 0x30
 800b6f0:	9111      	str	r1, [sp, #68]	; 0x44
 800b6f2:	e741      	b.n	800b578 <_strtod_l+0x700>
 800b6f4:	2300      	movs	r3, #0
 800b6f6:	930c      	str	r3, [sp, #48]	; 0x30
 800b6f8:	2301      	movs	r3, #1
 800b6fa:	9311      	str	r3, [sp, #68]	; 0x44
 800b6fc:	e73c      	b.n	800b578 <_strtod_l+0x700>
 800b6fe:	991e      	ldr	r1, [sp, #120]	; 0x78
 800b700:	4642      	mov	r2, r8
 800b702:	4620      	mov	r0, r4
 800b704:	f001 ffb2 	bl	800d66c <__lshift>
 800b708:	901e      	str	r0, [sp, #120]	; 0x78
 800b70a:	2800      	cmp	r0, #0
 800b70c:	f47f af66 	bne.w	800b5dc <_strtod_l+0x764>
 800b710:	e5fe      	b.n	800b310 <_strtod_l+0x498>
 800b712:	465f      	mov	r7, fp
 800b714:	d16e      	bne.n	800b7f4 <_strtod_l+0x97c>
 800b716:	9a0f      	ldr	r2, [sp, #60]	; 0x3c
 800b718:	f3cb 0313 	ubfx	r3, fp, #0, #20
 800b71c:	b342      	cbz	r2, 800b770 <_strtod_l+0x8f8>
 800b71e:	4a32      	ldr	r2, [pc, #200]	; (800b7e8 <_strtod_l+0x970>)
 800b720:	4293      	cmp	r3, r2
 800b722:	d128      	bne.n	800b776 <_strtod_l+0x8fe>
 800b724:	9b04      	ldr	r3, [sp, #16]
 800b726:	4650      	mov	r0, sl
 800b728:	b1eb      	cbz	r3, 800b766 <_strtod_l+0x8ee>
 800b72a:	4a2d      	ldr	r2, [pc, #180]	; (800b7e0 <_strtod_l+0x968>)
 800b72c:	403a      	ands	r2, r7
 800b72e:	f1b2 6fd4 	cmp.w	r2, #111149056	; 0x6a00000
 800b732:	f04f 31ff 	mov.w	r1, #4294967295
 800b736:	d819      	bhi.n	800b76c <_strtod_l+0x8f4>
 800b738:	0d12      	lsrs	r2, r2, #20
 800b73a:	f1c2 036b 	rsb	r3, r2, #107	; 0x6b
 800b73e:	fa01 f303 	lsl.w	r3, r1, r3
 800b742:	4298      	cmp	r0, r3
 800b744:	d117      	bne.n	800b776 <_strtod_l+0x8fe>
 800b746:	4b29      	ldr	r3, [pc, #164]	; (800b7ec <_strtod_l+0x974>)
 800b748:	429f      	cmp	r7, r3
 800b74a:	d102      	bne.n	800b752 <_strtod_l+0x8da>
 800b74c:	3001      	adds	r0, #1
 800b74e:	f43f addf 	beq.w	800b310 <_strtod_l+0x498>
 800b752:	4b23      	ldr	r3, [pc, #140]	; (800b7e0 <_strtod_l+0x968>)
 800b754:	403b      	ands	r3, r7
 800b756:	f503 1b80 	add.w	fp, r3, #1048576	; 0x100000
 800b75a:	f04f 0a00 	mov.w	sl, #0
 800b75e:	9b04      	ldr	r3, [sp, #16]
 800b760:	2b00      	cmp	r3, #0
 800b762:	d1a0      	bne.n	800b6a6 <_strtod_l+0x82e>
 800b764:	e5de      	b.n	800b324 <_strtod_l+0x4ac>
 800b766:	f04f 33ff 	mov.w	r3, #4294967295
 800b76a:	e7ea      	b.n	800b742 <_strtod_l+0x8ca>
 800b76c:	460b      	mov	r3, r1
 800b76e:	e7e8      	b.n	800b742 <_strtod_l+0x8ca>
 800b770:	ea53 030a 	orrs.w	r3, r3, sl
 800b774:	d088      	beq.n	800b688 <_strtod_l+0x810>
 800b776:	9b0c      	ldr	r3, [sp, #48]	; 0x30
 800b778:	b1db      	cbz	r3, 800b7b2 <_strtod_l+0x93a>
 800b77a:	423b      	tst	r3, r7
 800b77c:	d0ef      	beq.n	800b75e <_strtod_l+0x8e6>
 800b77e:	9b0f      	ldr	r3, [sp, #60]	; 0x3c
 800b780:	9a04      	ldr	r2, [sp, #16]
 800b782:	4650      	mov	r0, sl
 800b784:	4659      	mov	r1, fp
 800b786:	b1c3      	cbz	r3, 800b7ba <_strtod_l+0x942>
 800b788:	f7ff fb57 	bl	800ae3a <sulp>
 800b78c:	4602      	mov	r2, r0
 800b78e:	460b      	mov	r3, r1
 800b790:	e9dd 010a 	ldrd	r0, r1, [sp, #40]	; 0x28
 800b794:	f7f4 fd7a 	bl	800028c <__adddf3>
 800b798:	4682      	mov	sl, r0
 800b79a:	468b      	mov	fp, r1
 800b79c:	e7df      	b.n	800b75e <_strtod_l+0x8e6>
 800b79e:	4013      	ands	r3, r2
 800b7a0:	f5a3 1380 	sub.w	r3, r3, #1048576	; 0x100000
 800b7a4:	ea6f 5b13 	mvn.w	fp, r3, lsr #20
 800b7a8:	ea6f 5b0b 	mvn.w	fp, fp, lsl #20
 800b7ac:	f04f 3aff 	mov.w	sl, #4294967295
 800b7b0:	e7d5      	b.n	800b75e <_strtod_l+0x8e6>
 800b7b2:	9b11      	ldr	r3, [sp, #68]	; 0x44
 800b7b4:	ea13 0f0a 	tst.w	r3, sl
 800b7b8:	e7e0      	b.n	800b77c <_strtod_l+0x904>
 800b7ba:	f7ff fb3e 	bl	800ae3a <sulp>
 800b7be:	4602      	mov	r2, r0
 800b7c0:	460b      	mov	r3, r1
 800b7c2:	e9dd 010a 	ldrd	r0, r1, [sp, #40]	; 0x28
 800b7c6:	f7f4 fd5f 	bl	8000288 <__aeabi_dsub>
 800b7ca:	2200      	movs	r2, #0
 800b7cc:	2300      	movs	r3, #0
 800b7ce:	4682      	mov	sl, r0
 800b7d0:	468b      	mov	fp, r1
 800b7d2:	f7f5 f979 	bl	8000ac8 <__aeabi_dcmpeq>
 800b7d6:	2800      	cmp	r0, #0
 800b7d8:	d0c1      	beq.n	800b75e <_strtod_l+0x8e6>
 800b7da:	e60e      	b.n	800b3fa <_strtod_l+0x582>
 800b7dc:	fffffc02 	.word	0xfffffc02
 800b7e0:	7ff00000 	.word	0x7ff00000
 800b7e4:	39500000 	.word	0x39500000
 800b7e8:	000fffff 	.word	0x000fffff
 800b7ec:	7fefffff 	.word	0x7fefffff
 800b7f0:	0800fef8 	.word	0x0800fef8
 800b7f4:	4631      	mov	r1, r6
 800b7f6:	4628      	mov	r0, r5
 800b7f8:	f002 f920 	bl	800da3c <__ratio>
 800b7fc:	ec59 8b10 	vmov	r8, r9, d0
 800b800:	ee10 0a10 	vmov	r0, s0
 800b804:	2200      	movs	r2, #0
 800b806:	f04f 4380 	mov.w	r3, #1073741824	; 0x40000000
 800b80a:	4649      	mov	r1, r9
 800b80c:	f7f5 f970 	bl	8000af0 <__aeabi_dcmple>
 800b810:	2800      	cmp	r0, #0
 800b812:	d07c      	beq.n	800b90e <_strtod_l+0xa96>
 800b814:	9b0f      	ldr	r3, [sp, #60]	; 0x3c
 800b816:	2b00      	cmp	r3, #0
 800b818:	d04c      	beq.n	800b8b4 <_strtod_l+0xa3c>
 800b81a:	4b95      	ldr	r3, [pc, #596]	; (800ba70 <_strtod_l+0xbf8>)
 800b81c:	2200      	movs	r2, #0
 800b81e:	e9cd 230c 	strd	r2, r3, [sp, #48]	; 0x30
 800b822:	f8df 924c 	ldr.w	r9, [pc, #588]	; 800ba70 <_strtod_l+0xbf8>
 800b826:	f04f 0800 	mov.w	r8, #0
 800b82a:	4b92      	ldr	r3, [pc, #584]	; (800ba74 <_strtod_l+0xbfc>)
 800b82c:	403b      	ands	r3, r7
 800b82e:	9311      	str	r3, [sp, #68]	; 0x44
 800b830:	9a11      	ldr	r2, [sp, #68]	; 0x44
 800b832:	4b91      	ldr	r3, [pc, #580]	; (800ba78 <_strtod_l+0xc00>)
 800b834:	429a      	cmp	r2, r3
 800b836:	f040 80b2 	bne.w	800b99e <_strtod_l+0xb26>
 800b83a:	e9dd 230a 	ldrd	r2, r3, [sp, #40]	; 0x28
 800b83e:	e9dd 010c 	ldrd	r0, r1, [sp, #48]	; 0x30
 800b842:	f1a7 7b54 	sub.w	fp, r7, #55574528	; 0x3500000
 800b846:	ec4b ab10 	vmov	d0, sl, fp
 800b84a:	e9cd 2316 	strd	r2, r3, [sp, #88]	; 0x58
 800b84e:	e9cd 010c 	strd	r0, r1, [sp, #48]	; 0x30
 800b852:	f002 f81b 	bl	800d88c <__ulp>
 800b856:	e9dd 010c 	ldrd	r0, r1, [sp, #48]	; 0x30
 800b85a:	ec53 2b10 	vmov	r2, r3, d0
 800b85e:	f7f4 fecb 	bl	80005f8 <__aeabi_dmul>
 800b862:	4652      	mov	r2, sl
 800b864:	465b      	mov	r3, fp
 800b866:	f7f4 fd11 	bl	800028c <__adddf3>
 800b86a:	460b      	mov	r3, r1
 800b86c:	4981      	ldr	r1, [pc, #516]	; (800ba74 <_strtod_l+0xbfc>)
 800b86e:	4a83      	ldr	r2, [pc, #524]	; (800ba7c <_strtod_l+0xc04>)
 800b870:	4019      	ands	r1, r3
 800b872:	4291      	cmp	r1, r2
 800b874:	4682      	mov	sl, r0
 800b876:	d95e      	bls.n	800b936 <_strtod_l+0xabe>
 800b878:	9b0b      	ldr	r3, [sp, #44]	; 0x2c
 800b87a:	f102 7254 	add.w	r2, r2, #55574528	; 0x3500000
 800b87e:	4293      	cmp	r3, r2
 800b880:	d103      	bne.n	800b88a <_strtod_l+0xa12>
 800b882:	9b0a      	ldr	r3, [sp, #40]	; 0x28
 800b884:	3301      	adds	r3, #1
 800b886:	f43f ad43 	beq.w	800b310 <_strtod_l+0x498>
 800b88a:	f8df b1fc 	ldr.w	fp, [pc, #508]	; 800ba88 <_strtod_l+0xc10>
 800b88e:	f04f 3aff 	mov.w	sl, #4294967295
 800b892:	991e      	ldr	r1, [sp, #120]	; 0x78
 800b894:	4620      	mov	r0, r4
 800b896:	f001 fccd 	bl	800d234 <_Bfree>
 800b89a:	9907      	ldr	r1, [sp, #28]
 800b89c:	4620      	mov	r0, r4
 800b89e:	f001 fcc9 	bl	800d234 <_Bfree>
 800b8a2:	4631      	mov	r1, r6
 800b8a4:	4620      	mov	r0, r4
 800b8a6:	f001 fcc5 	bl	800d234 <_Bfree>
 800b8aa:	4629      	mov	r1, r5
 800b8ac:	4620      	mov	r0, r4
 800b8ae:	f001 fcc1 	bl	800d234 <_Bfree>
 800b8b2:	e613      	b.n	800b4dc <_strtod_l+0x664>
 800b8b4:	f1ba 0f00 	cmp.w	sl, #0
 800b8b8:	d11b      	bne.n	800b8f2 <_strtod_l+0xa7a>
 800b8ba:	f3cb 0313 	ubfx	r3, fp, #0, #20
 800b8be:	b9f3      	cbnz	r3, 800b8fe <_strtod_l+0xa86>
 800b8c0:	4b6b      	ldr	r3, [pc, #428]	; (800ba70 <_strtod_l+0xbf8>)
 800b8c2:	2200      	movs	r2, #0
 800b8c4:	4640      	mov	r0, r8
 800b8c6:	4649      	mov	r1, r9
 800b8c8:	f7f5 f908 	bl	8000adc <__aeabi_dcmplt>
 800b8cc:	b9d0      	cbnz	r0, 800b904 <_strtod_l+0xa8c>
 800b8ce:	4640      	mov	r0, r8
 800b8d0:	4649      	mov	r1, r9
 800b8d2:	4b6b      	ldr	r3, [pc, #428]	; (800ba80 <_strtod_l+0xc08>)
 800b8d4:	2200      	movs	r2, #0
 800b8d6:	f7f4 fe8f 	bl	80005f8 <__aeabi_dmul>
 800b8da:	4680      	mov	r8, r0
 800b8dc:	4689      	mov	r9, r1
 800b8de:	f109 4300 	add.w	r3, r9, #2147483648	; 0x80000000
 800b8e2:	f8cd 8068 	str.w	r8, [sp, #104]	; 0x68
 800b8e6:	931b      	str	r3, [sp, #108]	; 0x6c
 800b8e8:	e9dd 231a 	ldrd	r2, r3, [sp, #104]	; 0x68
 800b8ec:	e9cd 230c 	strd	r2, r3, [sp, #48]	; 0x30
 800b8f0:	e79b      	b.n	800b82a <_strtod_l+0x9b2>
 800b8f2:	f1ba 0f01 	cmp.w	sl, #1
 800b8f6:	d102      	bne.n	800b8fe <_strtod_l+0xa86>
 800b8f8:	2f00      	cmp	r7, #0
 800b8fa:	f43f ad7e 	beq.w	800b3fa <_strtod_l+0x582>
 800b8fe:	4b61      	ldr	r3, [pc, #388]	; (800ba84 <_strtod_l+0xc0c>)
 800b900:	2200      	movs	r2, #0
 800b902:	e78c      	b.n	800b81e <_strtod_l+0x9a6>
 800b904:	f8df 9178 	ldr.w	r9, [pc, #376]	; 800ba80 <_strtod_l+0xc08>
 800b908:	f04f 0800 	mov.w	r8, #0
 800b90c:	e7e7      	b.n	800b8de <_strtod_l+0xa66>
 800b90e:	4b5c      	ldr	r3, [pc, #368]	; (800ba80 <_strtod_l+0xc08>)
 800b910:	4640      	mov	r0, r8
 800b912:	4649      	mov	r1, r9
 800b914:	2200      	movs	r2, #0
 800b916:	f7f4 fe6f 	bl	80005f8 <__aeabi_dmul>
 800b91a:	9b0f      	ldr	r3, [sp, #60]	; 0x3c
 800b91c:	4680      	mov	r8, r0
 800b91e:	4689      	mov	r9, r1
 800b920:	b933      	cbnz	r3, 800b930 <_strtod_l+0xab8>
 800b922:	f101 4300 	add.w	r3, r1, #2147483648	; 0x80000000
 800b926:	9012      	str	r0, [sp, #72]	; 0x48
 800b928:	9313      	str	r3, [sp, #76]	; 0x4c
 800b92a:	e9dd 2312 	ldrd	r2, r3, [sp, #72]	; 0x48
 800b92e:	e7dd      	b.n	800b8ec <_strtod_l+0xa74>
 800b930:	e9cd 8912 	strd	r8, r9, [sp, #72]	; 0x48
 800b934:	e7f9      	b.n	800b92a <_strtod_l+0xab2>
 800b936:	f103 7b54 	add.w	fp, r3, #55574528	; 0x3500000
 800b93a:	9b04      	ldr	r3, [sp, #16]
 800b93c:	2b00      	cmp	r3, #0
 800b93e:	d1a8      	bne.n	800b892 <_strtod_l+0xa1a>
 800b940:	f02b 4300 	bic.w	r3, fp, #2147483648	; 0x80000000
 800b944:	9a11      	ldr	r2, [sp, #68]	; 0x44
 800b946:	0d1b      	lsrs	r3, r3, #20
 800b948:	051b      	lsls	r3, r3, #20
 800b94a:	429a      	cmp	r2, r3
 800b94c:	d1a1      	bne.n	800b892 <_strtod_l+0xa1a>
 800b94e:	4640      	mov	r0, r8
 800b950:	4649      	mov	r1, r9
 800b952:	f7f5 f9b1 	bl	8000cb8 <__aeabi_d2lz>
 800b956:	f7f4 fe21 	bl	800059c <__aeabi_l2d>
 800b95a:	4602      	mov	r2, r0
 800b95c:	460b      	mov	r3, r1
 800b95e:	4640      	mov	r0, r8
 800b960:	4649      	mov	r1, r9
 800b962:	f7f4 fc91 	bl	8000288 <__aeabi_dsub>
 800b966:	9a0f      	ldr	r2, [sp, #60]	; 0x3c
 800b968:	f3cb 0313 	ubfx	r3, fp, #0, #20
 800b96c:	ea43 030a 	orr.w	r3, r3, sl
 800b970:	4313      	orrs	r3, r2
 800b972:	4680      	mov	r8, r0
 800b974:	4689      	mov	r9, r1
 800b976:	d053      	beq.n	800ba20 <_strtod_l+0xba8>
 800b978:	a335      	add	r3, pc, #212	; (adr r3, 800ba50 <_strtod_l+0xbd8>)
 800b97a:	e9d3 2300 	ldrd	r2, r3, [r3]
 800b97e:	f7f5 f8ad 	bl	8000adc <__aeabi_dcmplt>
 800b982:	2800      	cmp	r0, #0
 800b984:	f47f acce 	bne.w	800b324 <_strtod_l+0x4ac>
 800b988:	a333      	add	r3, pc, #204	; (adr r3, 800ba58 <_strtod_l+0xbe0>)
 800b98a:	e9d3 2300 	ldrd	r2, r3, [r3]
 800b98e:	4640      	mov	r0, r8
 800b990:	4649      	mov	r1, r9
 800b992:	f7f5 f8c1 	bl	8000b18 <__aeabi_dcmpgt>
 800b996:	2800      	cmp	r0, #0
 800b998:	f43f af7b 	beq.w	800b892 <_strtod_l+0xa1a>
 800b99c:	e4c2      	b.n	800b324 <_strtod_l+0x4ac>
 800b99e:	9b04      	ldr	r3, [sp, #16]
 800b9a0:	b333      	cbz	r3, 800b9f0 <_strtod_l+0xb78>
 800b9a2:	9b11      	ldr	r3, [sp, #68]	; 0x44
 800b9a4:	f1b3 6fd4 	cmp.w	r3, #111149056	; 0x6a00000
 800b9a8:	d822      	bhi.n	800b9f0 <_strtod_l+0xb78>
 800b9aa:	a32d      	add	r3, pc, #180	; (adr r3, 800ba60 <_strtod_l+0xbe8>)
 800b9ac:	e9d3 2300 	ldrd	r2, r3, [r3]
 800b9b0:	4640      	mov	r0, r8
 800b9b2:	4649      	mov	r1, r9
 800b9b4:	f7f5 f89c 	bl	8000af0 <__aeabi_dcmple>
 800b9b8:	b1a0      	cbz	r0, 800b9e4 <_strtod_l+0xb6c>
 800b9ba:	4649      	mov	r1, r9
 800b9bc:	4640      	mov	r0, r8
 800b9be:	f7f5 f8f3 	bl	8000ba8 <__aeabi_d2uiz>
 800b9c2:	2801      	cmp	r0, #1
 800b9c4:	bf38      	it	cc
 800b9c6:	2001      	movcc	r0, #1
 800b9c8:	f7f4 fd9c 	bl	8000504 <__aeabi_ui2d>
 800b9cc:	9b0f      	ldr	r3, [sp, #60]	; 0x3c
 800b9ce:	4680      	mov	r8, r0
 800b9d0:	4689      	mov	r9, r1
 800b9d2:	bb13      	cbnz	r3, 800ba1a <_strtod_l+0xba2>
 800b9d4:	f101 4300 	add.w	r3, r1, #2147483648	; 0x80000000
 800b9d8:	9014      	str	r0, [sp, #80]	; 0x50
 800b9da:	9315      	str	r3, [sp, #84]	; 0x54
 800b9dc:	e9dd 2314 	ldrd	r2, r3, [sp, #80]	; 0x50
 800b9e0:	e9cd 230c 	strd	r2, r3, [sp, #48]	; 0x30
 800b9e4:	9b0d      	ldr	r3, [sp, #52]	; 0x34
 800b9e6:	9a11      	ldr	r2, [sp, #68]	; 0x44
 800b9e8:	f103 63d6 	add.w	r3, r3, #112197632	; 0x6b00000
 800b9ec:	1a9b      	subs	r3, r3, r2
 800b9ee:	930d      	str	r3, [sp, #52]	; 0x34
 800b9f0:	e9dd 010c 	ldrd	r0, r1, [sp, #48]	; 0x30
 800b9f4:	ed9d 0b0a 	vldr	d0, [sp, #40]	; 0x28
 800b9f8:	e9cd 010c 	strd	r0, r1, [sp, #48]	; 0x30
 800b9fc:	f001 ff46 	bl	800d88c <__ulp>
 800ba00:	e9dd 010c 	ldrd	r0, r1, [sp, #48]	; 0x30
 800ba04:	ec53 2b10 	vmov	r2, r3, d0
 800ba08:	f7f4 fdf6 	bl	80005f8 <__aeabi_dmul>
 800ba0c:	e9dd 230a 	ldrd	r2, r3, [sp, #40]	; 0x28
 800ba10:	f7f4 fc3c 	bl	800028c <__adddf3>
 800ba14:	4682      	mov	sl, r0
 800ba16:	468b      	mov	fp, r1
 800ba18:	e78f      	b.n	800b93a <_strtod_l+0xac2>
 800ba1a:	e9cd 8914 	strd	r8, r9, [sp, #80]	; 0x50
 800ba1e:	e7dd      	b.n	800b9dc <_strtod_l+0xb64>
 800ba20:	a311      	add	r3, pc, #68	; (adr r3, 800ba68 <_strtod_l+0xbf0>)
 800ba22:	e9d3 2300 	ldrd	r2, r3, [r3]
 800ba26:	f7f5 f859 	bl	8000adc <__aeabi_dcmplt>
 800ba2a:	e7b4      	b.n	800b996 <_strtod_l+0xb1e>
 800ba2c:	2300      	movs	r3, #0
 800ba2e:	930e      	str	r3, [sp, #56]	; 0x38
 800ba30:	9a19      	ldr	r2, [sp, #100]	; 0x64
 800ba32:	9b1d      	ldr	r3, [sp, #116]	; 0x74
 800ba34:	6013      	str	r3, [r2, #0]
 800ba36:	f7ff ba65 	b.w	800af04 <_strtod_l+0x8c>
 800ba3a:	2b65      	cmp	r3, #101	; 0x65
 800ba3c:	f43f ab5d 	beq.w	800b0fa <_strtod_l+0x282>
 800ba40:	2b45      	cmp	r3, #69	; 0x45
 800ba42:	f43f ab5a 	beq.w	800b0fa <_strtod_l+0x282>
 800ba46:	2201      	movs	r2, #1
 800ba48:	f7ff bb92 	b.w	800b170 <_strtod_l+0x2f8>
 800ba4c:	f3af 8000 	nop.w
 800ba50:	94a03595 	.word	0x94a03595
 800ba54:	3fdfffff 	.word	0x3fdfffff
 800ba58:	35afe535 	.word	0x35afe535
 800ba5c:	3fe00000 	.word	0x3fe00000
 800ba60:	ffc00000 	.word	0xffc00000
 800ba64:	41dfffff 	.word	0x41dfffff
 800ba68:	94a03595 	.word	0x94a03595
 800ba6c:	3fcfffff 	.word	0x3fcfffff
 800ba70:	3ff00000 	.word	0x3ff00000
 800ba74:	7ff00000 	.word	0x7ff00000
 800ba78:	7fe00000 	.word	0x7fe00000
 800ba7c:	7c9fffff 	.word	0x7c9fffff
 800ba80:	3fe00000 	.word	0x3fe00000
 800ba84:	bff00000 	.word	0xbff00000
 800ba88:	7fefffff 	.word	0x7fefffff

0800ba8c <_strtod_r>:
 800ba8c:	4b01      	ldr	r3, [pc, #4]	; (800ba94 <_strtod_r+0x8>)
 800ba8e:	f7ff b9f3 	b.w	800ae78 <_strtod_l>
 800ba92:	bf00      	nop
 800ba94:	200000a8 	.word	0x200000a8

0800ba98 <_strtol_l.isra.0>:
 800ba98:	2b01      	cmp	r3, #1
 800ba9a:	e92d 47f0 	stmdb	sp!, {r4, r5, r6, r7, r8, r9, sl, lr}
 800ba9e:	d001      	beq.n	800baa4 <_strtol_l.isra.0+0xc>
 800baa0:	2b24      	cmp	r3, #36	; 0x24
 800baa2:	d906      	bls.n	800bab2 <_strtol_l.isra.0+0x1a>
 800baa4:	f7fe f8d8 	bl	8009c58 <__errno>
 800baa8:	2316      	movs	r3, #22
 800baaa:	6003      	str	r3, [r0, #0]
 800baac:	2000      	movs	r0, #0
 800baae:	e8bd 87f0 	ldmia.w	sp!, {r4, r5, r6, r7, r8, r9, sl, pc}
 800bab2:	4f3a      	ldr	r7, [pc, #232]	; (800bb9c <_strtol_l.isra.0+0x104>)
 800bab4:	468e      	mov	lr, r1
 800bab6:	4676      	mov	r6, lr
 800bab8:	f81e 4b01 	ldrb.w	r4, [lr], #1
 800babc:	5de5      	ldrb	r5, [r4, r7]
 800babe:	f015 0508 	ands.w	r5, r5, #8
 800bac2:	d1f8      	bne.n	800bab6 <_strtol_l.isra.0+0x1e>
 800bac4:	2c2d      	cmp	r4, #45	; 0x2d
 800bac6:	d134      	bne.n	800bb32 <_strtol_l.isra.0+0x9a>
 800bac8:	f89e 4000 	ldrb.w	r4, [lr]
 800bacc:	f04f 0801 	mov.w	r8, #1
 800bad0:	f106 0e02 	add.w	lr, r6, #2
 800bad4:	2b00      	cmp	r3, #0
 800bad6:	d05c      	beq.n	800bb92 <_strtol_l.isra.0+0xfa>
 800bad8:	2b10      	cmp	r3, #16
 800bada:	d10c      	bne.n	800baf6 <_strtol_l.isra.0+0x5e>
 800badc:	2c30      	cmp	r4, #48	; 0x30
 800bade:	d10a      	bne.n	800baf6 <_strtol_l.isra.0+0x5e>
 800bae0:	f89e 4000 	ldrb.w	r4, [lr]
 800bae4:	f004 04df 	and.w	r4, r4, #223	; 0xdf
 800bae8:	2c58      	cmp	r4, #88	; 0x58
 800baea:	d14d      	bne.n	800bb88 <_strtol_l.isra.0+0xf0>
 800baec:	f89e 4001 	ldrb.w	r4, [lr, #1]
 800baf0:	2310      	movs	r3, #16
 800baf2:	f10e 0e02 	add.w	lr, lr, #2
 800baf6:	f108 4c00 	add.w	ip, r8, #2147483648	; 0x80000000
 800bafa:	f10c 3cff 	add.w	ip, ip, #4294967295
 800bafe:	2600      	movs	r6, #0
 800bb00:	fbbc f9f3 	udiv	r9, ip, r3
 800bb04:	4635      	mov	r5, r6
 800bb06:	fb03 ca19 	mls	sl, r3, r9, ip
 800bb0a:	f1a4 0730 	sub.w	r7, r4, #48	; 0x30
 800bb0e:	2f09      	cmp	r7, #9
 800bb10:	d818      	bhi.n	800bb44 <_strtol_l.isra.0+0xac>
 800bb12:	463c      	mov	r4, r7
 800bb14:	42a3      	cmp	r3, r4
 800bb16:	dd24      	ble.n	800bb62 <_strtol_l.isra.0+0xca>
 800bb18:	2e00      	cmp	r6, #0
 800bb1a:	db1f      	blt.n	800bb5c <_strtol_l.isra.0+0xc4>
 800bb1c:	45a9      	cmp	r9, r5
 800bb1e:	d31d      	bcc.n	800bb5c <_strtol_l.isra.0+0xc4>
 800bb20:	d101      	bne.n	800bb26 <_strtol_l.isra.0+0x8e>
 800bb22:	45a2      	cmp	sl, r4
 800bb24:	db1a      	blt.n	800bb5c <_strtol_l.isra.0+0xc4>
 800bb26:	fb05 4503 	mla	r5, r5, r3, r4
 800bb2a:	2601      	movs	r6, #1
 800bb2c:	f81e 4b01 	ldrb.w	r4, [lr], #1
 800bb30:	e7eb      	b.n	800bb0a <_strtol_l.isra.0+0x72>
 800bb32:	2c2b      	cmp	r4, #43	; 0x2b
 800bb34:	bf08      	it	eq
 800bb36:	f89e 4000 	ldrbeq.w	r4, [lr]
 800bb3a:	46a8      	mov	r8, r5
 800bb3c:	bf08      	it	eq
 800bb3e:	f106 0e02 	addeq.w	lr, r6, #2
 800bb42:	e7c7      	b.n	800bad4 <_strtol_l.isra.0+0x3c>
 800bb44:	f1a4 0741 	sub.w	r7, r4, #65	; 0x41
 800bb48:	2f19      	cmp	r7, #25
 800bb4a:	d801      	bhi.n	800bb50 <_strtol_l.isra.0+0xb8>
 800bb4c:	3c37      	subs	r4, #55	; 0x37
 800bb4e:	e7e1      	b.n	800bb14 <_strtol_l.isra.0+0x7c>
 800bb50:	f1a4 0761 	sub.w	r7, r4, #97	; 0x61
 800bb54:	2f19      	cmp	r7, #25
 800bb56:	d804      	bhi.n	800bb62 <_strtol_l.isra.0+0xca>
 800bb58:	3c57      	subs	r4, #87	; 0x57
 800bb5a:	e7db      	b.n	800bb14 <_strtol_l.isra.0+0x7c>
 800bb5c:	f04f 36ff 	mov.w	r6, #4294967295
 800bb60:	e7e4      	b.n	800bb2c <_strtol_l.isra.0+0x94>
 800bb62:	2e00      	cmp	r6, #0
 800bb64:	da05      	bge.n	800bb72 <_strtol_l.isra.0+0xda>
 800bb66:	2322      	movs	r3, #34	; 0x22
 800bb68:	6003      	str	r3, [r0, #0]
 800bb6a:	4665      	mov	r5, ip
 800bb6c:	b942      	cbnz	r2, 800bb80 <_strtol_l.isra.0+0xe8>
 800bb6e:	4628      	mov	r0, r5
 800bb70:	e79d      	b.n	800baae <_strtol_l.isra.0+0x16>
 800bb72:	f1b8 0f00 	cmp.w	r8, #0
 800bb76:	d000      	beq.n	800bb7a <_strtol_l.isra.0+0xe2>
 800bb78:	426d      	negs	r5, r5
 800bb7a:	2a00      	cmp	r2, #0
 800bb7c:	d0f7      	beq.n	800bb6e <_strtol_l.isra.0+0xd6>
 800bb7e:	b10e      	cbz	r6, 800bb84 <_strtol_l.isra.0+0xec>
 800bb80:	f10e 31ff 	add.w	r1, lr, #4294967295
 800bb84:	6011      	str	r1, [r2, #0]
 800bb86:	e7f2      	b.n	800bb6e <_strtol_l.isra.0+0xd6>
 800bb88:	2430      	movs	r4, #48	; 0x30
 800bb8a:	2b00      	cmp	r3, #0
 800bb8c:	d1b3      	bne.n	800baf6 <_strtol_l.isra.0+0x5e>
 800bb8e:	2308      	movs	r3, #8
 800bb90:	e7b1      	b.n	800baf6 <_strtol_l.isra.0+0x5e>
 800bb92:	2c30      	cmp	r4, #48	; 0x30
 800bb94:	d0a4      	beq.n	800bae0 <_strtol_l.isra.0+0x48>
 800bb96:	230a      	movs	r3, #10
 800bb98:	e7ad      	b.n	800baf6 <_strtol_l.isra.0+0x5e>
 800bb9a:	bf00      	nop
 800bb9c:	0800ff21 	.word	0x0800ff21

0800bba0 <_strtol_r>:
 800bba0:	f7ff bf7a 	b.w	800ba98 <_strtol_l.isra.0>

0800bba4 <_write_r>:
 800bba4:	b538      	push	{r3, r4, r5, lr}
 800bba6:	4d07      	ldr	r5, [pc, #28]	; (800bbc4 <_write_r+0x20>)
 800bba8:	4604      	mov	r4, r0
 800bbaa:	4608      	mov	r0, r1
 800bbac:	4611      	mov	r1, r2
 800bbae:	2200      	movs	r2, #0
 800bbb0:	602a      	str	r2, [r5, #0]
 800bbb2:	461a      	mov	r2, r3
 800bbb4:	f7f8 f806 	bl	8003bc4 <_write>
 800bbb8:	1c43      	adds	r3, r0, #1
 800bbba:	d102      	bne.n	800bbc2 <_write_r+0x1e>
 800bbbc:	682b      	ldr	r3, [r5, #0]
 800bbbe:	b103      	cbz	r3, 800bbc2 <_write_r+0x1e>
 800bbc0:	6023      	str	r3, [r4, #0]
 800bbc2:	bd38      	pop	{r3, r4, r5, pc}
 800bbc4:	20006354 	.word	0x20006354

0800bbc8 <_close_r>:
 800bbc8:	b538      	push	{r3, r4, r5, lr}
 800bbca:	4d06      	ldr	r5, [pc, #24]	; (800bbe4 <_close_r+0x1c>)
 800bbcc:	2300      	movs	r3, #0
 800bbce:	4604      	mov	r4, r0
 800bbd0:	4608      	mov	r0, r1
 800bbd2:	602b      	str	r3, [r5, #0]
 800bbd4:	f7f8 f804 	bl	8003be0 <_close>
 800bbd8:	1c43      	adds	r3, r0, #1
 800bbda:	d102      	bne.n	800bbe2 <_close_r+0x1a>
 800bbdc:	682b      	ldr	r3, [r5, #0]
 800bbde:	b103      	cbz	r3, 800bbe2 <_close_r+0x1a>
 800bbe0:	6023      	str	r3, [r4, #0]
 800bbe2:	bd38      	pop	{r3, r4, r5, pc}
 800bbe4:	20006354 	.word	0x20006354

0800bbe8 <quorem>:
 800bbe8:	e92d 4ff7 	stmdb	sp!, {r0, r1, r2, r4, r5, r6, r7, r8, r9, sl, fp, lr}
 800bbec:	6903      	ldr	r3, [r0, #16]
 800bbee:	690c      	ldr	r4, [r1, #16]
 800bbf0:	42a3      	cmp	r3, r4
 800bbf2:	4607      	mov	r7, r0
 800bbf4:	f2c0 8081 	blt.w	800bcfa <quorem+0x112>
 800bbf8:	3c01      	subs	r4, #1
 800bbfa:	f101 0814 	add.w	r8, r1, #20
 800bbfe:	f100 0514 	add.w	r5, r0, #20
 800bc02:	eb05 0384 	add.w	r3, r5, r4, lsl #2
 800bc06:	9301      	str	r3, [sp, #4]
 800bc08:	f858 3024 	ldr.w	r3, [r8, r4, lsl #2]
 800bc0c:	f855 2024 	ldr.w	r2, [r5, r4, lsl #2]
 800bc10:	3301      	adds	r3, #1
 800bc12:	429a      	cmp	r2, r3
 800bc14:	ea4f 0b84 	mov.w	fp, r4, lsl #2
 800bc18:	eb08 0984 	add.w	r9, r8, r4, lsl #2
 800bc1c:	fbb2 f6f3 	udiv	r6, r2, r3
 800bc20:	d331      	bcc.n	800bc86 <quorem+0x9e>
 800bc22:	f04f 0e00 	mov.w	lr, #0
 800bc26:	4640      	mov	r0, r8
 800bc28:	46ac      	mov	ip, r5
 800bc2a:	46f2      	mov	sl, lr
 800bc2c:	f850 2b04 	ldr.w	r2, [r0], #4
 800bc30:	b293      	uxth	r3, r2
 800bc32:	fb06 e303 	mla	r3, r6, r3, lr
 800bc36:	ea4f 4e13 	mov.w	lr, r3, lsr #16
 800bc3a:	b29b      	uxth	r3, r3
 800bc3c:	ebaa 0303 	sub.w	r3, sl, r3
 800bc40:	0c12      	lsrs	r2, r2, #16
 800bc42:	f8dc a000 	ldr.w	sl, [ip]
 800bc46:	fb06 e202 	mla	r2, r6, r2, lr
 800bc4a:	fa13 f38a 	uxtah	r3, r3, sl
 800bc4e:	ea4f 4e12 	mov.w	lr, r2, lsr #16
 800bc52:	fa1f fa82 	uxth.w	sl, r2
 800bc56:	f8dc 2000 	ldr.w	r2, [ip]
 800bc5a:	ebca 4212 	rsb	r2, sl, r2, lsr #16
 800bc5e:	eb02 4223 	add.w	r2, r2, r3, asr #16
 800bc62:	b29b      	uxth	r3, r3
 800bc64:	ea43 4302 	orr.w	r3, r3, r2, lsl #16
 800bc68:	4581      	cmp	r9, r0
 800bc6a:	f84c 3b04 	str.w	r3, [ip], #4
 800bc6e:	ea4f 4a22 	mov.w	sl, r2, asr #16
 800bc72:	d2db      	bcs.n	800bc2c <quorem+0x44>
 800bc74:	f855 300b 	ldr.w	r3, [r5, fp]
 800bc78:	b92b      	cbnz	r3, 800bc86 <quorem+0x9e>
 800bc7a:	9b01      	ldr	r3, [sp, #4]
 800bc7c:	3b04      	subs	r3, #4
 800bc7e:	429d      	cmp	r5, r3
 800bc80:	461a      	mov	r2, r3
 800bc82:	d32e      	bcc.n	800bce2 <quorem+0xfa>
 800bc84:	613c      	str	r4, [r7, #16]
 800bc86:	4638      	mov	r0, r7
 800bc88:	f001 fd5c 	bl	800d744 <__mcmp>
 800bc8c:	2800      	cmp	r0, #0
 800bc8e:	db24      	blt.n	800bcda <quorem+0xf2>
 800bc90:	3601      	adds	r6, #1
 800bc92:	4628      	mov	r0, r5
 800bc94:	f04f 0c00 	mov.w	ip, #0
 800bc98:	f858 2b04 	ldr.w	r2, [r8], #4
 800bc9c:	f8d0 e000 	ldr.w	lr, [r0]
 800bca0:	b293      	uxth	r3, r2
 800bca2:	ebac 0303 	sub.w	r3, ip, r3
 800bca6:	0c12      	lsrs	r2, r2, #16
 800bca8:	fa13 f38e 	uxtah	r3, r3, lr
 800bcac:	ebc2 421e 	rsb	r2, r2, lr, lsr #16
 800bcb0:	eb02 4223 	add.w	r2, r2, r3, asr #16
 800bcb4:	b29b      	uxth	r3, r3
 800bcb6:	ea43 4302 	orr.w	r3, r3, r2, lsl #16
 800bcba:	45c1      	cmp	r9, r8
 800bcbc:	f840 3b04 	str.w	r3, [r0], #4
 800bcc0:	ea4f 4c22 	mov.w	ip, r2, asr #16
 800bcc4:	d2e8      	bcs.n	800bc98 <quorem+0xb0>
 800bcc6:	f855 2024 	ldr.w	r2, [r5, r4, lsl #2]
 800bcca:	eb05 0384 	add.w	r3, r5, r4, lsl #2
 800bcce:	b922      	cbnz	r2, 800bcda <quorem+0xf2>
 800bcd0:	3b04      	subs	r3, #4
 800bcd2:	429d      	cmp	r5, r3
 800bcd4:	461a      	mov	r2, r3
 800bcd6:	d30a      	bcc.n	800bcee <quorem+0x106>
 800bcd8:	613c      	str	r4, [r7, #16]
 800bcda:	4630      	mov	r0, r6
 800bcdc:	b003      	add	sp, #12
 800bcde:	e8bd 8ff0 	ldmia.w	sp!, {r4, r5, r6, r7, r8, r9, sl, fp, pc}
 800bce2:	6812      	ldr	r2, [r2, #0]
 800bce4:	3b04      	subs	r3, #4
 800bce6:	2a00      	cmp	r2, #0
 800bce8:	d1cc      	bne.n	800bc84 <quorem+0x9c>
 800bcea:	3c01      	subs	r4, #1
 800bcec:	e7c7      	b.n	800bc7e <quorem+0x96>
 800bcee:	6812      	ldr	r2, [r2, #0]
 800bcf0:	3b04      	subs	r3, #4
 800bcf2:	2a00      	cmp	r2, #0
 800bcf4:	d1f0      	bne.n	800bcd8 <quorem+0xf0>
 800bcf6:	3c01      	subs	r4, #1
 800bcf8:	e7eb      	b.n	800bcd2 <quorem+0xea>
 800bcfa:	2000      	movs	r0, #0
 800bcfc:	e7ee      	b.n	800bcdc <quorem+0xf4>
	...

0800bd00 <_dtoa_r>:
 800bd00:	e92d 4ff0 	stmdb	sp!, {r4, r5, r6, r7, r8, r9, sl, fp, lr}
 800bd04:	ed2d 8b02 	vpush	{d8}
 800bd08:	ec57 6b10 	vmov	r6, r7, d0
 800bd0c:	b095      	sub	sp, #84	; 0x54
 800bd0e:	6a45      	ldr	r5, [r0, #36]	; 0x24
 800bd10:	f8dd 8080 	ldr.w	r8, [sp, #128]	; 0x80
 800bd14:	9105      	str	r1, [sp, #20]
 800bd16:	e9cd 6702 	strd	r6, r7, [sp, #8]
 800bd1a:	4604      	mov	r4, r0
 800bd1c:	9209      	str	r2, [sp, #36]	; 0x24
 800bd1e:	930f      	str	r3, [sp, #60]	; 0x3c
 800bd20:	b975      	cbnz	r5, 800bd40 <_dtoa_r+0x40>
 800bd22:	2010      	movs	r0, #16
 800bd24:	f001 fa20 	bl	800d168 <malloc>
 800bd28:	4602      	mov	r2, r0
 800bd2a:	6260      	str	r0, [r4, #36]	; 0x24
 800bd2c:	b920      	cbnz	r0, 800bd38 <_dtoa_r+0x38>
 800bd2e:	4bb2      	ldr	r3, [pc, #712]	; (800bff8 <_dtoa_r+0x2f8>)
 800bd30:	21ea      	movs	r1, #234	; 0xea
 800bd32:	48b2      	ldr	r0, [pc, #712]	; (800bffc <_dtoa_r+0x2fc>)
 800bd34:	f002 f8f0 	bl	800df18 <__assert_func>
 800bd38:	e9c0 5501 	strd	r5, r5, [r0, #4]
 800bd3c:	6005      	str	r5, [r0, #0]
 800bd3e:	60c5      	str	r5, [r0, #12]
 800bd40:	6a63      	ldr	r3, [r4, #36]	; 0x24
 800bd42:	6819      	ldr	r1, [r3, #0]
 800bd44:	b151      	cbz	r1, 800bd5c <_dtoa_r+0x5c>
 800bd46:	685a      	ldr	r2, [r3, #4]
 800bd48:	604a      	str	r2, [r1, #4]
 800bd4a:	2301      	movs	r3, #1
 800bd4c:	4093      	lsls	r3, r2
 800bd4e:	608b      	str	r3, [r1, #8]
 800bd50:	4620      	mov	r0, r4
 800bd52:	f001 fa6f 	bl	800d234 <_Bfree>
 800bd56:	6a63      	ldr	r3, [r4, #36]	; 0x24
 800bd58:	2200      	movs	r2, #0
 800bd5a:	601a      	str	r2, [r3, #0]
 800bd5c:	1e3b      	subs	r3, r7, #0
 800bd5e:	bfb9      	ittee	lt
 800bd60:	f023 4300 	biclt.w	r3, r3, #2147483648	; 0x80000000
 800bd64:	9303      	strlt	r3, [sp, #12]
 800bd66:	2300      	movge	r3, #0
 800bd68:	f8c8 3000 	strge.w	r3, [r8]
 800bd6c:	f8dd 900c 	ldr.w	r9, [sp, #12]
 800bd70:	4ba3      	ldr	r3, [pc, #652]	; (800c000 <_dtoa_r+0x300>)
 800bd72:	bfbc      	itt	lt
 800bd74:	2201      	movlt	r2, #1
 800bd76:	f8c8 2000 	strlt.w	r2, [r8]
 800bd7a:	ea33 0309 	bics.w	r3, r3, r9
 800bd7e:	d11b      	bne.n	800bdb8 <_dtoa_r+0xb8>
 800bd80:	9a0f      	ldr	r2, [sp, #60]	; 0x3c
 800bd82:	f242 730f 	movw	r3, #9999	; 0x270f
 800bd86:	6013      	str	r3, [r2, #0]
 800bd88:	f3c9 0313 	ubfx	r3, r9, #0, #20
 800bd8c:	4333      	orrs	r3, r6
 800bd8e:	f000 857a 	beq.w	800c886 <_dtoa_r+0xb86>
 800bd92:	9b21      	ldr	r3, [sp, #132]	; 0x84
 800bd94:	b963      	cbnz	r3, 800bdb0 <_dtoa_r+0xb0>
 800bd96:	4b9b      	ldr	r3, [pc, #620]	; (800c004 <_dtoa_r+0x304>)
 800bd98:	e024      	b.n	800bde4 <_dtoa_r+0xe4>
 800bd9a:	4b9b      	ldr	r3, [pc, #620]	; (800c008 <_dtoa_r+0x308>)
 800bd9c:	9300      	str	r3, [sp, #0]
 800bd9e:	3308      	adds	r3, #8
 800bda0:	9a21      	ldr	r2, [sp, #132]	; 0x84
 800bda2:	6013      	str	r3, [r2, #0]
 800bda4:	9800      	ldr	r0, [sp, #0]
 800bda6:	b015      	add	sp, #84	; 0x54
 800bda8:	ecbd 8b02 	vpop	{d8}
 800bdac:	e8bd 8ff0 	ldmia.w	sp!, {r4, r5, r6, r7, r8, r9, sl, fp, pc}
 800bdb0:	4b94      	ldr	r3, [pc, #592]	; (800c004 <_dtoa_r+0x304>)
 800bdb2:	9300      	str	r3, [sp, #0]
 800bdb4:	3303      	adds	r3, #3
 800bdb6:	e7f3      	b.n	800bda0 <_dtoa_r+0xa0>
 800bdb8:	ed9d 7b02 	vldr	d7, [sp, #8]
 800bdbc:	2200      	movs	r2, #0
 800bdbe:	ec51 0b17 	vmov	r0, r1, d7
 800bdc2:	2300      	movs	r3, #0
 800bdc4:	ed8d 7b0a 	vstr	d7, [sp, #40]	; 0x28
 800bdc8:	f7f4 fe7e 	bl	8000ac8 <__aeabi_dcmpeq>
 800bdcc:	4680      	mov	r8, r0
 800bdce:	b158      	cbz	r0, 800bde8 <_dtoa_r+0xe8>
 800bdd0:	9a0f      	ldr	r2, [sp, #60]	; 0x3c
 800bdd2:	2301      	movs	r3, #1
 800bdd4:	6013      	str	r3, [r2, #0]
 800bdd6:	9b21      	ldr	r3, [sp, #132]	; 0x84
 800bdd8:	2b00      	cmp	r3, #0
 800bdda:	f000 8551 	beq.w	800c880 <_dtoa_r+0xb80>
 800bdde:	488b      	ldr	r0, [pc, #556]	; (800c00c <_dtoa_r+0x30c>)
 800bde0:	6018      	str	r0, [r3, #0]
 800bde2:	1e43      	subs	r3, r0, #1
 800bde4:	9300      	str	r3, [sp, #0]
 800bde6:	e7dd      	b.n	800bda4 <_dtoa_r+0xa4>
 800bde8:	ed9d 0b0a 	vldr	d0, [sp, #40]	; 0x28
 800bdec:	aa12      	add	r2, sp, #72	; 0x48
 800bdee:	a913      	add	r1, sp, #76	; 0x4c
 800bdf0:	4620      	mov	r0, r4
 800bdf2:	f001 fdc7 	bl	800d984 <__d2b>
 800bdf6:	f3c9 550a 	ubfx	r5, r9, #20, #11
 800bdfa:	4683      	mov	fp, r0
 800bdfc:	2d00      	cmp	r5, #0
 800bdfe:	d07c      	beq.n	800befa <_dtoa_r+0x1fa>
 800be00:	9b0b      	ldr	r3, [sp, #44]	; 0x2c
 800be02:	f8cd 8040 	str.w	r8, [sp, #64]	; 0x40
 800be06:	f3c3 0313 	ubfx	r3, r3, #0, #20
 800be0a:	e9dd 670a 	ldrd	r6, r7, [sp, #40]	; 0x28
 800be0e:	f043 577f 	orr.w	r7, r3, #1069547520	; 0x3fc00000
 800be12:	f447 1740 	orr.w	r7, r7, #3145728	; 0x300000
 800be16:	f2a5 35ff 	subw	r5, r5, #1023	; 0x3ff
 800be1a:	4b7d      	ldr	r3, [pc, #500]	; (800c010 <_dtoa_r+0x310>)
 800be1c:	2200      	movs	r2, #0
 800be1e:	4630      	mov	r0, r6
 800be20:	4639      	mov	r1, r7
 800be22:	f7f4 fa31 	bl	8000288 <__aeabi_dsub>
 800be26:	a36e      	add	r3, pc, #440	; (adr r3, 800bfe0 <_dtoa_r+0x2e0>)
 800be28:	e9d3 2300 	ldrd	r2, r3, [r3]
 800be2c:	f7f4 fbe4 	bl	80005f8 <__aeabi_dmul>
 800be30:	a36d      	add	r3, pc, #436	; (adr r3, 800bfe8 <_dtoa_r+0x2e8>)
 800be32:	e9d3 2300 	ldrd	r2, r3, [r3]
 800be36:	f7f4 fa29 	bl	800028c <__adddf3>
 800be3a:	4606      	mov	r6, r0
 800be3c:	4628      	mov	r0, r5
 800be3e:	460f      	mov	r7, r1
 800be40:	f7f4 fb70 	bl	8000524 <__aeabi_i2d>
 800be44:	a36a      	add	r3, pc, #424	; (adr r3, 800bff0 <_dtoa_r+0x2f0>)
 800be46:	e9d3 2300 	ldrd	r2, r3, [r3]
 800be4a:	f7f4 fbd5 	bl	80005f8 <__aeabi_dmul>
 800be4e:	4602      	mov	r2, r0
 800be50:	460b      	mov	r3, r1
 800be52:	4630      	mov	r0, r6
 800be54:	4639      	mov	r1, r7
 800be56:	f7f4 fa19 	bl	800028c <__adddf3>
 800be5a:	4606      	mov	r6, r0
 800be5c:	460f      	mov	r7, r1
 800be5e:	f7f4 fe7b 	bl	8000b58 <__aeabi_d2iz>
 800be62:	2200      	movs	r2, #0
 800be64:	4682      	mov	sl, r0
 800be66:	2300      	movs	r3, #0
 800be68:	4630      	mov	r0, r6
 800be6a:	4639      	mov	r1, r7
 800be6c:	f7f4 fe36 	bl	8000adc <__aeabi_dcmplt>
 800be70:	b148      	cbz	r0, 800be86 <_dtoa_r+0x186>
 800be72:	4650      	mov	r0, sl
 800be74:	f7f4 fb56 	bl	8000524 <__aeabi_i2d>
 800be78:	4632      	mov	r2, r6
 800be7a:	463b      	mov	r3, r7
 800be7c:	f7f4 fe24 	bl	8000ac8 <__aeabi_dcmpeq>
 800be80:	b908      	cbnz	r0, 800be86 <_dtoa_r+0x186>
 800be82:	f10a 3aff 	add.w	sl, sl, #4294967295
 800be86:	f1ba 0f16 	cmp.w	sl, #22
 800be8a:	d854      	bhi.n	800bf36 <_dtoa_r+0x236>
 800be8c:	4b61      	ldr	r3, [pc, #388]	; (800c014 <_dtoa_r+0x314>)
 800be8e:	eb03 03ca 	add.w	r3, r3, sl, lsl #3
 800be92:	e9d3 2300 	ldrd	r2, r3, [r3]
 800be96:	e9dd 010a 	ldrd	r0, r1, [sp, #40]	; 0x28
 800be9a:	f7f4 fe1f 	bl	8000adc <__aeabi_dcmplt>
 800be9e:	2800      	cmp	r0, #0
 800bea0:	d04b      	beq.n	800bf3a <_dtoa_r+0x23a>
 800bea2:	f10a 3aff 	add.w	sl, sl, #4294967295
 800bea6:	2300      	movs	r3, #0
 800bea8:	930e      	str	r3, [sp, #56]	; 0x38
 800beaa:	9b12      	ldr	r3, [sp, #72]	; 0x48
 800beac:	1b5d      	subs	r5, r3, r5
 800beae:	1e6b      	subs	r3, r5, #1
 800beb0:	9304      	str	r3, [sp, #16]
 800beb2:	bf43      	ittte	mi
 800beb4:	2300      	movmi	r3, #0
 800beb6:	f1c5 0801 	rsbmi	r8, r5, #1
 800beba:	9304      	strmi	r3, [sp, #16]
 800bebc:	f04f 0800 	movpl.w	r8, #0
 800bec0:	f1ba 0f00 	cmp.w	sl, #0
 800bec4:	db3b      	blt.n	800bf3e <_dtoa_r+0x23e>
 800bec6:	9b04      	ldr	r3, [sp, #16]
 800bec8:	f8cd a034 	str.w	sl, [sp, #52]	; 0x34
 800becc:	4453      	add	r3, sl
 800bece:	9304      	str	r3, [sp, #16]
 800bed0:	2300      	movs	r3, #0
 800bed2:	9306      	str	r3, [sp, #24]
 800bed4:	9b05      	ldr	r3, [sp, #20]
 800bed6:	2b09      	cmp	r3, #9
 800bed8:	d869      	bhi.n	800bfae <_dtoa_r+0x2ae>
 800beda:	2b05      	cmp	r3, #5
 800bedc:	bfc4      	itt	gt
 800bede:	3b04      	subgt	r3, #4
 800bee0:	9305      	strgt	r3, [sp, #20]
 800bee2:	9b05      	ldr	r3, [sp, #20]
 800bee4:	f1a3 0302 	sub.w	r3, r3, #2
 800bee8:	bfcc      	ite	gt
 800beea:	2500      	movgt	r5, #0
 800beec:	2501      	movle	r5, #1
 800beee:	2b03      	cmp	r3, #3
 800bef0:	d869      	bhi.n	800bfc6 <_dtoa_r+0x2c6>
 800bef2:	e8df f003 	tbb	[pc, r3]
 800bef6:	4e2c      	.short	0x4e2c
 800bef8:	5a4c      	.short	0x5a4c
 800befa:	e9dd 5312 	ldrd	r5, r3, [sp, #72]	; 0x48
 800befe:	441d      	add	r5, r3
 800bf00:	f205 4332 	addw	r3, r5, #1074	; 0x432
 800bf04:	2b20      	cmp	r3, #32
 800bf06:	bfc1      	itttt	gt
 800bf08:	f1c3 0340 	rsbgt	r3, r3, #64	; 0x40
 800bf0c:	f205 4012 	addwgt	r0, r5, #1042	; 0x412
 800bf10:	fa09 f303 	lslgt.w	r3, r9, r3
 800bf14:	fa26 f000 	lsrgt.w	r0, r6, r0
 800bf18:	bfda      	itte	le
 800bf1a:	f1c3 0320 	rsble	r3, r3, #32
 800bf1e:	fa06 f003 	lslle.w	r0, r6, r3
 800bf22:	4318      	orrgt	r0, r3
 800bf24:	f7f4 faee 	bl	8000504 <__aeabi_ui2d>
 800bf28:	2301      	movs	r3, #1
 800bf2a:	4606      	mov	r6, r0
 800bf2c:	f1a1 77f8 	sub.w	r7, r1, #32505856	; 0x1f00000
 800bf30:	3d01      	subs	r5, #1
 800bf32:	9310      	str	r3, [sp, #64]	; 0x40
 800bf34:	e771      	b.n	800be1a <_dtoa_r+0x11a>
 800bf36:	2301      	movs	r3, #1
 800bf38:	e7b6      	b.n	800bea8 <_dtoa_r+0x1a8>
 800bf3a:	900e      	str	r0, [sp, #56]	; 0x38
 800bf3c:	e7b5      	b.n	800beaa <_dtoa_r+0x1aa>
 800bf3e:	f1ca 0300 	rsb	r3, sl, #0
 800bf42:	9306      	str	r3, [sp, #24]
 800bf44:	2300      	movs	r3, #0
 800bf46:	eba8 080a 	sub.w	r8, r8, sl
 800bf4a:	930d      	str	r3, [sp, #52]	; 0x34
 800bf4c:	e7c2      	b.n	800bed4 <_dtoa_r+0x1d4>
 800bf4e:	2300      	movs	r3, #0
 800bf50:	9308      	str	r3, [sp, #32]
 800bf52:	9b09      	ldr	r3, [sp, #36]	; 0x24
 800bf54:	2b00      	cmp	r3, #0
 800bf56:	dc39      	bgt.n	800bfcc <_dtoa_r+0x2cc>
 800bf58:	f04f 0901 	mov.w	r9, #1
 800bf5c:	f8cd 9004 	str.w	r9, [sp, #4]
 800bf60:	464b      	mov	r3, r9
 800bf62:	f8cd 9024 	str.w	r9, [sp, #36]	; 0x24
 800bf66:	6a60      	ldr	r0, [r4, #36]	; 0x24
 800bf68:	2200      	movs	r2, #0
 800bf6a:	6042      	str	r2, [r0, #4]
 800bf6c:	2204      	movs	r2, #4
 800bf6e:	f102 0614 	add.w	r6, r2, #20
 800bf72:	429e      	cmp	r6, r3
 800bf74:	6841      	ldr	r1, [r0, #4]
 800bf76:	d92f      	bls.n	800bfd8 <_dtoa_r+0x2d8>
 800bf78:	4620      	mov	r0, r4
 800bf7a:	f001 f91b 	bl	800d1b4 <_Balloc>
 800bf7e:	9000      	str	r0, [sp, #0]
 800bf80:	2800      	cmp	r0, #0
 800bf82:	d14b      	bne.n	800c01c <_dtoa_r+0x31c>
 800bf84:	4b24      	ldr	r3, [pc, #144]	; (800c018 <_dtoa_r+0x318>)
 800bf86:	4602      	mov	r2, r0
 800bf88:	f44f 71d5 	mov.w	r1, #426	; 0x1aa
 800bf8c:	e6d1      	b.n	800bd32 <_dtoa_r+0x32>
 800bf8e:	2301      	movs	r3, #1
 800bf90:	e7de      	b.n	800bf50 <_dtoa_r+0x250>
 800bf92:	2300      	movs	r3, #0
 800bf94:	9308      	str	r3, [sp, #32]
 800bf96:	9b09      	ldr	r3, [sp, #36]	; 0x24
 800bf98:	eb0a 0903 	add.w	r9, sl, r3
 800bf9c:	f109 0301 	add.w	r3, r9, #1
 800bfa0:	2b01      	cmp	r3, #1
 800bfa2:	9301      	str	r3, [sp, #4]
 800bfa4:	bfb8      	it	lt
 800bfa6:	2301      	movlt	r3, #1
 800bfa8:	e7dd      	b.n	800bf66 <_dtoa_r+0x266>
 800bfaa:	2301      	movs	r3, #1
 800bfac:	e7f2      	b.n	800bf94 <_dtoa_r+0x294>
 800bfae:	2501      	movs	r5, #1
 800bfb0:	2300      	movs	r3, #0
 800bfb2:	9305      	str	r3, [sp, #20]
 800bfb4:	9508      	str	r5, [sp, #32]
 800bfb6:	f04f 39ff 	mov.w	r9, #4294967295
 800bfba:	2200      	movs	r2, #0
 800bfbc:	f8cd 9004 	str.w	r9, [sp, #4]
 800bfc0:	2312      	movs	r3, #18
 800bfc2:	9209      	str	r2, [sp, #36]	; 0x24
 800bfc4:	e7cf      	b.n	800bf66 <_dtoa_r+0x266>
 800bfc6:	2301      	movs	r3, #1
 800bfc8:	9308      	str	r3, [sp, #32]
 800bfca:	e7f4      	b.n	800bfb6 <_dtoa_r+0x2b6>
 800bfcc:	f8dd 9024 	ldr.w	r9, [sp, #36]	; 0x24
 800bfd0:	f8cd 9004 	str.w	r9, [sp, #4]
 800bfd4:	464b      	mov	r3, r9
 800bfd6:	e7c6      	b.n	800bf66 <_dtoa_r+0x266>
 800bfd8:	3101      	adds	r1, #1
 800bfda:	6041      	str	r1, [r0, #4]
 800bfdc:	0052      	lsls	r2, r2, #1
 800bfde:	e7c6      	b.n	800bf6e <_dtoa_r+0x26e>
 800bfe0:	636f4361 	.word	0x636f4361
 800bfe4:	3fd287a7 	.word	0x3fd287a7
 800bfe8:	8b60c8b3 	.word	0x8b60c8b3
 800bfec:	3fc68a28 	.word	0x3fc68a28
 800bff0:	509f79fb 	.word	0x509f79fb
 800bff4:	3fd34413 	.word	0x3fd34413
 800bff8:	0801002e 	.word	0x0801002e
 800bffc:	08010045 	.word	0x08010045
 800c000:	7ff00000 	.word	0x7ff00000
 800c004:	0801002a 	.word	0x0801002a
 800c008:	08010021 	.word	0x08010021
 800c00c:	0800fea5 	.word	0x0800fea5
 800c010:	3ff80000 	.word	0x3ff80000
 800c014:	080101c0 	.word	0x080101c0
 800c018:	080100a4 	.word	0x080100a4
 800c01c:	6a63      	ldr	r3, [r4, #36]	; 0x24
 800c01e:	9a00      	ldr	r2, [sp, #0]
 800c020:	601a      	str	r2, [r3, #0]
 800c022:	9b01      	ldr	r3, [sp, #4]
 800c024:	2b0e      	cmp	r3, #14
 800c026:	f200 80ad 	bhi.w	800c184 <_dtoa_r+0x484>
 800c02a:	2d00      	cmp	r5, #0
 800c02c:	f000 80aa 	beq.w	800c184 <_dtoa_r+0x484>
 800c030:	f1ba 0f00 	cmp.w	sl, #0
 800c034:	dd36      	ble.n	800c0a4 <_dtoa_r+0x3a4>
 800c036:	4ac3      	ldr	r2, [pc, #780]	; (800c344 <_dtoa_r+0x644>)
 800c038:	f00a 030f 	and.w	r3, sl, #15
 800c03c:	eb02 03c3 	add.w	r3, r2, r3, lsl #3
 800c040:	ed93 7b00 	vldr	d7, [r3]
 800c044:	f41a 7f80 	tst.w	sl, #256	; 0x100
 800c048:	ea4f 172a 	mov.w	r7, sl, asr #4
 800c04c:	eeb0 8a47 	vmov.f32	s16, s14
 800c050:	eef0 8a67 	vmov.f32	s17, s15
 800c054:	d016      	beq.n	800c084 <_dtoa_r+0x384>
 800c056:	4bbc      	ldr	r3, [pc, #752]	; (800c348 <_dtoa_r+0x648>)
 800c058:	e9dd 010a 	ldrd	r0, r1, [sp, #40]	; 0x28
 800c05c:	e9d3 2308 	ldrd	r2, r3, [r3, #32]
 800c060:	f7f4 fbf4 	bl	800084c <__aeabi_ddiv>
 800c064:	e9cd 0102 	strd	r0, r1, [sp, #8]
 800c068:	f007 070f 	and.w	r7, r7, #15
 800c06c:	2503      	movs	r5, #3
 800c06e:	4eb6      	ldr	r6, [pc, #728]	; (800c348 <_dtoa_r+0x648>)
 800c070:	b957      	cbnz	r7, 800c088 <_dtoa_r+0x388>
 800c072:	e9dd 0102 	ldrd	r0, r1, [sp, #8]
 800c076:	ec53 2b18 	vmov	r2, r3, d8
 800c07a:	f7f4 fbe7 	bl	800084c <__aeabi_ddiv>
 800c07e:	e9cd 0102 	strd	r0, r1, [sp, #8]
 800c082:	e029      	b.n	800c0d8 <_dtoa_r+0x3d8>
 800c084:	2502      	movs	r5, #2
 800c086:	e7f2      	b.n	800c06e <_dtoa_r+0x36e>
 800c088:	07f9      	lsls	r1, r7, #31
 800c08a:	d508      	bpl.n	800c09e <_dtoa_r+0x39e>
 800c08c:	ec51 0b18 	vmov	r0, r1, d8
 800c090:	e9d6 2300 	ldrd	r2, r3, [r6]
 800c094:	f7f4 fab0 	bl	80005f8 <__aeabi_dmul>
 800c098:	ec41 0b18 	vmov	d8, r0, r1
 800c09c:	3501      	adds	r5, #1
 800c09e:	107f      	asrs	r7, r7, #1
 800c0a0:	3608      	adds	r6, #8
 800c0a2:	e7e5      	b.n	800c070 <_dtoa_r+0x370>
 800c0a4:	f000 80a6 	beq.w	800c1f4 <_dtoa_r+0x4f4>
 800c0a8:	f1ca 0600 	rsb	r6, sl, #0
 800c0ac:	4ba5      	ldr	r3, [pc, #660]	; (800c344 <_dtoa_r+0x644>)
 800c0ae:	4fa6      	ldr	r7, [pc, #664]	; (800c348 <_dtoa_r+0x648>)
 800c0b0:	f006 020f 	and.w	r2, r6, #15
 800c0b4:	eb03 03c2 	add.w	r3, r3, r2, lsl #3
 800c0b8:	e9d3 2300 	ldrd	r2, r3, [r3]
 800c0bc:	e9dd 010a 	ldrd	r0, r1, [sp, #40]	; 0x28
 800c0c0:	f7f4 fa9a 	bl	80005f8 <__aeabi_dmul>
 800c0c4:	e9cd 0102 	strd	r0, r1, [sp, #8]
 800c0c8:	1136      	asrs	r6, r6, #4
 800c0ca:	2300      	movs	r3, #0
 800c0cc:	2502      	movs	r5, #2
 800c0ce:	2e00      	cmp	r6, #0
 800c0d0:	f040 8085 	bne.w	800c1de <_dtoa_r+0x4de>
 800c0d4:	2b00      	cmp	r3, #0
 800c0d6:	d1d2      	bne.n	800c07e <_dtoa_r+0x37e>
 800c0d8:	9b0e      	ldr	r3, [sp, #56]	; 0x38
 800c0da:	2b00      	cmp	r3, #0
 800c0dc:	f000 808c 	beq.w	800c1f8 <_dtoa_r+0x4f8>
 800c0e0:	e9dd 6702 	ldrd	r6, r7, [sp, #8]
 800c0e4:	4b99      	ldr	r3, [pc, #612]	; (800c34c <_dtoa_r+0x64c>)
 800c0e6:	2200      	movs	r2, #0
 800c0e8:	4630      	mov	r0, r6
 800c0ea:	4639      	mov	r1, r7
 800c0ec:	f7f4 fcf6 	bl	8000adc <__aeabi_dcmplt>
 800c0f0:	2800      	cmp	r0, #0
 800c0f2:	f000 8081 	beq.w	800c1f8 <_dtoa_r+0x4f8>
 800c0f6:	9b01      	ldr	r3, [sp, #4]
 800c0f8:	2b00      	cmp	r3, #0
 800c0fa:	d07d      	beq.n	800c1f8 <_dtoa_r+0x4f8>
 800c0fc:	f1b9 0f00 	cmp.w	r9, #0
 800c100:	dd3c      	ble.n	800c17c <_dtoa_r+0x47c>
 800c102:	f10a 33ff 	add.w	r3, sl, #4294967295
 800c106:	9307      	str	r3, [sp, #28]
 800c108:	2200      	movs	r2, #0
 800c10a:	4b91      	ldr	r3, [pc, #580]	; (800c350 <_dtoa_r+0x650>)
 800c10c:	4630      	mov	r0, r6
 800c10e:	4639      	mov	r1, r7
 800c110:	f7f4 fa72 	bl	80005f8 <__aeabi_dmul>
 800c114:	e9cd 0102 	strd	r0, r1, [sp, #8]
 800c118:	3501      	adds	r5, #1
 800c11a:	f8cd 9030 	str.w	r9, [sp, #48]	; 0x30
 800c11e:	e9dd 6702 	ldrd	r6, r7, [sp, #8]
 800c122:	4628      	mov	r0, r5
 800c124:	f7f4 f9fe 	bl	8000524 <__aeabi_i2d>
 800c128:	4632      	mov	r2, r6
 800c12a:	463b      	mov	r3, r7
 800c12c:	f7f4 fa64 	bl	80005f8 <__aeabi_dmul>
 800c130:	4b88      	ldr	r3, [pc, #544]	; (800c354 <_dtoa_r+0x654>)
 800c132:	2200      	movs	r2, #0
 800c134:	f7f4 f8aa 	bl	800028c <__adddf3>
 800c138:	f1a1 7350 	sub.w	r3, r1, #54525952	; 0x3400000
 800c13c:	e9cd 0102 	strd	r0, r1, [sp, #8]
 800c140:	9303      	str	r3, [sp, #12]
 800c142:	9b0c      	ldr	r3, [sp, #48]	; 0x30
 800c144:	2b00      	cmp	r3, #0
 800c146:	d15c      	bne.n	800c202 <_dtoa_r+0x502>
 800c148:	4b83      	ldr	r3, [pc, #524]	; (800c358 <_dtoa_r+0x658>)
 800c14a:	2200      	movs	r2, #0
 800c14c:	4630      	mov	r0, r6
 800c14e:	4639      	mov	r1, r7
 800c150:	f7f4 f89a 	bl	8000288 <__aeabi_dsub>
 800c154:	e9dd 2302 	ldrd	r2, r3, [sp, #8]
 800c158:	4606      	mov	r6, r0
 800c15a:	460f      	mov	r7, r1
 800c15c:	f7f4 fcdc 	bl	8000b18 <__aeabi_dcmpgt>
 800c160:	2800      	cmp	r0, #0
 800c162:	f040 8296 	bne.w	800c692 <_dtoa_r+0x992>
 800c166:	e9dd 2102 	ldrd	r2, r1, [sp, #8]
 800c16a:	4630      	mov	r0, r6
 800c16c:	f101 4300 	add.w	r3, r1, #2147483648	; 0x80000000
 800c170:	4639      	mov	r1, r7
 800c172:	f7f4 fcb3 	bl	8000adc <__aeabi_dcmplt>
 800c176:	2800      	cmp	r0, #0
 800c178:	f040 8288 	bne.w	800c68c <_dtoa_r+0x98c>
 800c17c:	e9dd 230a 	ldrd	r2, r3, [sp, #40]	; 0x28
 800c180:	e9cd 2302 	strd	r2, r3, [sp, #8]
 800c184:	9b13      	ldr	r3, [sp, #76]	; 0x4c
 800c186:	2b00      	cmp	r3, #0
 800c188:	f2c0 8158 	blt.w	800c43c <_dtoa_r+0x73c>
 800c18c:	f1ba 0f0e 	cmp.w	sl, #14
 800c190:	f300 8154 	bgt.w	800c43c <_dtoa_r+0x73c>
 800c194:	4b6b      	ldr	r3, [pc, #428]	; (800c344 <_dtoa_r+0x644>)
 800c196:	eb03 03ca 	add.w	r3, r3, sl, lsl #3
 800c19a:	e9d3 8900 	ldrd	r8, r9, [r3]
 800c19e:	9b09      	ldr	r3, [sp, #36]	; 0x24
 800c1a0:	2b00      	cmp	r3, #0
 800c1a2:	f280 80e3 	bge.w	800c36c <_dtoa_r+0x66c>
 800c1a6:	9b01      	ldr	r3, [sp, #4]
 800c1a8:	2b00      	cmp	r3, #0
 800c1aa:	f300 80df 	bgt.w	800c36c <_dtoa_r+0x66c>
 800c1ae:	f040 826d 	bne.w	800c68c <_dtoa_r+0x98c>
 800c1b2:	4b69      	ldr	r3, [pc, #420]	; (800c358 <_dtoa_r+0x658>)
 800c1b4:	2200      	movs	r2, #0
 800c1b6:	4640      	mov	r0, r8
 800c1b8:	4649      	mov	r1, r9
 800c1ba:	f7f4 fa1d 	bl	80005f8 <__aeabi_dmul>
 800c1be:	e9dd 2302 	ldrd	r2, r3, [sp, #8]
 800c1c2:	f7f4 fc9f 	bl	8000b04 <__aeabi_dcmpge>
 800c1c6:	9e01      	ldr	r6, [sp, #4]
 800c1c8:	4637      	mov	r7, r6
 800c1ca:	2800      	cmp	r0, #0
 800c1cc:	f040 8243 	bne.w	800c656 <_dtoa_r+0x956>
 800c1d0:	9d00      	ldr	r5, [sp, #0]
 800c1d2:	2331      	movs	r3, #49	; 0x31
 800c1d4:	f805 3b01 	strb.w	r3, [r5], #1
 800c1d8:	f10a 0a01 	add.w	sl, sl, #1
 800c1dc:	e23f      	b.n	800c65e <_dtoa_r+0x95e>
 800c1de:	07f2      	lsls	r2, r6, #31
 800c1e0:	d505      	bpl.n	800c1ee <_dtoa_r+0x4ee>
 800c1e2:	e9d7 2300 	ldrd	r2, r3, [r7]
 800c1e6:	f7f4 fa07 	bl	80005f8 <__aeabi_dmul>
 800c1ea:	3501      	adds	r5, #1
 800c1ec:	2301      	movs	r3, #1
 800c1ee:	1076      	asrs	r6, r6, #1
 800c1f0:	3708      	adds	r7, #8
 800c1f2:	e76c      	b.n	800c0ce <_dtoa_r+0x3ce>
 800c1f4:	2502      	movs	r5, #2
 800c1f6:	e76f      	b.n	800c0d8 <_dtoa_r+0x3d8>
 800c1f8:	9b01      	ldr	r3, [sp, #4]
 800c1fa:	f8cd a01c 	str.w	sl, [sp, #28]
 800c1fe:	930c      	str	r3, [sp, #48]	; 0x30
 800c200:	e78d      	b.n	800c11e <_dtoa_r+0x41e>
 800c202:	9900      	ldr	r1, [sp, #0]
 800c204:	980c      	ldr	r0, [sp, #48]	; 0x30
 800c206:	9a0c      	ldr	r2, [sp, #48]	; 0x30
 800c208:	4b4e      	ldr	r3, [pc, #312]	; (800c344 <_dtoa_r+0x644>)
 800c20a:	ed9d 7b02 	vldr	d7, [sp, #8]
 800c20e:	4401      	add	r1, r0
 800c210:	9102      	str	r1, [sp, #8]
 800c212:	9908      	ldr	r1, [sp, #32]
 800c214:	eeb0 8a47 	vmov.f32	s16, s14
 800c218:	eef0 8a67 	vmov.f32	s17, s15
 800c21c:	eb03 03c2 	add.w	r3, r3, r2, lsl #3
 800c220:	e953 2302 	ldrd	r2, r3, [r3, #-8]
 800c224:	2900      	cmp	r1, #0
 800c226:	d045      	beq.n	800c2b4 <_dtoa_r+0x5b4>
 800c228:	494c      	ldr	r1, [pc, #304]	; (800c35c <_dtoa_r+0x65c>)
 800c22a:	2000      	movs	r0, #0
 800c22c:	f7f4 fb0e 	bl	800084c <__aeabi_ddiv>
 800c230:	ec53 2b18 	vmov	r2, r3, d8
 800c234:	f7f4 f828 	bl	8000288 <__aeabi_dsub>
 800c238:	9d00      	ldr	r5, [sp, #0]
 800c23a:	ec41 0b18 	vmov	d8, r0, r1
 800c23e:	4639      	mov	r1, r7
 800c240:	4630      	mov	r0, r6
 800c242:	f7f4 fc89 	bl	8000b58 <__aeabi_d2iz>
 800c246:	900c      	str	r0, [sp, #48]	; 0x30
 800c248:	f7f4 f96c 	bl	8000524 <__aeabi_i2d>
 800c24c:	4602      	mov	r2, r0
 800c24e:	460b      	mov	r3, r1
 800c250:	4630      	mov	r0, r6
 800c252:	4639      	mov	r1, r7
 800c254:	f7f4 f818 	bl	8000288 <__aeabi_dsub>
 800c258:	9b0c      	ldr	r3, [sp, #48]	; 0x30
 800c25a:	3330      	adds	r3, #48	; 0x30
 800c25c:	f805 3b01 	strb.w	r3, [r5], #1
 800c260:	ec53 2b18 	vmov	r2, r3, d8
 800c264:	4606      	mov	r6, r0
 800c266:	460f      	mov	r7, r1
 800c268:	f7f4 fc38 	bl	8000adc <__aeabi_dcmplt>
 800c26c:	2800      	cmp	r0, #0
 800c26e:	d165      	bne.n	800c33c <_dtoa_r+0x63c>
 800c270:	4632      	mov	r2, r6
 800c272:	463b      	mov	r3, r7
 800c274:	4935      	ldr	r1, [pc, #212]	; (800c34c <_dtoa_r+0x64c>)
 800c276:	2000      	movs	r0, #0
 800c278:	f7f4 f806 	bl	8000288 <__aeabi_dsub>
 800c27c:	ec53 2b18 	vmov	r2, r3, d8
 800c280:	f7f4 fc2c 	bl	8000adc <__aeabi_dcmplt>
 800c284:	2800      	cmp	r0, #0
 800c286:	f040 80b9 	bne.w	800c3fc <_dtoa_r+0x6fc>
 800c28a:	9b02      	ldr	r3, [sp, #8]
 800c28c:	429d      	cmp	r5, r3
 800c28e:	f43f af75 	beq.w	800c17c <_dtoa_r+0x47c>
 800c292:	4b2f      	ldr	r3, [pc, #188]	; (800c350 <_dtoa_r+0x650>)
 800c294:	ec51 0b18 	vmov	r0, r1, d8
 800c298:	2200      	movs	r2, #0
 800c29a:	f7f4 f9ad 	bl	80005f8 <__aeabi_dmul>
 800c29e:	4b2c      	ldr	r3, [pc, #176]	; (800c350 <_dtoa_r+0x650>)
 800c2a0:	ec41 0b18 	vmov	d8, r0, r1
 800c2a4:	2200      	movs	r2, #0
 800c2a6:	4630      	mov	r0, r6
 800c2a8:	4639      	mov	r1, r7
 800c2aa:	f7f4 f9a5 	bl	80005f8 <__aeabi_dmul>
 800c2ae:	4606      	mov	r6, r0
 800c2b0:	460f      	mov	r7, r1
 800c2b2:	e7c4      	b.n	800c23e <_dtoa_r+0x53e>
 800c2b4:	ec51 0b17 	vmov	r0, r1, d7
 800c2b8:	f7f4 f99e 	bl	80005f8 <__aeabi_dmul>
 800c2bc:	9b02      	ldr	r3, [sp, #8]
 800c2be:	9d00      	ldr	r5, [sp, #0]
 800c2c0:	930c      	str	r3, [sp, #48]	; 0x30
 800c2c2:	ec41 0b18 	vmov	d8, r0, r1
 800c2c6:	4639      	mov	r1, r7
 800c2c8:	4630      	mov	r0, r6
 800c2ca:	f7f4 fc45 	bl	8000b58 <__aeabi_d2iz>
 800c2ce:	9011      	str	r0, [sp, #68]	; 0x44
 800c2d0:	f7f4 f928 	bl	8000524 <__aeabi_i2d>
 800c2d4:	4602      	mov	r2, r0
 800c2d6:	460b      	mov	r3, r1
 800c2d8:	4630      	mov	r0, r6
 800c2da:	4639      	mov	r1, r7
 800c2dc:	f7f3 ffd4 	bl	8000288 <__aeabi_dsub>
 800c2e0:	9b11      	ldr	r3, [sp, #68]	; 0x44
 800c2e2:	3330      	adds	r3, #48	; 0x30
 800c2e4:	f805 3b01 	strb.w	r3, [r5], #1
 800c2e8:	9b02      	ldr	r3, [sp, #8]
 800c2ea:	429d      	cmp	r5, r3
 800c2ec:	4606      	mov	r6, r0
 800c2ee:	460f      	mov	r7, r1
 800c2f0:	f04f 0200 	mov.w	r2, #0
 800c2f4:	d134      	bne.n	800c360 <_dtoa_r+0x660>
 800c2f6:	4b19      	ldr	r3, [pc, #100]	; (800c35c <_dtoa_r+0x65c>)
 800c2f8:	ec51 0b18 	vmov	r0, r1, d8
 800c2fc:	f7f3 ffc6 	bl	800028c <__adddf3>
 800c300:	4602      	mov	r2, r0
 800c302:	460b      	mov	r3, r1
 800c304:	4630      	mov	r0, r6
 800c306:	4639      	mov	r1, r7
 800c308:	f7f4 fc06 	bl	8000b18 <__aeabi_dcmpgt>
 800c30c:	2800      	cmp	r0, #0
 800c30e:	d175      	bne.n	800c3fc <_dtoa_r+0x6fc>
 800c310:	ec53 2b18 	vmov	r2, r3, d8
 800c314:	4911      	ldr	r1, [pc, #68]	; (800c35c <_dtoa_r+0x65c>)
 800c316:	2000      	movs	r0, #0
 800c318:	f7f3 ffb6 	bl	8000288 <__aeabi_dsub>
 800c31c:	4602      	mov	r2, r0
 800c31e:	460b      	mov	r3, r1
 800c320:	4630      	mov	r0, r6
 800c322:	4639      	mov	r1, r7
 800c324:	f7f4 fbda 	bl	8000adc <__aeabi_dcmplt>
 800c328:	2800      	cmp	r0, #0
 800c32a:	f43f af27 	beq.w	800c17c <_dtoa_r+0x47c>
 800c32e:	9d0c      	ldr	r5, [sp, #48]	; 0x30
 800c330:	1e6b      	subs	r3, r5, #1
 800c332:	930c      	str	r3, [sp, #48]	; 0x30
 800c334:	f815 3c01 	ldrb.w	r3, [r5, #-1]
 800c338:	2b30      	cmp	r3, #48	; 0x30
 800c33a:	d0f8      	beq.n	800c32e <_dtoa_r+0x62e>
 800c33c:	f8dd a01c 	ldr.w	sl, [sp, #28]
 800c340:	e04a      	b.n	800c3d8 <_dtoa_r+0x6d8>
 800c342:	bf00      	nop
 800c344:	080101c0 	.word	0x080101c0
 800c348:	08010198 	.word	0x08010198
 800c34c:	3ff00000 	.word	0x3ff00000
 800c350:	40240000 	.word	0x40240000
 800c354:	401c0000 	.word	0x401c0000
 800c358:	40140000 	.word	0x40140000
 800c35c:	3fe00000 	.word	0x3fe00000
 800c360:	4baf      	ldr	r3, [pc, #700]	; (800c620 <_dtoa_r+0x920>)
 800c362:	f7f4 f949 	bl	80005f8 <__aeabi_dmul>
 800c366:	4606      	mov	r6, r0
 800c368:	460f      	mov	r7, r1
 800c36a:	e7ac      	b.n	800c2c6 <_dtoa_r+0x5c6>
 800c36c:	e9dd 6702 	ldrd	r6, r7, [sp, #8]
 800c370:	9d00      	ldr	r5, [sp, #0]
 800c372:	4642      	mov	r2, r8
 800c374:	464b      	mov	r3, r9
 800c376:	4630      	mov	r0, r6
 800c378:	4639      	mov	r1, r7
 800c37a:	f7f4 fa67 	bl	800084c <__aeabi_ddiv>
 800c37e:	f7f4 fbeb 	bl	8000b58 <__aeabi_d2iz>
 800c382:	9002      	str	r0, [sp, #8]
 800c384:	f7f4 f8ce 	bl	8000524 <__aeabi_i2d>
 800c388:	4642      	mov	r2, r8
 800c38a:	464b      	mov	r3, r9
 800c38c:	f7f4 f934 	bl	80005f8 <__aeabi_dmul>
 800c390:	4602      	mov	r2, r0
 800c392:	460b      	mov	r3, r1
 800c394:	4630      	mov	r0, r6
 800c396:	4639      	mov	r1, r7
 800c398:	f7f3 ff76 	bl	8000288 <__aeabi_dsub>
 800c39c:	9e02      	ldr	r6, [sp, #8]
 800c39e:	9f01      	ldr	r7, [sp, #4]
 800c3a0:	3630      	adds	r6, #48	; 0x30
 800c3a2:	f805 6b01 	strb.w	r6, [r5], #1
 800c3a6:	9e00      	ldr	r6, [sp, #0]
 800c3a8:	1bae      	subs	r6, r5, r6
 800c3aa:	42b7      	cmp	r7, r6
 800c3ac:	4602      	mov	r2, r0
 800c3ae:	460b      	mov	r3, r1
 800c3b0:	d137      	bne.n	800c422 <_dtoa_r+0x722>
 800c3b2:	f7f3 ff6b 	bl	800028c <__adddf3>
 800c3b6:	4642      	mov	r2, r8
 800c3b8:	464b      	mov	r3, r9
 800c3ba:	4606      	mov	r6, r0
 800c3bc:	460f      	mov	r7, r1
 800c3be:	f7f4 fbab 	bl	8000b18 <__aeabi_dcmpgt>
 800c3c2:	b9c8      	cbnz	r0, 800c3f8 <_dtoa_r+0x6f8>
 800c3c4:	4642      	mov	r2, r8
 800c3c6:	464b      	mov	r3, r9
 800c3c8:	4630      	mov	r0, r6
 800c3ca:	4639      	mov	r1, r7
 800c3cc:	f7f4 fb7c 	bl	8000ac8 <__aeabi_dcmpeq>
 800c3d0:	b110      	cbz	r0, 800c3d8 <_dtoa_r+0x6d8>
 800c3d2:	9b02      	ldr	r3, [sp, #8]
 800c3d4:	07d9      	lsls	r1, r3, #31
 800c3d6:	d40f      	bmi.n	800c3f8 <_dtoa_r+0x6f8>
 800c3d8:	4620      	mov	r0, r4
 800c3da:	4659      	mov	r1, fp
 800c3dc:	f000 ff2a 	bl	800d234 <_Bfree>
 800c3e0:	2300      	movs	r3, #0
 800c3e2:	702b      	strb	r3, [r5, #0]
 800c3e4:	9b0f      	ldr	r3, [sp, #60]	; 0x3c
 800c3e6:	f10a 0001 	add.w	r0, sl, #1
 800c3ea:	6018      	str	r0, [r3, #0]
 800c3ec:	9b21      	ldr	r3, [sp, #132]	; 0x84
 800c3ee:	2b00      	cmp	r3, #0
 800c3f0:	f43f acd8 	beq.w	800bda4 <_dtoa_r+0xa4>
 800c3f4:	601d      	str	r5, [r3, #0]
 800c3f6:	e4d5      	b.n	800bda4 <_dtoa_r+0xa4>
 800c3f8:	f8cd a01c 	str.w	sl, [sp, #28]
 800c3fc:	462b      	mov	r3, r5
 800c3fe:	461d      	mov	r5, r3
 800c400:	f813 2d01 	ldrb.w	r2, [r3, #-1]!
 800c404:	2a39      	cmp	r2, #57	; 0x39
 800c406:	d108      	bne.n	800c41a <_dtoa_r+0x71a>
 800c408:	9a00      	ldr	r2, [sp, #0]
 800c40a:	429a      	cmp	r2, r3
 800c40c:	d1f7      	bne.n	800c3fe <_dtoa_r+0x6fe>
 800c40e:	9a07      	ldr	r2, [sp, #28]
 800c410:	9900      	ldr	r1, [sp, #0]
 800c412:	3201      	adds	r2, #1
 800c414:	9207      	str	r2, [sp, #28]
 800c416:	2230      	movs	r2, #48	; 0x30
 800c418:	700a      	strb	r2, [r1, #0]
 800c41a:	781a      	ldrb	r2, [r3, #0]
 800c41c:	3201      	adds	r2, #1
 800c41e:	701a      	strb	r2, [r3, #0]
 800c420:	e78c      	b.n	800c33c <_dtoa_r+0x63c>
 800c422:	4b7f      	ldr	r3, [pc, #508]	; (800c620 <_dtoa_r+0x920>)
 800c424:	2200      	movs	r2, #0
 800c426:	f7f4 f8e7 	bl	80005f8 <__aeabi_dmul>
 800c42a:	2200      	movs	r2, #0
 800c42c:	2300      	movs	r3, #0
 800c42e:	4606      	mov	r6, r0
 800c430:	460f      	mov	r7, r1
 800c432:	f7f4 fb49 	bl	8000ac8 <__aeabi_dcmpeq>
 800c436:	2800      	cmp	r0, #0
 800c438:	d09b      	beq.n	800c372 <_dtoa_r+0x672>
 800c43a:	e7cd      	b.n	800c3d8 <_dtoa_r+0x6d8>
 800c43c:	9a08      	ldr	r2, [sp, #32]
 800c43e:	2a00      	cmp	r2, #0
 800c440:	f000 80c4 	beq.w	800c5cc <_dtoa_r+0x8cc>
 800c444:	9a05      	ldr	r2, [sp, #20]
 800c446:	2a01      	cmp	r2, #1
 800c448:	f300 80a8 	bgt.w	800c59c <_dtoa_r+0x89c>
 800c44c:	9a10      	ldr	r2, [sp, #64]	; 0x40
 800c44e:	2a00      	cmp	r2, #0
 800c450:	f000 80a0 	beq.w	800c594 <_dtoa_r+0x894>
 800c454:	f203 4333 	addw	r3, r3, #1075	; 0x433
 800c458:	9e06      	ldr	r6, [sp, #24]
 800c45a:	4645      	mov	r5, r8
 800c45c:	9a04      	ldr	r2, [sp, #16]
 800c45e:	2101      	movs	r1, #1
 800c460:	441a      	add	r2, r3
 800c462:	4620      	mov	r0, r4
 800c464:	4498      	add	r8, r3
 800c466:	9204      	str	r2, [sp, #16]
 800c468:	f000 ffea 	bl	800d440 <__i2b>
 800c46c:	4607      	mov	r7, r0
 800c46e:	2d00      	cmp	r5, #0
 800c470:	dd0b      	ble.n	800c48a <_dtoa_r+0x78a>
 800c472:	9b04      	ldr	r3, [sp, #16]
 800c474:	2b00      	cmp	r3, #0
 800c476:	dd08      	ble.n	800c48a <_dtoa_r+0x78a>
 800c478:	42ab      	cmp	r3, r5
 800c47a:	9a04      	ldr	r2, [sp, #16]
 800c47c:	bfa8      	it	ge
 800c47e:	462b      	movge	r3, r5
 800c480:	eba8 0803 	sub.w	r8, r8, r3
 800c484:	1aed      	subs	r5, r5, r3
 800c486:	1ad3      	subs	r3, r2, r3
 800c488:	9304      	str	r3, [sp, #16]
 800c48a:	9b06      	ldr	r3, [sp, #24]
 800c48c:	b1fb      	cbz	r3, 800c4ce <_dtoa_r+0x7ce>
 800c48e:	9b08      	ldr	r3, [sp, #32]
 800c490:	2b00      	cmp	r3, #0
 800c492:	f000 809f 	beq.w	800c5d4 <_dtoa_r+0x8d4>
 800c496:	2e00      	cmp	r6, #0
 800c498:	dd11      	ble.n	800c4be <_dtoa_r+0x7be>
 800c49a:	4639      	mov	r1, r7
 800c49c:	4632      	mov	r2, r6
 800c49e:	4620      	mov	r0, r4
 800c4a0:	f001 f88a 	bl	800d5b8 <__pow5mult>
 800c4a4:	465a      	mov	r2, fp
 800c4a6:	4601      	mov	r1, r0
 800c4a8:	4607      	mov	r7, r0
 800c4aa:	4620      	mov	r0, r4
 800c4ac:	f000 ffde 	bl	800d46c <__multiply>
 800c4b0:	4659      	mov	r1, fp
 800c4b2:	9007      	str	r0, [sp, #28]
 800c4b4:	4620      	mov	r0, r4
 800c4b6:	f000 febd 	bl	800d234 <_Bfree>
 800c4ba:	9b07      	ldr	r3, [sp, #28]
 800c4bc:	469b      	mov	fp, r3
 800c4be:	9b06      	ldr	r3, [sp, #24]
 800c4c0:	1b9a      	subs	r2, r3, r6
 800c4c2:	d004      	beq.n	800c4ce <_dtoa_r+0x7ce>
 800c4c4:	4659      	mov	r1, fp
 800c4c6:	4620      	mov	r0, r4
 800c4c8:	f001 f876 	bl	800d5b8 <__pow5mult>
 800c4cc:	4683      	mov	fp, r0
 800c4ce:	2101      	movs	r1, #1
 800c4d0:	4620      	mov	r0, r4
 800c4d2:	f000 ffb5 	bl	800d440 <__i2b>
 800c4d6:	9b0d      	ldr	r3, [sp, #52]	; 0x34
 800c4d8:	2b00      	cmp	r3, #0
 800c4da:	4606      	mov	r6, r0
 800c4dc:	dd7c      	ble.n	800c5d8 <_dtoa_r+0x8d8>
 800c4de:	461a      	mov	r2, r3
 800c4e0:	4601      	mov	r1, r0
 800c4e2:	4620      	mov	r0, r4
 800c4e4:	f001 f868 	bl	800d5b8 <__pow5mult>
 800c4e8:	9b05      	ldr	r3, [sp, #20]
 800c4ea:	2b01      	cmp	r3, #1
 800c4ec:	4606      	mov	r6, r0
 800c4ee:	dd76      	ble.n	800c5de <_dtoa_r+0x8de>
 800c4f0:	2300      	movs	r3, #0
 800c4f2:	9306      	str	r3, [sp, #24]
 800c4f4:	6933      	ldr	r3, [r6, #16]
 800c4f6:	eb06 0383 	add.w	r3, r6, r3, lsl #2
 800c4fa:	6918      	ldr	r0, [r3, #16]
 800c4fc:	f000 ff50 	bl	800d3a0 <__hi0bits>
 800c500:	f1c0 0020 	rsb	r0, r0, #32
 800c504:	9b04      	ldr	r3, [sp, #16]
 800c506:	4418      	add	r0, r3
 800c508:	f010 001f 	ands.w	r0, r0, #31
 800c50c:	f000 8086 	beq.w	800c61c <_dtoa_r+0x91c>
 800c510:	f1c0 0320 	rsb	r3, r0, #32
 800c514:	2b04      	cmp	r3, #4
 800c516:	dd7f      	ble.n	800c618 <_dtoa_r+0x918>
 800c518:	f1c0 001c 	rsb	r0, r0, #28
 800c51c:	9b04      	ldr	r3, [sp, #16]
 800c51e:	4403      	add	r3, r0
 800c520:	4480      	add	r8, r0
 800c522:	4405      	add	r5, r0
 800c524:	9304      	str	r3, [sp, #16]
 800c526:	f1b8 0f00 	cmp.w	r8, #0
 800c52a:	dd05      	ble.n	800c538 <_dtoa_r+0x838>
 800c52c:	4659      	mov	r1, fp
 800c52e:	4642      	mov	r2, r8
 800c530:	4620      	mov	r0, r4
 800c532:	f001 f89b 	bl	800d66c <__lshift>
 800c536:	4683      	mov	fp, r0
 800c538:	9b04      	ldr	r3, [sp, #16]
 800c53a:	2b00      	cmp	r3, #0
 800c53c:	dd05      	ble.n	800c54a <_dtoa_r+0x84a>
 800c53e:	4631      	mov	r1, r6
 800c540:	461a      	mov	r2, r3
 800c542:	4620      	mov	r0, r4
 800c544:	f001 f892 	bl	800d66c <__lshift>
 800c548:	4606      	mov	r6, r0
 800c54a:	9b0e      	ldr	r3, [sp, #56]	; 0x38
 800c54c:	2b00      	cmp	r3, #0
 800c54e:	d069      	beq.n	800c624 <_dtoa_r+0x924>
 800c550:	4631      	mov	r1, r6
 800c552:	4658      	mov	r0, fp
 800c554:	f001 f8f6 	bl	800d744 <__mcmp>
 800c558:	2800      	cmp	r0, #0
 800c55a:	da63      	bge.n	800c624 <_dtoa_r+0x924>
 800c55c:	2300      	movs	r3, #0
 800c55e:	4659      	mov	r1, fp
 800c560:	220a      	movs	r2, #10
 800c562:	4620      	mov	r0, r4
 800c564:	f000 fe88 	bl	800d278 <__multadd>
 800c568:	9b08      	ldr	r3, [sp, #32]
 800c56a:	f10a 3aff 	add.w	sl, sl, #4294967295
 800c56e:	4683      	mov	fp, r0
 800c570:	2b00      	cmp	r3, #0
 800c572:	f000 818f 	beq.w	800c894 <_dtoa_r+0xb94>
 800c576:	4639      	mov	r1, r7
 800c578:	2300      	movs	r3, #0
 800c57a:	220a      	movs	r2, #10
 800c57c:	4620      	mov	r0, r4
 800c57e:	f000 fe7b 	bl	800d278 <__multadd>
 800c582:	f1b9 0f00 	cmp.w	r9, #0
 800c586:	4607      	mov	r7, r0
 800c588:	f300 808e 	bgt.w	800c6a8 <_dtoa_r+0x9a8>
 800c58c:	9b05      	ldr	r3, [sp, #20]
 800c58e:	2b02      	cmp	r3, #2
 800c590:	dc50      	bgt.n	800c634 <_dtoa_r+0x934>
 800c592:	e089      	b.n	800c6a8 <_dtoa_r+0x9a8>
 800c594:	9b12      	ldr	r3, [sp, #72]	; 0x48
 800c596:	f1c3 0336 	rsb	r3, r3, #54	; 0x36
 800c59a:	e75d      	b.n	800c458 <_dtoa_r+0x758>
 800c59c:	9b01      	ldr	r3, [sp, #4]
 800c59e:	1e5e      	subs	r6, r3, #1
 800c5a0:	9b06      	ldr	r3, [sp, #24]
 800c5a2:	42b3      	cmp	r3, r6
 800c5a4:	bfbf      	itttt	lt
 800c5a6:	9b06      	ldrlt	r3, [sp, #24]
 800c5a8:	9606      	strlt	r6, [sp, #24]
 800c5aa:	1af2      	sublt	r2, r6, r3
 800c5ac:	9b0d      	ldrlt	r3, [sp, #52]	; 0x34
 800c5ae:	bfb6      	itet	lt
 800c5b0:	189b      	addlt	r3, r3, r2
 800c5b2:	1b9e      	subge	r6, r3, r6
 800c5b4:	930d      	strlt	r3, [sp, #52]	; 0x34
 800c5b6:	9b01      	ldr	r3, [sp, #4]
 800c5b8:	bfb8      	it	lt
 800c5ba:	2600      	movlt	r6, #0
 800c5bc:	2b00      	cmp	r3, #0
 800c5be:	bfb5      	itete	lt
 800c5c0:	eba8 0503 	sublt.w	r5, r8, r3
 800c5c4:	9b01      	ldrge	r3, [sp, #4]
 800c5c6:	2300      	movlt	r3, #0
 800c5c8:	4645      	movge	r5, r8
 800c5ca:	e747      	b.n	800c45c <_dtoa_r+0x75c>
 800c5cc:	9e06      	ldr	r6, [sp, #24]
 800c5ce:	9f08      	ldr	r7, [sp, #32]
 800c5d0:	4645      	mov	r5, r8
 800c5d2:	e74c      	b.n	800c46e <_dtoa_r+0x76e>
 800c5d4:	9a06      	ldr	r2, [sp, #24]
 800c5d6:	e775      	b.n	800c4c4 <_dtoa_r+0x7c4>
 800c5d8:	9b05      	ldr	r3, [sp, #20]
 800c5da:	2b01      	cmp	r3, #1
 800c5dc:	dc18      	bgt.n	800c610 <_dtoa_r+0x910>
 800c5de:	9b02      	ldr	r3, [sp, #8]
 800c5e0:	b9b3      	cbnz	r3, 800c610 <_dtoa_r+0x910>
 800c5e2:	9b03      	ldr	r3, [sp, #12]
 800c5e4:	f3c3 0313 	ubfx	r3, r3, #0, #20
 800c5e8:	b9a3      	cbnz	r3, 800c614 <_dtoa_r+0x914>
 800c5ea:	9b03      	ldr	r3, [sp, #12]
 800c5ec:	f023 4300 	bic.w	r3, r3, #2147483648	; 0x80000000
 800c5f0:	0d1b      	lsrs	r3, r3, #20
 800c5f2:	051b      	lsls	r3, r3, #20
 800c5f4:	b12b      	cbz	r3, 800c602 <_dtoa_r+0x902>
 800c5f6:	9b04      	ldr	r3, [sp, #16]
 800c5f8:	3301      	adds	r3, #1
 800c5fa:	9304      	str	r3, [sp, #16]
 800c5fc:	f108 0801 	add.w	r8, r8, #1
 800c600:	2301      	movs	r3, #1
 800c602:	9306      	str	r3, [sp, #24]
 800c604:	9b0d      	ldr	r3, [sp, #52]	; 0x34
 800c606:	2b00      	cmp	r3, #0
 800c608:	f47f af74 	bne.w	800c4f4 <_dtoa_r+0x7f4>
 800c60c:	2001      	movs	r0, #1
 800c60e:	e779      	b.n	800c504 <_dtoa_r+0x804>
 800c610:	2300      	movs	r3, #0
 800c612:	e7f6      	b.n	800c602 <_dtoa_r+0x902>
 800c614:	9b02      	ldr	r3, [sp, #8]
 800c616:	e7f4      	b.n	800c602 <_dtoa_r+0x902>
 800c618:	d085      	beq.n	800c526 <_dtoa_r+0x826>
 800c61a:	4618      	mov	r0, r3
 800c61c:	301c      	adds	r0, #28
 800c61e:	e77d      	b.n	800c51c <_dtoa_r+0x81c>
 800c620:	40240000 	.word	0x40240000
 800c624:	9b01      	ldr	r3, [sp, #4]
 800c626:	2b00      	cmp	r3, #0
 800c628:	dc38      	bgt.n	800c69c <_dtoa_r+0x99c>
 800c62a:	9b05      	ldr	r3, [sp, #20]
 800c62c:	2b02      	cmp	r3, #2
 800c62e:	dd35      	ble.n	800c69c <_dtoa_r+0x99c>
 800c630:	f8dd 9004 	ldr.w	r9, [sp, #4]
 800c634:	f1b9 0f00 	cmp.w	r9, #0
 800c638:	d10d      	bne.n	800c656 <_dtoa_r+0x956>
 800c63a:	4631      	mov	r1, r6
 800c63c:	464b      	mov	r3, r9
 800c63e:	2205      	movs	r2, #5
 800c640:	4620      	mov	r0, r4
 800c642:	f000 fe19 	bl	800d278 <__multadd>
 800c646:	4601      	mov	r1, r0
 800c648:	4606      	mov	r6, r0
 800c64a:	4658      	mov	r0, fp
 800c64c:	f001 f87a 	bl	800d744 <__mcmp>
 800c650:	2800      	cmp	r0, #0
 800c652:	f73f adbd 	bgt.w	800c1d0 <_dtoa_r+0x4d0>
 800c656:	9b09      	ldr	r3, [sp, #36]	; 0x24
 800c658:	9d00      	ldr	r5, [sp, #0]
 800c65a:	ea6f 0a03 	mvn.w	sl, r3
 800c65e:	f04f 0800 	mov.w	r8, #0
 800c662:	4631      	mov	r1, r6
 800c664:	4620      	mov	r0, r4
 800c666:	f000 fde5 	bl	800d234 <_Bfree>
 800c66a:	2f00      	cmp	r7, #0
 800c66c:	f43f aeb4 	beq.w	800c3d8 <_dtoa_r+0x6d8>
 800c670:	f1b8 0f00 	cmp.w	r8, #0
 800c674:	d005      	beq.n	800c682 <_dtoa_r+0x982>
 800c676:	45b8      	cmp	r8, r7
 800c678:	d003      	beq.n	800c682 <_dtoa_r+0x982>
 800c67a:	4641      	mov	r1, r8
 800c67c:	4620      	mov	r0, r4
 800c67e:	f000 fdd9 	bl	800d234 <_Bfree>
 800c682:	4639      	mov	r1, r7
 800c684:	4620      	mov	r0, r4
 800c686:	f000 fdd5 	bl	800d234 <_Bfree>
 800c68a:	e6a5      	b.n	800c3d8 <_dtoa_r+0x6d8>
 800c68c:	2600      	movs	r6, #0
 800c68e:	4637      	mov	r7, r6
 800c690:	e7e1      	b.n	800c656 <_dtoa_r+0x956>
 800c692:	9e0c      	ldr	r6, [sp, #48]	; 0x30
 800c694:	f8dd a01c 	ldr.w	sl, [sp, #28]
 800c698:	4637      	mov	r7, r6
 800c69a:	e599      	b.n	800c1d0 <_dtoa_r+0x4d0>
 800c69c:	9b08      	ldr	r3, [sp, #32]
 800c69e:	f8dd 9004 	ldr.w	r9, [sp, #4]
 800c6a2:	2b00      	cmp	r3, #0
 800c6a4:	f000 80fd 	beq.w	800c8a2 <_dtoa_r+0xba2>
 800c6a8:	2d00      	cmp	r5, #0
 800c6aa:	dd05      	ble.n	800c6b8 <_dtoa_r+0x9b8>
 800c6ac:	4639      	mov	r1, r7
 800c6ae:	462a      	mov	r2, r5
 800c6b0:	4620      	mov	r0, r4
 800c6b2:	f000 ffdb 	bl	800d66c <__lshift>
 800c6b6:	4607      	mov	r7, r0
 800c6b8:	9b06      	ldr	r3, [sp, #24]
 800c6ba:	2b00      	cmp	r3, #0
 800c6bc:	d05c      	beq.n	800c778 <_dtoa_r+0xa78>
 800c6be:	6879      	ldr	r1, [r7, #4]
 800c6c0:	4620      	mov	r0, r4
 800c6c2:	f000 fd77 	bl	800d1b4 <_Balloc>
 800c6c6:	4605      	mov	r5, r0
 800c6c8:	b928      	cbnz	r0, 800c6d6 <_dtoa_r+0x9d6>
 800c6ca:	4b80      	ldr	r3, [pc, #512]	; (800c8cc <_dtoa_r+0xbcc>)
 800c6cc:	4602      	mov	r2, r0
 800c6ce:	f240 21ea 	movw	r1, #746	; 0x2ea
 800c6d2:	f7ff bb2e 	b.w	800bd32 <_dtoa_r+0x32>
 800c6d6:	693a      	ldr	r2, [r7, #16]
 800c6d8:	3202      	adds	r2, #2
 800c6da:	0092      	lsls	r2, r2, #2
 800c6dc:	f107 010c 	add.w	r1, r7, #12
 800c6e0:	300c      	adds	r0, #12
 800c6e2:	f7fd fbdc 	bl	8009e9e <memcpy>
 800c6e6:	2201      	movs	r2, #1
 800c6e8:	4629      	mov	r1, r5
 800c6ea:	4620      	mov	r0, r4
 800c6ec:	f000 ffbe 	bl	800d66c <__lshift>
 800c6f0:	9b00      	ldr	r3, [sp, #0]
 800c6f2:	3301      	adds	r3, #1
 800c6f4:	9301      	str	r3, [sp, #4]
 800c6f6:	9b00      	ldr	r3, [sp, #0]
 800c6f8:	444b      	add	r3, r9
 800c6fa:	9307      	str	r3, [sp, #28]
 800c6fc:	9b02      	ldr	r3, [sp, #8]
 800c6fe:	f003 0301 	and.w	r3, r3, #1
 800c702:	46b8      	mov	r8, r7
 800c704:	9306      	str	r3, [sp, #24]
 800c706:	4607      	mov	r7, r0
 800c708:	9b01      	ldr	r3, [sp, #4]
 800c70a:	4631      	mov	r1, r6
 800c70c:	3b01      	subs	r3, #1
 800c70e:	4658      	mov	r0, fp
 800c710:	9302      	str	r3, [sp, #8]
 800c712:	f7ff fa69 	bl	800bbe8 <quorem>
 800c716:	4603      	mov	r3, r0
 800c718:	3330      	adds	r3, #48	; 0x30
 800c71a:	9004      	str	r0, [sp, #16]
 800c71c:	4641      	mov	r1, r8
 800c71e:	4658      	mov	r0, fp
 800c720:	9308      	str	r3, [sp, #32]
 800c722:	f001 f80f 	bl	800d744 <__mcmp>
 800c726:	463a      	mov	r2, r7
 800c728:	4681      	mov	r9, r0
 800c72a:	4631      	mov	r1, r6
 800c72c:	4620      	mov	r0, r4
 800c72e:	f001 f825 	bl	800d77c <__mdiff>
 800c732:	68c2      	ldr	r2, [r0, #12]
 800c734:	9b08      	ldr	r3, [sp, #32]
 800c736:	4605      	mov	r5, r0
 800c738:	bb02      	cbnz	r2, 800c77c <_dtoa_r+0xa7c>
 800c73a:	4601      	mov	r1, r0
 800c73c:	4658      	mov	r0, fp
 800c73e:	f001 f801 	bl	800d744 <__mcmp>
 800c742:	9b08      	ldr	r3, [sp, #32]
 800c744:	4602      	mov	r2, r0
 800c746:	4629      	mov	r1, r5
 800c748:	4620      	mov	r0, r4
 800c74a:	e9cd 3208 	strd	r3, r2, [sp, #32]
 800c74e:	f000 fd71 	bl	800d234 <_Bfree>
 800c752:	9b05      	ldr	r3, [sp, #20]
 800c754:	9a09      	ldr	r2, [sp, #36]	; 0x24
 800c756:	9d01      	ldr	r5, [sp, #4]
 800c758:	ea43 0102 	orr.w	r1, r3, r2
 800c75c:	9b06      	ldr	r3, [sp, #24]
 800c75e:	430b      	orrs	r3, r1
 800c760:	9b08      	ldr	r3, [sp, #32]
 800c762:	d10d      	bne.n	800c780 <_dtoa_r+0xa80>
 800c764:	2b39      	cmp	r3, #57	; 0x39
 800c766:	d029      	beq.n	800c7bc <_dtoa_r+0xabc>
 800c768:	f1b9 0f00 	cmp.w	r9, #0
 800c76c:	dd01      	ble.n	800c772 <_dtoa_r+0xa72>
 800c76e:	9b04      	ldr	r3, [sp, #16]
 800c770:	3331      	adds	r3, #49	; 0x31
 800c772:	9a02      	ldr	r2, [sp, #8]
 800c774:	7013      	strb	r3, [r2, #0]
 800c776:	e774      	b.n	800c662 <_dtoa_r+0x962>
 800c778:	4638      	mov	r0, r7
 800c77a:	e7b9      	b.n	800c6f0 <_dtoa_r+0x9f0>
 800c77c:	2201      	movs	r2, #1
 800c77e:	e7e2      	b.n	800c746 <_dtoa_r+0xa46>
 800c780:	f1b9 0f00 	cmp.w	r9, #0
 800c784:	db06      	blt.n	800c794 <_dtoa_r+0xa94>
 800c786:	9905      	ldr	r1, [sp, #20]
 800c788:	ea41 0909 	orr.w	r9, r1, r9
 800c78c:	9906      	ldr	r1, [sp, #24]
 800c78e:	ea59 0101 	orrs.w	r1, r9, r1
 800c792:	d120      	bne.n	800c7d6 <_dtoa_r+0xad6>
 800c794:	2a00      	cmp	r2, #0
 800c796:	ddec      	ble.n	800c772 <_dtoa_r+0xa72>
 800c798:	4659      	mov	r1, fp
 800c79a:	2201      	movs	r2, #1
 800c79c:	4620      	mov	r0, r4
 800c79e:	9301      	str	r3, [sp, #4]
 800c7a0:	f000 ff64 	bl	800d66c <__lshift>
 800c7a4:	4631      	mov	r1, r6
 800c7a6:	4683      	mov	fp, r0
 800c7a8:	f000 ffcc 	bl	800d744 <__mcmp>
 800c7ac:	2800      	cmp	r0, #0
 800c7ae:	9b01      	ldr	r3, [sp, #4]
 800c7b0:	dc02      	bgt.n	800c7b8 <_dtoa_r+0xab8>
 800c7b2:	d1de      	bne.n	800c772 <_dtoa_r+0xa72>
 800c7b4:	07da      	lsls	r2, r3, #31
 800c7b6:	d5dc      	bpl.n	800c772 <_dtoa_r+0xa72>
 800c7b8:	2b39      	cmp	r3, #57	; 0x39
 800c7ba:	d1d8      	bne.n	800c76e <_dtoa_r+0xa6e>
 800c7bc:	9a02      	ldr	r2, [sp, #8]
 800c7be:	2339      	movs	r3, #57	; 0x39
 800c7c0:	7013      	strb	r3, [r2, #0]
 800c7c2:	462b      	mov	r3, r5
 800c7c4:	461d      	mov	r5, r3
 800c7c6:	3b01      	subs	r3, #1
 800c7c8:	f815 2c01 	ldrb.w	r2, [r5, #-1]
 800c7cc:	2a39      	cmp	r2, #57	; 0x39
 800c7ce:	d050      	beq.n	800c872 <_dtoa_r+0xb72>
 800c7d0:	3201      	adds	r2, #1
 800c7d2:	701a      	strb	r2, [r3, #0]
 800c7d4:	e745      	b.n	800c662 <_dtoa_r+0x962>
 800c7d6:	2a00      	cmp	r2, #0
 800c7d8:	dd03      	ble.n	800c7e2 <_dtoa_r+0xae2>
 800c7da:	2b39      	cmp	r3, #57	; 0x39
 800c7dc:	d0ee      	beq.n	800c7bc <_dtoa_r+0xabc>
 800c7de:	3301      	adds	r3, #1
 800c7e0:	e7c7      	b.n	800c772 <_dtoa_r+0xa72>
 800c7e2:	9a01      	ldr	r2, [sp, #4]
 800c7e4:	9907      	ldr	r1, [sp, #28]
 800c7e6:	f802 3c01 	strb.w	r3, [r2, #-1]
 800c7ea:	428a      	cmp	r2, r1
 800c7ec:	d02a      	beq.n	800c844 <_dtoa_r+0xb44>
 800c7ee:	4659      	mov	r1, fp
 800c7f0:	2300      	movs	r3, #0
 800c7f2:	220a      	movs	r2, #10
 800c7f4:	4620      	mov	r0, r4
 800c7f6:	f000 fd3f 	bl	800d278 <__multadd>
 800c7fa:	45b8      	cmp	r8, r7
 800c7fc:	4683      	mov	fp, r0
 800c7fe:	f04f 0300 	mov.w	r3, #0
 800c802:	f04f 020a 	mov.w	r2, #10
 800c806:	4641      	mov	r1, r8
 800c808:	4620      	mov	r0, r4
 800c80a:	d107      	bne.n	800c81c <_dtoa_r+0xb1c>
 800c80c:	f000 fd34 	bl	800d278 <__multadd>
 800c810:	4680      	mov	r8, r0
 800c812:	4607      	mov	r7, r0
 800c814:	9b01      	ldr	r3, [sp, #4]
 800c816:	3301      	adds	r3, #1
 800c818:	9301      	str	r3, [sp, #4]
 800c81a:	e775      	b.n	800c708 <_dtoa_r+0xa08>
 800c81c:	f000 fd2c 	bl	800d278 <__multadd>
 800c820:	4639      	mov	r1, r7
 800c822:	4680      	mov	r8, r0
 800c824:	2300      	movs	r3, #0
 800c826:	220a      	movs	r2, #10
 800c828:	4620      	mov	r0, r4
 800c82a:	f000 fd25 	bl	800d278 <__multadd>
 800c82e:	4607      	mov	r7, r0
 800c830:	e7f0      	b.n	800c814 <_dtoa_r+0xb14>
 800c832:	f1b9 0f00 	cmp.w	r9, #0
 800c836:	9a00      	ldr	r2, [sp, #0]
 800c838:	bfcc      	ite	gt
 800c83a:	464d      	movgt	r5, r9
 800c83c:	2501      	movle	r5, #1
 800c83e:	4415      	add	r5, r2
 800c840:	f04f 0800 	mov.w	r8, #0
 800c844:	4659      	mov	r1, fp
 800c846:	2201      	movs	r2, #1
 800c848:	4620      	mov	r0, r4
 800c84a:	9301      	str	r3, [sp, #4]
 800c84c:	f000 ff0e 	bl	800d66c <__lshift>
 800c850:	4631      	mov	r1, r6
 800c852:	4683      	mov	fp, r0
 800c854:	f000 ff76 	bl	800d744 <__mcmp>
 800c858:	2800      	cmp	r0, #0
 800c85a:	dcb2      	bgt.n	800c7c2 <_dtoa_r+0xac2>
 800c85c:	d102      	bne.n	800c864 <_dtoa_r+0xb64>
 800c85e:	9b01      	ldr	r3, [sp, #4]
 800c860:	07db      	lsls	r3, r3, #31
 800c862:	d4ae      	bmi.n	800c7c2 <_dtoa_r+0xac2>
 800c864:	462b      	mov	r3, r5
 800c866:	461d      	mov	r5, r3
 800c868:	f813 2d01 	ldrb.w	r2, [r3, #-1]!
 800c86c:	2a30      	cmp	r2, #48	; 0x30
 800c86e:	d0fa      	beq.n	800c866 <_dtoa_r+0xb66>
 800c870:	e6f7      	b.n	800c662 <_dtoa_r+0x962>
 800c872:	9a00      	ldr	r2, [sp, #0]
 800c874:	429a      	cmp	r2, r3
 800c876:	d1a5      	bne.n	800c7c4 <_dtoa_r+0xac4>
 800c878:	f10a 0a01 	add.w	sl, sl, #1
 800c87c:	2331      	movs	r3, #49	; 0x31
 800c87e:	e779      	b.n	800c774 <_dtoa_r+0xa74>
 800c880:	4b13      	ldr	r3, [pc, #76]	; (800c8d0 <_dtoa_r+0xbd0>)
 800c882:	f7ff baaf 	b.w	800bde4 <_dtoa_r+0xe4>
 800c886:	9b21      	ldr	r3, [sp, #132]	; 0x84
 800c888:	2b00      	cmp	r3, #0
 800c88a:	f47f aa86 	bne.w	800bd9a <_dtoa_r+0x9a>
 800c88e:	4b11      	ldr	r3, [pc, #68]	; (800c8d4 <_dtoa_r+0xbd4>)
 800c890:	f7ff baa8 	b.w	800bde4 <_dtoa_r+0xe4>
 800c894:	f1b9 0f00 	cmp.w	r9, #0
 800c898:	dc03      	bgt.n	800c8a2 <_dtoa_r+0xba2>
 800c89a:	9b05      	ldr	r3, [sp, #20]
 800c89c:	2b02      	cmp	r3, #2
 800c89e:	f73f aec9 	bgt.w	800c634 <_dtoa_r+0x934>
 800c8a2:	9d00      	ldr	r5, [sp, #0]
 800c8a4:	4631      	mov	r1, r6
 800c8a6:	4658      	mov	r0, fp
 800c8a8:	f7ff f99e 	bl	800bbe8 <quorem>
 800c8ac:	f100 0330 	add.w	r3, r0, #48	; 0x30
 800c8b0:	f805 3b01 	strb.w	r3, [r5], #1
 800c8b4:	9a00      	ldr	r2, [sp, #0]
 800c8b6:	1aaa      	subs	r2, r5, r2
 800c8b8:	4591      	cmp	r9, r2
 800c8ba:	ddba      	ble.n	800c832 <_dtoa_r+0xb32>
 800c8bc:	4659      	mov	r1, fp
 800c8be:	2300      	movs	r3, #0
 800c8c0:	220a      	movs	r2, #10
 800c8c2:	4620      	mov	r0, r4
 800c8c4:	f000 fcd8 	bl	800d278 <__multadd>
 800c8c8:	4683      	mov	fp, r0
 800c8ca:	e7eb      	b.n	800c8a4 <_dtoa_r+0xba4>
 800c8cc:	080100a4 	.word	0x080100a4
 800c8d0:	0800fea4 	.word	0x0800fea4
 800c8d4:	08010021 	.word	0x08010021

0800c8d8 <__sflush_r>:
 800c8d8:	898a      	ldrh	r2, [r1, #12]
 800c8da:	e92d 41f0 	stmdb	sp!, {r4, r5, r6, r7, r8, lr}
 800c8de:	4605      	mov	r5, r0
 800c8e0:	0710      	lsls	r0, r2, #28
 800c8e2:	460c      	mov	r4, r1
 800c8e4:	d458      	bmi.n	800c998 <__sflush_r+0xc0>
 800c8e6:	684b      	ldr	r3, [r1, #4]
 800c8e8:	2b00      	cmp	r3, #0
 800c8ea:	dc05      	bgt.n	800c8f8 <__sflush_r+0x20>
 800c8ec:	6c0b      	ldr	r3, [r1, #64]	; 0x40
 800c8ee:	2b00      	cmp	r3, #0
 800c8f0:	dc02      	bgt.n	800c8f8 <__sflush_r+0x20>
 800c8f2:	2000      	movs	r0, #0
 800c8f4:	e8bd 81f0 	ldmia.w	sp!, {r4, r5, r6, r7, r8, pc}
 800c8f8:	6ae6      	ldr	r6, [r4, #44]	; 0x2c
 800c8fa:	2e00      	cmp	r6, #0
 800c8fc:	d0f9      	beq.n	800c8f2 <__sflush_r+0x1a>
 800c8fe:	2300      	movs	r3, #0
 800c900:	f412 5280 	ands.w	r2, r2, #4096	; 0x1000
 800c904:	682f      	ldr	r7, [r5, #0]
 800c906:	602b      	str	r3, [r5, #0]
 800c908:	d032      	beq.n	800c970 <__sflush_r+0x98>
 800c90a:	6d60      	ldr	r0, [r4, #84]	; 0x54
 800c90c:	89a3      	ldrh	r3, [r4, #12]
 800c90e:	075a      	lsls	r2, r3, #29
 800c910:	d505      	bpl.n	800c91e <__sflush_r+0x46>
 800c912:	6863      	ldr	r3, [r4, #4]
 800c914:	1ac0      	subs	r0, r0, r3
 800c916:	6b63      	ldr	r3, [r4, #52]	; 0x34
 800c918:	b10b      	cbz	r3, 800c91e <__sflush_r+0x46>
 800c91a:	6c23      	ldr	r3, [r4, #64]	; 0x40
 800c91c:	1ac0      	subs	r0, r0, r3
 800c91e:	2300      	movs	r3, #0
 800c920:	4602      	mov	r2, r0
 800c922:	6ae6      	ldr	r6, [r4, #44]	; 0x2c
 800c924:	6a21      	ldr	r1, [r4, #32]
 800c926:	4628      	mov	r0, r5
 800c928:	47b0      	blx	r6
 800c92a:	1c43      	adds	r3, r0, #1
 800c92c:	89a3      	ldrh	r3, [r4, #12]
 800c92e:	d106      	bne.n	800c93e <__sflush_r+0x66>
 800c930:	6829      	ldr	r1, [r5, #0]
 800c932:	291d      	cmp	r1, #29
 800c934:	d82c      	bhi.n	800c990 <__sflush_r+0xb8>
 800c936:	4a2a      	ldr	r2, [pc, #168]	; (800c9e0 <__sflush_r+0x108>)
 800c938:	40ca      	lsrs	r2, r1
 800c93a:	07d6      	lsls	r6, r2, #31
 800c93c:	d528      	bpl.n	800c990 <__sflush_r+0xb8>
 800c93e:	2200      	movs	r2, #0
 800c940:	6062      	str	r2, [r4, #4]
 800c942:	04d9      	lsls	r1, r3, #19
 800c944:	6922      	ldr	r2, [r4, #16]
 800c946:	6022      	str	r2, [r4, #0]
 800c948:	d504      	bpl.n	800c954 <__sflush_r+0x7c>
 800c94a:	1c42      	adds	r2, r0, #1
 800c94c:	d101      	bne.n	800c952 <__sflush_r+0x7a>
 800c94e:	682b      	ldr	r3, [r5, #0]
 800c950:	b903      	cbnz	r3, 800c954 <__sflush_r+0x7c>
 800c952:	6560      	str	r0, [r4, #84]	; 0x54
 800c954:	6b61      	ldr	r1, [r4, #52]	; 0x34
 800c956:	602f      	str	r7, [r5, #0]
 800c958:	2900      	cmp	r1, #0
 800c95a:	d0ca      	beq.n	800c8f2 <__sflush_r+0x1a>
 800c95c:	f104 0344 	add.w	r3, r4, #68	; 0x44
 800c960:	4299      	cmp	r1, r3
 800c962:	d002      	beq.n	800c96a <__sflush_r+0x92>
 800c964:	4628      	mov	r0, r5
 800c966:	f001 f8ef 	bl	800db48 <_free_r>
 800c96a:	2000      	movs	r0, #0
 800c96c:	6360      	str	r0, [r4, #52]	; 0x34
 800c96e:	e7c1      	b.n	800c8f4 <__sflush_r+0x1c>
 800c970:	6a21      	ldr	r1, [r4, #32]
 800c972:	2301      	movs	r3, #1
 800c974:	4628      	mov	r0, r5
 800c976:	47b0      	blx	r6
 800c978:	1c41      	adds	r1, r0, #1
 800c97a:	d1c7      	bne.n	800c90c <__sflush_r+0x34>
 800c97c:	682b      	ldr	r3, [r5, #0]
 800c97e:	2b00      	cmp	r3, #0
 800c980:	d0c4      	beq.n	800c90c <__sflush_r+0x34>
 800c982:	2b1d      	cmp	r3, #29
 800c984:	d001      	beq.n	800c98a <__sflush_r+0xb2>
 800c986:	2b16      	cmp	r3, #22
 800c988:	d101      	bne.n	800c98e <__sflush_r+0xb6>
 800c98a:	602f      	str	r7, [r5, #0]
 800c98c:	e7b1      	b.n	800c8f2 <__sflush_r+0x1a>
 800c98e:	89a3      	ldrh	r3, [r4, #12]
 800c990:	f043 0340 	orr.w	r3, r3, #64	; 0x40
 800c994:	81a3      	strh	r3, [r4, #12]
 800c996:	e7ad      	b.n	800c8f4 <__sflush_r+0x1c>
 800c998:	690f      	ldr	r7, [r1, #16]
 800c99a:	2f00      	cmp	r7, #0
 800c99c:	d0a9      	beq.n	800c8f2 <__sflush_r+0x1a>
 800c99e:	0793      	lsls	r3, r2, #30
 800c9a0:	680e      	ldr	r6, [r1, #0]
 800c9a2:	bf08      	it	eq
 800c9a4:	694b      	ldreq	r3, [r1, #20]
 800c9a6:	600f      	str	r7, [r1, #0]
 800c9a8:	bf18      	it	ne
 800c9aa:	2300      	movne	r3, #0
 800c9ac:	eba6 0807 	sub.w	r8, r6, r7
 800c9b0:	608b      	str	r3, [r1, #8]
 800c9b2:	f1b8 0f00 	cmp.w	r8, #0
 800c9b6:	dd9c      	ble.n	800c8f2 <__sflush_r+0x1a>
 800c9b8:	6a21      	ldr	r1, [r4, #32]
 800c9ba:	6aa6      	ldr	r6, [r4, #40]	; 0x28
 800c9bc:	4643      	mov	r3, r8
 800c9be:	463a      	mov	r2, r7
 800c9c0:	4628      	mov	r0, r5
 800c9c2:	47b0      	blx	r6
 800c9c4:	2800      	cmp	r0, #0
 800c9c6:	dc06      	bgt.n	800c9d6 <__sflush_r+0xfe>
 800c9c8:	89a3      	ldrh	r3, [r4, #12]
 800c9ca:	f043 0340 	orr.w	r3, r3, #64	; 0x40
 800c9ce:	81a3      	strh	r3, [r4, #12]
 800c9d0:	f04f 30ff 	mov.w	r0, #4294967295
 800c9d4:	e78e      	b.n	800c8f4 <__sflush_r+0x1c>
 800c9d6:	4407      	add	r7, r0
 800c9d8:	eba8 0800 	sub.w	r8, r8, r0
 800c9dc:	e7e9      	b.n	800c9b2 <__sflush_r+0xda>
 800c9de:	bf00      	nop
 800c9e0:	20400001 	.word	0x20400001

0800c9e4 <_fflush_r>:
 800c9e4:	b538      	push	{r3, r4, r5, lr}
 800c9e6:	690b      	ldr	r3, [r1, #16]
 800c9e8:	4605      	mov	r5, r0
 800c9ea:	460c      	mov	r4, r1
 800c9ec:	b913      	cbnz	r3, 800c9f4 <_fflush_r+0x10>
 800c9ee:	2500      	movs	r5, #0
 800c9f0:	4628      	mov	r0, r5
 800c9f2:	bd38      	pop	{r3, r4, r5, pc}
 800c9f4:	b118      	cbz	r0, 800c9fe <_fflush_r+0x1a>
 800c9f6:	6983      	ldr	r3, [r0, #24]
 800c9f8:	b90b      	cbnz	r3, 800c9fe <_fflush_r+0x1a>
 800c9fa:	f7fd f98b 	bl	8009d14 <__sinit>
 800c9fe:	4b14      	ldr	r3, [pc, #80]	; (800ca50 <_fflush_r+0x6c>)
 800ca00:	429c      	cmp	r4, r3
 800ca02:	d11b      	bne.n	800ca3c <_fflush_r+0x58>
 800ca04:	686c      	ldr	r4, [r5, #4]
 800ca06:	f9b4 300c 	ldrsh.w	r3, [r4, #12]
 800ca0a:	2b00      	cmp	r3, #0
 800ca0c:	d0ef      	beq.n	800c9ee <_fflush_r+0xa>
 800ca0e:	6e62      	ldr	r2, [r4, #100]	; 0x64
 800ca10:	07d0      	lsls	r0, r2, #31
 800ca12:	d404      	bmi.n	800ca1e <_fflush_r+0x3a>
 800ca14:	0599      	lsls	r1, r3, #22
 800ca16:	d402      	bmi.n	800ca1e <_fflush_r+0x3a>
 800ca18:	6da0      	ldr	r0, [r4, #88]	; 0x58
 800ca1a:	f7fd fa3e 	bl	8009e9a <__retarget_lock_acquire_recursive>
 800ca1e:	4628      	mov	r0, r5
 800ca20:	4621      	mov	r1, r4
 800ca22:	f7ff ff59 	bl	800c8d8 <__sflush_r>
 800ca26:	6e63      	ldr	r3, [r4, #100]	; 0x64
 800ca28:	07da      	lsls	r2, r3, #31
 800ca2a:	4605      	mov	r5, r0
 800ca2c:	d4e0      	bmi.n	800c9f0 <_fflush_r+0xc>
 800ca2e:	89a3      	ldrh	r3, [r4, #12]
 800ca30:	059b      	lsls	r3, r3, #22
 800ca32:	d4dd      	bmi.n	800c9f0 <_fflush_r+0xc>
 800ca34:	6da0      	ldr	r0, [r4, #88]	; 0x58
 800ca36:	f7fd fa31 	bl	8009e9c <__retarget_lock_release_recursive>
 800ca3a:	e7d9      	b.n	800c9f0 <_fflush_r+0xc>
 800ca3c:	4b05      	ldr	r3, [pc, #20]	; (800ca54 <_fflush_r+0x70>)
 800ca3e:	429c      	cmp	r4, r3
 800ca40:	d101      	bne.n	800ca46 <_fflush_r+0x62>
 800ca42:	68ac      	ldr	r4, [r5, #8]
 800ca44:	e7df      	b.n	800ca06 <_fflush_r+0x22>
 800ca46:	4b04      	ldr	r3, [pc, #16]	; (800ca58 <_fflush_r+0x74>)
 800ca48:	429c      	cmp	r4, r3
 800ca4a:	bf08      	it	eq
 800ca4c:	68ec      	ldreq	r4, [r5, #12]
 800ca4e:	e7da      	b.n	800ca06 <_fflush_r+0x22>
 800ca50:	0800fe50 	.word	0x0800fe50
 800ca54:	0800fe70 	.word	0x0800fe70
 800ca58:	0800fe30 	.word	0x0800fe30

0800ca5c <rshift>:
 800ca5c:	6903      	ldr	r3, [r0, #16]
 800ca5e:	ebb3 1f61 	cmp.w	r3, r1, asr #5
 800ca62:	e92d 43f0 	stmdb	sp!, {r4, r5, r6, r7, r8, r9, lr}
 800ca66:	ea4f 1261 	mov.w	r2, r1, asr #5
 800ca6a:	f100 0414 	add.w	r4, r0, #20
 800ca6e:	dd45      	ble.n	800cafc <rshift+0xa0>
 800ca70:	f011 011f 	ands.w	r1, r1, #31
 800ca74:	eb04 0683 	add.w	r6, r4, r3, lsl #2
 800ca78:	eb04 0582 	add.w	r5, r4, r2, lsl #2
 800ca7c:	d10c      	bne.n	800ca98 <rshift+0x3c>
 800ca7e:	f100 0710 	add.w	r7, r0, #16
 800ca82:	4629      	mov	r1, r5
 800ca84:	42b1      	cmp	r1, r6
 800ca86:	d334      	bcc.n	800caf2 <rshift+0x96>
 800ca88:	1a9b      	subs	r3, r3, r2
 800ca8a:	009b      	lsls	r3, r3, #2
 800ca8c:	1eea      	subs	r2, r5, #3
 800ca8e:	4296      	cmp	r6, r2
 800ca90:	bf38      	it	cc
 800ca92:	2300      	movcc	r3, #0
 800ca94:	4423      	add	r3, r4
 800ca96:	e015      	b.n	800cac4 <rshift+0x68>
 800ca98:	f854 7022 	ldr.w	r7, [r4, r2, lsl #2]
 800ca9c:	f1c1 0820 	rsb	r8, r1, #32
 800caa0:	40cf      	lsrs	r7, r1
 800caa2:	f105 0e04 	add.w	lr, r5, #4
 800caa6:	46a1      	mov	r9, r4
 800caa8:	4576      	cmp	r6, lr
 800caaa:	46f4      	mov	ip, lr
 800caac:	d815      	bhi.n	800cada <rshift+0x7e>
 800caae:	1a9b      	subs	r3, r3, r2
 800cab0:	009a      	lsls	r2, r3, #2
 800cab2:	3a04      	subs	r2, #4
 800cab4:	3501      	adds	r5, #1
 800cab6:	42ae      	cmp	r6, r5
 800cab8:	bf38      	it	cc
 800caba:	2200      	movcc	r2, #0
 800cabc:	18a3      	adds	r3, r4, r2
 800cabe:	50a7      	str	r7, [r4, r2]
 800cac0:	b107      	cbz	r7, 800cac4 <rshift+0x68>
 800cac2:	3304      	adds	r3, #4
 800cac4:	1b1a      	subs	r2, r3, r4
 800cac6:	42a3      	cmp	r3, r4
 800cac8:	ea4f 02a2 	mov.w	r2, r2, asr #2
 800cacc:	bf08      	it	eq
 800cace:	2300      	moveq	r3, #0
 800cad0:	6102      	str	r2, [r0, #16]
 800cad2:	bf08      	it	eq
 800cad4:	6143      	streq	r3, [r0, #20]
 800cad6:	e8bd 83f0 	ldmia.w	sp!, {r4, r5, r6, r7, r8, r9, pc}
 800cada:	f8dc c000 	ldr.w	ip, [ip]
 800cade:	fa0c fc08 	lsl.w	ip, ip, r8
 800cae2:	ea4c 0707 	orr.w	r7, ip, r7
 800cae6:	f849 7b04 	str.w	r7, [r9], #4
 800caea:	f85e 7b04 	ldr.w	r7, [lr], #4
 800caee:	40cf      	lsrs	r7, r1
 800caf0:	e7da      	b.n	800caa8 <rshift+0x4c>
 800caf2:	f851 cb04 	ldr.w	ip, [r1], #4
 800caf6:	f847 cf04 	str.w	ip, [r7, #4]!
 800cafa:	e7c3      	b.n	800ca84 <rshift+0x28>
 800cafc:	4623      	mov	r3, r4
 800cafe:	e7e1      	b.n	800cac4 <rshift+0x68>

0800cb00 <__hexdig_fun>:
 800cb00:	f1a0 0330 	sub.w	r3, r0, #48	; 0x30
 800cb04:	2b09      	cmp	r3, #9
 800cb06:	d802      	bhi.n	800cb0e <__hexdig_fun+0xe>
 800cb08:	3820      	subs	r0, #32
 800cb0a:	b2c0      	uxtb	r0, r0
 800cb0c:	4770      	bx	lr
 800cb0e:	f1a0 0361 	sub.w	r3, r0, #97	; 0x61
 800cb12:	2b05      	cmp	r3, #5
 800cb14:	d801      	bhi.n	800cb1a <__hexdig_fun+0x1a>
 800cb16:	3847      	subs	r0, #71	; 0x47
 800cb18:	e7f7      	b.n	800cb0a <__hexdig_fun+0xa>
 800cb1a:	f1a0 0341 	sub.w	r3, r0, #65	; 0x41
 800cb1e:	2b05      	cmp	r3, #5
 800cb20:	d801      	bhi.n	800cb26 <__hexdig_fun+0x26>
 800cb22:	3827      	subs	r0, #39	; 0x27
 800cb24:	e7f1      	b.n	800cb0a <__hexdig_fun+0xa>
 800cb26:	2000      	movs	r0, #0
 800cb28:	4770      	bx	lr
	...

0800cb2c <__gethex>:
 800cb2c:	e92d 4ff0 	stmdb	sp!, {r4, r5, r6, r7, r8, r9, sl, fp, lr}
 800cb30:	ed2d 8b02 	vpush	{d8}
 800cb34:	b089      	sub	sp, #36	; 0x24
 800cb36:	ee08 0a10 	vmov	s16, r0
 800cb3a:	9304      	str	r3, [sp, #16]
 800cb3c:	4bbc      	ldr	r3, [pc, #752]	; (800ce30 <__gethex+0x304>)
 800cb3e:	681b      	ldr	r3, [r3, #0]
 800cb40:	9301      	str	r3, [sp, #4]
 800cb42:	4618      	mov	r0, r3
 800cb44:	468b      	mov	fp, r1
 800cb46:	4690      	mov	r8, r2
 800cb48:	f7f3 fb42 	bl	80001d0 <strlen>
 800cb4c:	9b01      	ldr	r3, [sp, #4]
 800cb4e:	f8db 2000 	ldr.w	r2, [fp]
 800cb52:	4403      	add	r3, r0
 800cb54:	4682      	mov	sl, r0
 800cb56:	f813 3c01 	ldrb.w	r3, [r3, #-1]
 800cb5a:	9305      	str	r3, [sp, #20]
 800cb5c:	1c93      	adds	r3, r2, #2
 800cb5e:	f1c2 22ff 	rsb	r2, r2, #4278255360	; 0xff00ff00
 800cb62:	f502 027f 	add.w	r2, r2, #16711680	; 0xff0000
 800cb66:	32fe      	adds	r2, #254	; 0xfe
 800cb68:	18d1      	adds	r1, r2, r3
 800cb6a:	461f      	mov	r7, r3
 800cb6c:	f813 0b01 	ldrb.w	r0, [r3], #1
 800cb70:	9100      	str	r1, [sp, #0]
 800cb72:	2830      	cmp	r0, #48	; 0x30
 800cb74:	d0f8      	beq.n	800cb68 <__gethex+0x3c>
 800cb76:	f7ff ffc3 	bl	800cb00 <__hexdig_fun>
 800cb7a:	4604      	mov	r4, r0
 800cb7c:	2800      	cmp	r0, #0
 800cb7e:	d13a      	bne.n	800cbf6 <__gethex+0xca>
 800cb80:	9901      	ldr	r1, [sp, #4]
 800cb82:	4652      	mov	r2, sl
 800cb84:	4638      	mov	r0, r7
 800cb86:	f001 f9a7 	bl	800ded8 <strncmp>
 800cb8a:	4605      	mov	r5, r0
 800cb8c:	2800      	cmp	r0, #0
 800cb8e:	d168      	bne.n	800cc62 <__gethex+0x136>
 800cb90:	f817 000a 	ldrb.w	r0, [r7, sl]
 800cb94:	eb07 060a 	add.w	r6, r7, sl
 800cb98:	f7ff ffb2 	bl	800cb00 <__hexdig_fun>
 800cb9c:	2800      	cmp	r0, #0
 800cb9e:	d062      	beq.n	800cc66 <__gethex+0x13a>
 800cba0:	4633      	mov	r3, r6
 800cba2:	7818      	ldrb	r0, [r3, #0]
 800cba4:	2830      	cmp	r0, #48	; 0x30
 800cba6:	461f      	mov	r7, r3
 800cba8:	f103 0301 	add.w	r3, r3, #1
 800cbac:	d0f9      	beq.n	800cba2 <__gethex+0x76>
 800cbae:	f7ff ffa7 	bl	800cb00 <__hexdig_fun>
 800cbb2:	2301      	movs	r3, #1
 800cbb4:	fab0 f480 	clz	r4, r0
 800cbb8:	0964      	lsrs	r4, r4, #5
 800cbba:	4635      	mov	r5, r6
 800cbbc:	9300      	str	r3, [sp, #0]
 800cbbe:	463a      	mov	r2, r7
 800cbc0:	4616      	mov	r6, r2
 800cbc2:	3201      	adds	r2, #1
 800cbc4:	7830      	ldrb	r0, [r6, #0]
 800cbc6:	f7ff ff9b 	bl	800cb00 <__hexdig_fun>
 800cbca:	2800      	cmp	r0, #0
 800cbcc:	d1f8      	bne.n	800cbc0 <__gethex+0x94>
 800cbce:	9901      	ldr	r1, [sp, #4]
 800cbd0:	4652      	mov	r2, sl
 800cbd2:	4630      	mov	r0, r6
 800cbd4:	f001 f980 	bl	800ded8 <strncmp>
 800cbd8:	b980      	cbnz	r0, 800cbfc <__gethex+0xd0>
 800cbda:	b94d      	cbnz	r5, 800cbf0 <__gethex+0xc4>
 800cbdc:	eb06 050a 	add.w	r5, r6, sl
 800cbe0:	462a      	mov	r2, r5
 800cbe2:	4616      	mov	r6, r2
 800cbe4:	3201      	adds	r2, #1
 800cbe6:	7830      	ldrb	r0, [r6, #0]
 800cbe8:	f7ff ff8a 	bl	800cb00 <__hexdig_fun>
 800cbec:	2800      	cmp	r0, #0
 800cbee:	d1f8      	bne.n	800cbe2 <__gethex+0xb6>
 800cbf0:	1bad      	subs	r5, r5, r6
 800cbf2:	00ad      	lsls	r5, r5, #2
 800cbf4:	e004      	b.n	800cc00 <__gethex+0xd4>
 800cbf6:	2400      	movs	r4, #0
 800cbf8:	4625      	mov	r5, r4
 800cbfa:	e7e0      	b.n	800cbbe <__gethex+0x92>
 800cbfc:	2d00      	cmp	r5, #0
 800cbfe:	d1f7      	bne.n	800cbf0 <__gethex+0xc4>
 800cc00:	7833      	ldrb	r3, [r6, #0]
 800cc02:	f003 03df 	and.w	r3, r3, #223	; 0xdf
 800cc06:	2b50      	cmp	r3, #80	; 0x50
 800cc08:	d13b      	bne.n	800cc82 <__gethex+0x156>
 800cc0a:	7873      	ldrb	r3, [r6, #1]
 800cc0c:	2b2b      	cmp	r3, #43	; 0x2b
 800cc0e:	d02c      	beq.n	800cc6a <__gethex+0x13e>
 800cc10:	2b2d      	cmp	r3, #45	; 0x2d
 800cc12:	d02e      	beq.n	800cc72 <__gethex+0x146>
 800cc14:	1c71      	adds	r1, r6, #1
 800cc16:	f04f 0900 	mov.w	r9, #0
 800cc1a:	7808      	ldrb	r0, [r1, #0]
 800cc1c:	f7ff ff70 	bl	800cb00 <__hexdig_fun>
 800cc20:	1e43      	subs	r3, r0, #1
 800cc22:	b2db      	uxtb	r3, r3
 800cc24:	2b18      	cmp	r3, #24
 800cc26:	d82c      	bhi.n	800cc82 <__gethex+0x156>
 800cc28:	f1a0 0210 	sub.w	r2, r0, #16
 800cc2c:	f811 0f01 	ldrb.w	r0, [r1, #1]!
 800cc30:	f7ff ff66 	bl	800cb00 <__hexdig_fun>
 800cc34:	1e43      	subs	r3, r0, #1
 800cc36:	b2db      	uxtb	r3, r3
 800cc38:	2b18      	cmp	r3, #24
 800cc3a:	d91d      	bls.n	800cc78 <__gethex+0x14c>
 800cc3c:	f1b9 0f00 	cmp.w	r9, #0
 800cc40:	d000      	beq.n	800cc44 <__gethex+0x118>
 800cc42:	4252      	negs	r2, r2
 800cc44:	4415      	add	r5, r2
 800cc46:	f8cb 1000 	str.w	r1, [fp]
 800cc4a:	b1e4      	cbz	r4, 800cc86 <__gethex+0x15a>
 800cc4c:	9b00      	ldr	r3, [sp, #0]
 800cc4e:	2b00      	cmp	r3, #0
 800cc50:	bf14      	ite	ne
 800cc52:	2700      	movne	r7, #0
 800cc54:	2706      	moveq	r7, #6
 800cc56:	4638      	mov	r0, r7
 800cc58:	b009      	add	sp, #36	; 0x24
 800cc5a:	ecbd 8b02 	vpop	{d8}
 800cc5e:	e8bd 8ff0 	ldmia.w	sp!, {r4, r5, r6, r7, r8, r9, sl, fp, pc}
 800cc62:	463e      	mov	r6, r7
 800cc64:	4625      	mov	r5, r4
 800cc66:	2401      	movs	r4, #1
 800cc68:	e7ca      	b.n	800cc00 <__gethex+0xd4>
 800cc6a:	f04f 0900 	mov.w	r9, #0
 800cc6e:	1cb1      	adds	r1, r6, #2
 800cc70:	e7d3      	b.n	800cc1a <__gethex+0xee>
 800cc72:	f04f 0901 	mov.w	r9, #1
 800cc76:	e7fa      	b.n	800cc6e <__gethex+0x142>
 800cc78:	230a      	movs	r3, #10
 800cc7a:	fb03 0202 	mla	r2, r3, r2, r0
 800cc7e:	3a10      	subs	r2, #16
 800cc80:	e7d4      	b.n	800cc2c <__gethex+0x100>
 800cc82:	4631      	mov	r1, r6
 800cc84:	e7df      	b.n	800cc46 <__gethex+0x11a>
 800cc86:	1bf3      	subs	r3, r6, r7
 800cc88:	3b01      	subs	r3, #1
 800cc8a:	4621      	mov	r1, r4
 800cc8c:	2b07      	cmp	r3, #7
 800cc8e:	dc0b      	bgt.n	800cca8 <__gethex+0x17c>
 800cc90:	ee18 0a10 	vmov	r0, s16
 800cc94:	f000 fa8e 	bl	800d1b4 <_Balloc>
 800cc98:	4604      	mov	r4, r0
 800cc9a:	b940      	cbnz	r0, 800ccae <__gethex+0x182>
 800cc9c:	4b65      	ldr	r3, [pc, #404]	; (800ce34 <__gethex+0x308>)
 800cc9e:	4602      	mov	r2, r0
 800cca0:	21de      	movs	r1, #222	; 0xde
 800cca2:	4865      	ldr	r0, [pc, #404]	; (800ce38 <__gethex+0x30c>)
 800cca4:	f001 f938 	bl	800df18 <__assert_func>
 800cca8:	3101      	adds	r1, #1
 800ccaa:	105b      	asrs	r3, r3, #1
 800ccac:	e7ee      	b.n	800cc8c <__gethex+0x160>
 800ccae:	f100 0914 	add.w	r9, r0, #20
 800ccb2:	f04f 0b00 	mov.w	fp, #0
 800ccb6:	f1ca 0301 	rsb	r3, sl, #1
 800ccba:	f8cd 9008 	str.w	r9, [sp, #8]
 800ccbe:	f8cd b000 	str.w	fp, [sp]
 800ccc2:	9306      	str	r3, [sp, #24]
 800ccc4:	42b7      	cmp	r7, r6
 800ccc6:	d340      	bcc.n	800cd4a <__gethex+0x21e>
 800ccc8:	9802      	ldr	r0, [sp, #8]
 800ccca:	9b00      	ldr	r3, [sp, #0]
 800cccc:	f840 3b04 	str.w	r3, [r0], #4
 800ccd0:	eba0 0009 	sub.w	r0, r0, r9
 800ccd4:	1080      	asrs	r0, r0, #2
 800ccd6:	0146      	lsls	r6, r0, #5
 800ccd8:	6120      	str	r0, [r4, #16]
 800ccda:	4618      	mov	r0, r3
 800ccdc:	f000 fb60 	bl	800d3a0 <__hi0bits>
 800cce0:	1a30      	subs	r0, r6, r0
 800cce2:	f8d8 6000 	ldr.w	r6, [r8]
 800cce6:	42b0      	cmp	r0, r6
 800cce8:	dd63      	ble.n	800cdb2 <__gethex+0x286>
 800ccea:	1b87      	subs	r7, r0, r6
 800ccec:	4639      	mov	r1, r7
 800ccee:	4620      	mov	r0, r4
 800ccf0:	f000 fefa 	bl	800dae8 <__any_on>
 800ccf4:	4682      	mov	sl, r0
 800ccf6:	b1a8      	cbz	r0, 800cd24 <__gethex+0x1f8>
 800ccf8:	1e7b      	subs	r3, r7, #1
 800ccfa:	1159      	asrs	r1, r3, #5
 800ccfc:	f003 021f 	and.w	r2, r3, #31
 800cd00:	f859 1021 	ldr.w	r1, [r9, r1, lsl #2]
 800cd04:	f04f 0a01 	mov.w	sl, #1
 800cd08:	fa0a f202 	lsl.w	r2, sl, r2
 800cd0c:	420a      	tst	r2, r1
 800cd0e:	d009      	beq.n	800cd24 <__gethex+0x1f8>
 800cd10:	4553      	cmp	r3, sl
 800cd12:	dd05      	ble.n	800cd20 <__gethex+0x1f4>
 800cd14:	1eb9      	subs	r1, r7, #2
 800cd16:	4620      	mov	r0, r4
 800cd18:	f000 fee6 	bl	800dae8 <__any_on>
 800cd1c:	2800      	cmp	r0, #0
 800cd1e:	d145      	bne.n	800cdac <__gethex+0x280>
 800cd20:	f04f 0a02 	mov.w	sl, #2
 800cd24:	4639      	mov	r1, r7
 800cd26:	4620      	mov	r0, r4
 800cd28:	f7ff fe98 	bl	800ca5c <rshift>
 800cd2c:	443d      	add	r5, r7
 800cd2e:	f8d8 3008 	ldr.w	r3, [r8, #8]
 800cd32:	42ab      	cmp	r3, r5
 800cd34:	da4c      	bge.n	800cdd0 <__gethex+0x2a4>
 800cd36:	ee18 0a10 	vmov	r0, s16
 800cd3a:	4621      	mov	r1, r4
 800cd3c:	f000 fa7a 	bl	800d234 <_Bfree>
 800cd40:	9a14      	ldr	r2, [sp, #80]	; 0x50
 800cd42:	2300      	movs	r3, #0
 800cd44:	6013      	str	r3, [r2, #0]
 800cd46:	27a3      	movs	r7, #163	; 0xa3
 800cd48:	e785      	b.n	800cc56 <__gethex+0x12a>
 800cd4a:	1e73      	subs	r3, r6, #1
 800cd4c:	9a05      	ldr	r2, [sp, #20]
 800cd4e:	9303      	str	r3, [sp, #12]
 800cd50:	f816 3c01 	ldrb.w	r3, [r6, #-1]
 800cd54:	4293      	cmp	r3, r2
 800cd56:	d019      	beq.n	800cd8c <__gethex+0x260>
 800cd58:	f1bb 0f20 	cmp.w	fp, #32
 800cd5c:	d107      	bne.n	800cd6e <__gethex+0x242>
 800cd5e:	9b02      	ldr	r3, [sp, #8]
 800cd60:	9a00      	ldr	r2, [sp, #0]
 800cd62:	f843 2b04 	str.w	r2, [r3], #4
 800cd66:	9302      	str	r3, [sp, #8]
 800cd68:	2300      	movs	r3, #0
 800cd6a:	9300      	str	r3, [sp, #0]
 800cd6c:	469b      	mov	fp, r3
 800cd6e:	f816 0c01 	ldrb.w	r0, [r6, #-1]
 800cd72:	f7ff fec5 	bl	800cb00 <__hexdig_fun>
 800cd76:	9b00      	ldr	r3, [sp, #0]
 800cd78:	f000 000f 	and.w	r0, r0, #15
 800cd7c:	fa00 f00b 	lsl.w	r0, r0, fp
 800cd80:	4303      	orrs	r3, r0
 800cd82:	9300      	str	r3, [sp, #0]
 800cd84:	f10b 0b04 	add.w	fp, fp, #4
 800cd88:	9b03      	ldr	r3, [sp, #12]
 800cd8a:	e00d      	b.n	800cda8 <__gethex+0x27c>
 800cd8c:	9b03      	ldr	r3, [sp, #12]
 800cd8e:	9a06      	ldr	r2, [sp, #24]
 800cd90:	4413      	add	r3, r2
 800cd92:	42bb      	cmp	r3, r7
 800cd94:	d3e0      	bcc.n	800cd58 <__gethex+0x22c>
 800cd96:	4618      	mov	r0, r3
 800cd98:	9901      	ldr	r1, [sp, #4]
 800cd9a:	9307      	str	r3, [sp, #28]
 800cd9c:	4652      	mov	r2, sl
 800cd9e:	f001 f89b 	bl	800ded8 <strncmp>
 800cda2:	9b07      	ldr	r3, [sp, #28]
 800cda4:	2800      	cmp	r0, #0
 800cda6:	d1d7      	bne.n	800cd58 <__gethex+0x22c>
 800cda8:	461e      	mov	r6, r3
 800cdaa:	e78b      	b.n	800ccc4 <__gethex+0x198>
 800cdac:	f04f 0a03 	mov.w	sl, #3
 800cdb0:	e7b8      	b.n	800cd24 <__gethex+0x1f8>
 800cdb2:	da0a      	bge.n	800cdca <__gethex+0x29e>
 800cdb4:	1a37      	subs	r7, r6, r0
 800cdb6:	4621      	mov	r1, r4
 800cdb8:	ee18 0a10 	vmov	r0, s16
 800cdbc:	463a      	mov	r2, r7
 800cdbe:	f000 fc55 	bl	800d66c <__lshift>
 800cdc2:	1bed      	subs	r5, r5, r7
 800cdc4:	4604      	mov	r4, r0
 800cdc6:	f100 0914 	add.w	r9, r0, #20
 800cdca:	f04f 0a00 	mov.w	sl, #0
 800cdce:	e7ae      	b.n	800cd2e <__gethex+0x202>
 800cdd0:	f8d8 0004 	ldr.w	r0, [r8, #4]
 800cdd4:	42a8      	cmp	r0, r5
 800cdd6:	dd72      	ble.n	800cebe <__gethex+0x392>
 800cdd8:	1b45      	subs	r5, r0, r5
 800cdda:	42ae      	cmp	r6, r5
 800cddc:	dc36      	bgt.n	800ce4c <__gethex+0x320>
 800cdde:	f8d8 300c 	ldr.w	r3, [r8, #12]
 800cde2:	2b02      	cmp	r3, #2
 800cde4:	d02a      	beq.n	800ce3c <__gethex+0x310>
 800cde6:	2b03      	cmp	r3, #3
 800cde8:	d02c      	beq.n	800ce44 <__gethex+0x318>
 800cdea:	2b01      	cmp	r3, #1
 800cdec:	d115      	bne.n	800ce1a <__gethex+0x2ee>
 800cdee:	42ae      	cmp	r6, r5
 800cdf0:	d113      	bne.n	800ce1a <__gethex+0x2ee>
 800cdf2:	2e01      	cmp	r6, #1
 800cdf4:	d10b      	bne.n	800ce0e <__gethex+0x2e2>
 800cdf6:	9a04      	ldr	r2, [sp, #16]
 800cdf8:	f8d8 3004 	ldr.w	r3, [r8, #4]
 800cdfc:	6013      	str	r3, [r2, #0]
 800cdfe:	2301      	movs	r3, #1
 800ce00:	6123      	str	r3, [r4, #16]
 800ce02:	f8c9 3000 	str.w	r3, [r9]
 800ce06:	9b14      	ldr	r3, [sp, #80]	; 0x50
 800ce08:	2762      	movs	r7, #98	; 0x62
 800ce0a:	601c      	str	r4, [r3, #0]
 800ce0c:	e723      	b.n	800cc56 <__gethex+0x12a>
 800ce0e:	1e71      	subs	r1, r6, #1
 800ce10:	4620      	mov	r0, r4
 800ce12:	f000 fe69 	bl	800dae8 <__any_on>
 800ce16:	2800      	cmp	r0, #0
 800ce18:	d1ed      	bne.n	800cdf6 <__gethex+0x2ca>
 800ce1a:	ee18 0a10 	vmov	r0, s16
 800ce1e:	4621      	mov	r1, r4
 800ce20:	f000 fa08 	bl	800d234 <_Bfree>
 800ce24:	9a14      	ldr	r2, [sp, #80]	; 0x50
 800ce26:	2300      	movs	r3, #0
 800ce28:	6013      	str	r3, [r2, #0]
 800ce2a:	2750      	movs	r7, #80	; 0x50
 800ce2c:	e713      	b.n	800cc56 <__gethex+0x12a>
 800ce2e:	bf00      	nop
 800ce30:	08010120 	.word	0x08010120
 800ce34:	080100a4 	.word	0x080100a4
 800ce38:	080100b5 	.word	0x080100b5
 800ce3c:	9b15      	ldr	r3, [sp, #84]	; 0x54
 800ce3e:	2b00      	cmp	r3, #0
 800ce40:	d1eb      	bne.n	800ce1a <__gethex+0x2ee>
 800ce42:	e7d8      	b.n	800cdf6 <__gethex+0x2ca>
 800ce44:	9b15      	ldr	r3, [sp, #84]	; 0x54
 800ce46:	2b00      	cmp	r3, #0
 800ce48:	d1d5      	bne.n	800cdf6 <__gethex+0x2ca>
 800ce4a:	e7e6      	b.n	800ce1a <__gethex+0x2ee>
 800ce4c:	1e6f      	subs	r7, r5, #1
 800ce4e:	f1ba 0f00 	cmp.w	sl, #0
 800ce52:	d131      	bne.n	800ceb8 <__gethex+0x38c>
 800ce54:	b127      	cbz	r7, 800ce60 <__gethex+0x334>
 800ce56:	4639      	mov	r1, r7
 800ce58:	4620      	mov	r0, r4
 800ce5a:	f000 fe45 	bl	800dae8 <__any_on>
 800ce5e:	4682      	mov	sl, r0
 800ce60:	117b      	asrs	r3, r7, #5
 800ce62:	2101      	movs	r1, #1
 800ce64:	f859 3023 	ldr.w	r3, [r9, r3, lsl #2]
 800ce68:	f007 071f 	and.w	r7, r7, #31
 800ce6c:	fa01 f707 	lsl.w	r7, r1, r7
 800ce70:	421f      	tst	r7, r3
 800ce72:	4629      	mov	r1, r5
 800ce74:	4620      	mov	r0, r4
 800ce76:	bf18      	it	ne
 800ce78:	f04a 0a02 	orrne.w	sl, sl, #2
 800ce7c:	1b76      	subs	r6, r6, r5
 800ce7e:	f7ff fded 	bl	800ca5c <rshift>
 800ce82:	f8d8 5004 	ldr.w	r5, [r8, #4]
 800ce86:	2702      	movs	r7, #2
 800ce88:	f1ba 0f00 	cmp.w	sl, #0
 800ce8c:	d048      	beq.n	800cf20 <__gethex+0x3f4>
 800ce8e:	f8d8 300c 	ldr.w	r3, [r8, #12]
 800ce92:	2b02      	cmp	r3, #2
 800ce94:	d015      	beq.n	800cec2 <__gethex+0x396>
 800ce96:	2b03      	cmp	r3, #3
 800ce98:	d017      	beq.n	800ceca <__gethex+0x39e>
 800ce9a:	2b01      	cmp	r3, #1
 800ce9c:	d109      	bne.n	800ceb2 <__gethex+0x386>
 800ce9e:	f01a 0f02 	tst.w	sl, #2
 800cea2:	d006      	beq.n	800ceb2 <__gethex+0x386>
 800cea4:	f8d9 0000 	ldr.w	r0, [r9]
 800cea8:	ea4a 0a00 	orr.w	sl, sl, r0
 800ceac:	f01a 0f01 	tst.w	sl, #1
 800ceb0:	d10e      	bne.n	800ced0 <__gethex+0x3a4>
 800ceb2:	f047 0710 	orr.w	r7, r7, #16
 800ceb6:	e033      	b.n	800cf20 <__gethex+0x3f4>
 800ceb8:	f04f 0a01 	mov.w	sl, #1
 800cebc:	e7d0      	b.n	800ce60 <__gethex+0x334>
 800cebe:	2701      	movs	r7, #1
 800cec0:	e7e2      	b.n	800ce88 <__gethex+0x35c>
 800cec2:	9b15      	ldr	r3, [sp, #84]	; 0x54
 800cec4:	f1c3 0301 	rsb	r3, r3, #1
 800cec8:	9315      	str	r3, [sp, #84]	; 0x54
 800ceca:	9b15      	ldr	r3, [sp, #84]	; 0x54
 800cecc:	2b00      	cmp	r3, #0
 800cece:	d0f0      	beq.n	800ceb2 <__gethex+0x386>
 800ced0:	f8d4 b010 	ldr.w	fp, [r4, #16]
 800ced4:	f104 0314 	add.w	r3, r4, #20
 800ced8:	ea4f 0a8b 	mov.w	sl, fp, lsl #2
 800cedc:	eb03 018b 	add.w	r1, r3, fp, lsl #2
 800cee0:	f04f 0c00 	mov.w	ip, #0
 800cee4:	4618      	mov	r0, r3
 800cee6:	f853 2b04 	ldr.w	r2, [r3], #4
 800ceea:	f1b2 3fff 	cmp.w	r2, #4294967295
 800ceee:	d01c      	beq.n	800cf2a <__gethex+0x3fe>
 800cef0:	3201      	adds	r2, #1
 800cef2:	6002      	str	r2, [r0, #0]
 800cef4:	2f02      	cmp	r7, #2
 800cef6:	f104 0314 	add.w	r3, r4, #20
 800cefa:	d13f      	bne.n	800cf7c <__gethex+0x450>
 800cefc:	f8d8 2000 	ldr.w	r2, [r8]
 800cf00:	3a01      	subs	r2, #1
 800cf02:	42b2      	cmp	r2, r6
 800cf04:	d10a      	bne.n	800cf1c <__gethex+0x3f0>
 800cf06:	1171      	asrs	r1, r6, #5
 800cf08:	2201      	movs	r2, #1
 800cf0a:	f853 3021 	ldr.w	r3, [r3, r1, lsl #2]
 800cf0e:	f006 061f 	and.w	r6, r6, #31
 800cf12:	fa02 f606 	lsl.w	r6, r2, r6
 800cf16:	421e      	tst	r6, r3
 800cf18:	bf18      	it	ne
 800cf1a:	4617      	movne	r7, r2
 800cf1c:	f047 0720 	orr.w	r7, r7, #32
 800cf20:	9b14      	ldr	r3, [sp, #80]	; 0x50
 800cf22:	601c      	str	r4, [r3, #0]
 800cf24:	9b04      	ldr	r3, [sp, #16]
 800cf26:	601d      	str	r5, [r3, #0]
 800cf28:	e695      	b.n	800cc56 <__gethex+0x12a>
 800cf2a:	4299      	cmp	r1, r3
 800cf2c:	f843 cc04 	str.w	ip, [r3, #-4]
 800cf30:	d8d8      	bhi.n	800cee4 <__gethex+0x3b8>
 800cf32:	68a3      	ldr	r3, [r4, #8]
 800cf34:	459b      	cmp	fp, r3
 800cf36:	db19      	blt.n	800cf6c <__gethex+0x440>
 800cf38:	6861      	ldr	r1, [r4, #4]
 800cf3a:	ee18 0a10 	vmov	r0, s16
 800cf3e:	3101      	adds	r1, #1
 800cf40:	f000 f938 	bl	800d1b4 <_Balloc>
 800cf44:	4681      	mov	r9, r0
 800cf46:	b918      	cbnz	r0, 800cf50 <__gethex+0x424>
 800cf48:	4b1a      	ldr	r3, [pc, #104]	; (800cfb4 <__gethex+0x488>)
 800cf4a:	4602      	mov	r2, r0
 800cf4c:	2184      	movs	r1, #132	; 0x84
 800cf4e:	e6a8      	b.n	800cca2 <__gethex+0x176>
 800cf50:	6922      	ldr	r2, [r4, #16]
 800cf52:	3202      	adds	r2, #2
 800cf54:	f104 010c 	add.w	r1, r4, #12
 800cf58:	0092      	lsls	r2, r2, #2
 800cf5a:	300c      	adds	r0, #12
 800cf5c:	f7fc ff9f 	bl	8009e9e <memcpy>
 800cf60:	4621      	mov	r1, r4
 800cf62:	ee18 0a10 	vmov	r0, s16
 800cf66:	f000 f965 	bl	800d234 <_Bfree>
 800cf6a:	464c      	mov	r4, r9
 800cf6c:	6923      	ldr	r3, [r4, #16]
 800cf6e:	1c5a      	adds	r2, r3, #1
 800cf70:	eb04 0383 	add.w	r3, r4, r3, lsl #2
 800cf74:	6122      	str	r2, [r4, #16]
 800cf76:	2201      	movs	r2, #1
 800cf78:	615a      	str	r2, [r3, #20]
 800cf7a:	e7bb      	b.n	800cef4 <__gethex+0x3c8>
 800cf7c:	6922      	ldr	r2, [r4, #16]
 800cf7e:	455a      	cmp	r2, fp
 800cf80:	dd0b      	ble.n	800cf9a <__gethex+0x46e>
 800cf82:	2101      	movs	r1, #1
 800cf84:	4620      	mov	r0, r4
 800cf86:	f7ff fd69 	bl	800ca5c <rshift>
 800cf8a:	f8d8 3008 	ldr.w	r3, [r8, #8]
 800cf8e:	3501      	adds	r5, #1
 800cf90:	42ab      	cmp	r3, r5
 800cf92:	f6ff aed0 	blt.w	800cd36 <__gethex+0x20a>
 800cf96:	2701      	movs	r7, #1
 800cf98:	e7c0      	b.n	800cf1c <__gethex+0x3f0>
 800cf9a:	f016 061f 	ands.w	r6, r6, #31
 800cf9e:	d0fa      	beq.n	800cf96 <__gethex+0x46a>
 800cfa0:	449a      	add	sl, r3
 800cfa2:	f1c6 0620 	rsb	r6, r6, #32
 800cfa6:	f85a 0c04 	ldr.w	r0, [sl, #-4]
 800cfaa:	f000 f9f9 	bl	800d3a0 <__hi0bits>
 800cfae:	42b0      	cmp	r0, r6
 800cfb0:	dbe7      	blt.n	800cf82 <__gethex+0x456>
 800cfb2:	e7f0      	b.n	800cf96 <__gethex+0x46a>
 800cfb4:	080100a4 	.word	0x080100a4

0800cfb8 <L_shift>:
 800cfb8:	f1c2 0208 	rsb	r2, r2, #8
 800cfbc:	0092      	lsls	r2, r2, #2
 800cfbe:	b570      	push	{r4, r5, r6, lr}
 800cfc0:	f1c2 0620 	rsb	r6, r2, #32
 800cfc4:	6843      	ldr	r3, [r0, #4]
 800cfc6:	6804      	ldr	r4, [r0, #0]
 800cfc8:	fa03 f506 	lsl.w	r5, r3, r6
 800cfcc:	432c      	orrs	r4, r5
 800cfce:	40d3      	lsrs	r3, r2
 800cfd0:	6004      	str	r4, [r0, #0]
 800cfd2:	f840 3f04 	str.w	r3, [r0, #4]!
 800cfd6:	4288      	cmp	r0, r1
 800cfd8:	d3f4      	bcc.n	800cfc4 <L_shift+0xc>
 800cfda:	bd70      	pop	{r4, r5, r6, pc}

0800cfdc <__match>:
 800cfdc:	b530      	push	{r4, r5, lr}
 800cfde:	6803      	ldr	r3, [r0, #0]
 800cfe0:	3301      	adds	r3, #1
 800cfe2:	f811 4b01 	ldrb.w	r4, [r1], #1
 800cfe6:	b914      	cbnz	r4, 800cfee <__match+0x12>
 800cfe8:	6003      	str	r3, [r0, #0]
 800cfea:	2001      	movs	r0, #1
 800cfec:	bd30      	pop	{r4, r5, pc}
 800cfee:	f813 2b01 	ldrb.w	r2, [r3], #1
 800cff2:	f1a2 0541 	sub.w	r5, r2, #65	; 0x41
 800cff6:	2d19      	cmp	r5, #25
 800cff8:	bf98      	it	ls
 800cffa:	3220      	addls	r2, #32
 800cffc:	42a2      	cmp	r2, r4
 800cffe:	d0f0      	beq.n	800cfe2 <__match+0x6>
 800d000:	2000      	movs	r0, #0
 800d002:	e7f3      	b.n	800cfec <__match+0x10>

0800d004 <__hexnan>:
 800d004:	e92d 4ff0 	stmdb	sp!, {r4, r5, r6, r7, r8, r9, sl, fp, lr}
 800d008:	680b      	ldr	r3, [r1, #0]
 800d00a:	6801      	ldr	r1, [r0, #0]
 800d00c:	115e      	asrs	r6, r3, #5
 800d00e:	eb02 0686 	add.w	r6, r2, r6, lsl #2
 800d012:	f013 031f 	ands.w	r3, r3, #31
 800d016:	b087      	sub	sp, #28
 800d018:	bf18      	it	ne
 800d01a:	3604      	addne	r6, #4
 800d01c:	2500      	movs	r5, #0
 800d01e:	1f37      	subs	r7, r6, #4
 800d020:	4682      	mov	sl, r0
 800d022:	4690      	mov	r8, r2
 800d024:	9301      	str	r3, [sp, #4]
 800d026:	f846 5c04 	str.w	r5, [r6, #-4]
 800d02a:	46b9      	mov	r9, r7
 800d02c:	463c      	mov	r4, r7
 800d02e:	9502      	str	r5, [sp, #8]
 800d030:	46ab      	mov	fp, r5
 800d032:	784a      	ldrb	r2, [r1, #1]
 800d034:	1c4b      	adds	r3, r1, #1
 800d036:	9303      	str	r3, [sp, #12]
 800d038:	b342      	cbz	r2, 800d08c <__hexnan+0x88>
 800d03a:	4610      	mov	r0, r2
 800d03c:	9105      	str	r1, [sp, #20]
 800d03e:	9204      	str	r2, [sp, #16]
 800d040:	f7ff fd5e 	bl	800cb00 <__hexdig_fun>
 800d044:	2800      	cmp	r0, #0
 800d046:	d14f      	bne.n	800d0e8 <__hexnan+0xe4>
 800d048:	9a04      	ldr	r2, [sp, #16]
 800d04a:	9905      	ldr	r1, [sp, #20]
 800d04c:	2a20      	cmp	r2, #32
 800d04e:	d818      	bhi.n	800d082 <__hexnan+0x7e>
 800d050:	9b02      	ldr	r3, [sp, #8]
 800d052:	459b      	cmp	fp, r3
 800d054:	dd13      	ble.n	800d07e <__hexnan+0x7a>
 800d056:	454c      	cmp	r4, r9
 800d058:	d206      	bcs.n	800d068 <__hexnan+0x64>
 800d05a:	2d07      	cmp	r5, #7
 800d05c:	dc04      	bgt.n	800d068 <__hexnan+0x64>
 800d05e:	462a      	mov	r2, r5
 800d060:	4649      	mov	r1, r9
 800d062:	4620      	mov	r0, r4
 800d064:	f7ff ffa8 	bl	800cfb8 <L_shift>
 800d068:	4544      	cmp	r4, r8
 800d06a:	d950      	bls.n	800d10e <__hexnan+0x10a>
 800d06c:	2300      	movs	r3, #0
 800d06e:	f1a4 0904 	sub.w	r9, r4, #4
 800d072:	f844 3c04 	str.w	r3, [r4, #-4]
 800d076:	f8cd b008 	str.w	fp, [sp, #8]
 800d07a:	464c      	mov	r4, r9
 800d07c:	461d      	mov	r5, r3
 800d07e:	9903      	ldr	r1, [sp, #12]
 800d080:	e7d7      	b.n	800d032 <__hexnan+0x2e>
 800d082:	2a29      	cmp	r2, #41	; 0x29
 800d084:	d156      	bne.n	800d134 <__hexnan+0x130>
 800d086:	3102      	adds	r1, #2
 800d088:	f8ca 1000 	str.w	r1, [sl]
 800d08c:	f1bb 0f00 	cmp.w	fp, #0
 800d090:	d050      	beq.n	800d134 <__hexnan+0x130>
 800d092:	454c      	cmp	r4, r9
 800d094:	d206      	bcs.n	800d0a4 <__hexnan+0xa0>
 800d096:	2d07      	cmp	r5, #7
 800d098:	dc04      	bgt.n	800d0a4 <__hexnan+0xa0>
 800d09a:	462a      	mov	r2, r5
 800d09c:	4649      	mov	r1, r9
 800d09e:	4620      	mov	r0, r4
 800d0a0:	f7ff ff8a 	bl	800cfb8 <L_shift>
 800d0a4:	4544      	cmp	r4, r8
 800d0a6:	d934      	bls.n	800d112 <__hexnan+0x10e>
 800d0a8:	f1a8 0204 	sub.w	r2, r8, #4
 800d0ac:	4623      	mov	r3, r4
 800d0ae:	f853 1b04 	ldr.w	r1, [r3], #4
 800d0b2:	f842 1f04 	str.w	r1, [r2, #4]!
 800d0b6:	429f      	cmp	r7, r3
 800d0b8:	d2f9      	bcs.n	800d0ae <__hexnan+0xaa>
 800d0ba:	1b3b      	subs	r3, r7, r4
 800d0bc:	f023 0303 	bic.w	r3, r3, #3
 800d0c0:	3304      	adds	r3, #4
 800d0c2:	3401      	adds	r4, #1
 800d0c4:	3e03      	subs	r6, #3
 800d0c6:	42b4      	cmp	r4, r6
 800d0c8:	bf88      	it	hi
 800d0ca:	2304      	movhi	r3, #4
 800d0cc:	4443      	add	r3, r8
 800d0ce:	2200      	movs	r2, #0
 800d0d0:	f843 2b04 	str.w	r2, [r3], #4
 800d0d4:	429f      	cmp	r7, r3
 800d0d6:	d2fb      	bcs.n	800d0d0 <__hexnan+0xcc>
 800d0d8:	683b      	ldr	r3, [r7, #0]
 800d0da:	b91b      	cbnz	r3, 800d0e4 <__hexnan+0xe0>
 800d0dc:	4547      	cmp	r7, r8
 800d0de:	d127      	bne.n	800d130 <__hexnan+0x12c>
 800d0e0:	2301      	movs	r3, #1
 800d0e2:	603b      	str	r3, [r7, #0]
 800d0e4:	2005      	movs	r0, #5
 800d0e6:	e026      	b.n	800d136 <__hexnan+0x132>
 800d0e8:	3501      	adds	r5, #1
 800d0ea:	2d08      	cmp	r5, #8
 800d0ec:	f10b 0b01 	add.w	fp, fp, #1
 800d0f0:	dd06      	ble.n	800d100 <__hexnan+0xfc>
 800d0f2:	4544      	cmp	r4, r8
 800d0f4:	d9c3      	bls.n	800d07e <__hexnan+0x7a>
 800d0f6:	2300      	movs	r3, #0
 800d0f8:	f844 3c04 	str.w	r3, [r4, #-4]
 800d0fc:	2501      	movs	r5, #1
 800d0fe:	3c04      	subs	r4, #4
 800d100:	6822      	ldr	r2, [r4, #0]
 800d102:	f000 000f 	and.w	r0, r0, #15
 800d106:	ea40 1202 	orr.w	r2, r0, r2, lsl #4
 800d10a:	6022      	str	r2, [r4, #0]
 800d10c:	e7b7      	b.n	800d07e <__hexnan+0x7a>
 800d10e:	2508      	movs	r5, #8
 800d110:	e7b5      	b.n	800d07e <__hexnan+0x7a>
 800d112:	9b01      	ldr	r3, [sp, #4]
 800d114:	2b00      	cmp	r3, #0
 800d116:	d0df      	beq.n	800d0d8 <__hexnan+0xd4>
 800d118:	f04f 32ff 	mov.w	r2, #4294967295
 800d11c:	f1c3 0320 	rsb	r3, r3, #32
 800d120:	fa22 f303 	lsr.w	r3, r2, r3
 800d124:	f856 2c04 	ldr.w	r2, [r6, #-4]
 800d128:	401a      	ands	r2, r3
 800d12a:	f846 2c04 	str.w	r2, [r6, #-4]
 800d12e:	e7d3      	b.n	800d0d8 <__hexnan+0xd4>
 800d130:	3f04      	subs	r7, #4
 800d132:	e7d1      	b.n	800d0d8 <__hexnan+0xd4>
 800d134:	2004      	movs	r0, #4
 800d136:	b007      	add	sp, #28
 800d138:	e8bd 8ff0 	ldmia.w	sp!, {r4, r5, r6, r7, r8, r9, sl, fp, pc}

0800d13c <_localeconv_r>:
 800d13c:	4800      	ldr	r0, [pc, #0]	; (800d140 <_localeconv_r+0x4>)
 800d13e:	4770      	bx	lr
 800d140:	20000198 	.word	0x20000198

0800d144 <_lseek_r>:
 800d144:	b538      	push	{r3, r4, r5, lr}
 800d146:	4d07      	ldr	r5, [pc, #28]	; (800d164 <_lseek_r+0x20>)
 800d148:	4604      	mov	r4, r0
 800d14a:	4608      	mov	r0, r1
 800d14c:	4611      	mov	r1, r2
 800d14e:	2200      	movs	r2, #0
 800d150:	602a      	str	r2, [r5, #0]
 800d152:	461a      	mov	r2, r3
 800d154:	f7f6 fd50 	bl	8003bf8 <_lseek>
 800d158:	1c43      	adds	r3, r0, #1
 800d15a:	d102      	bne.n	800d162 <_lseek_r+0x1e>
 800d15c:	682b      	ldr	r3, [r5, #0]
 800d15e:	b103      	cbz	r3, 800d162 <_lseek_r+0x1e>
 800d160:	6023      	str	r3, [r4, #0]
 800d162:	bd38      	pop	{r3, r4, r5, pc}
 800d164:	20006354 	.word	0x20006354

0800d168 <malloc>:
 800d168:	4b02      	ldr	r3, [pc, #8]	; (800d174 <malloc+0xc>)
 800d16a:	4601      	mov	r1, r0
 800d16c:	6818      	ldr	r0, [r3, #0]
 800d16e:	f7fc bead 	b.w	8009ecc <_malloc_r>
 800d172:	bf00      	nop
 800d174:	20000040 	.word	0x20000040

0800d178 <__ascii_mbtowc>:
 800d178:	b082      	sub	sp, #8
 800d17a:	b901      	cbnz	r1, 800d17e <__ascii_mbtowc+0x6>
 800d17c:	a901      	add	r1, sp, #4
 800d17e:	b142      	cbz	r2, 800d192 <__ascii_mbtowc+0x1a>
 800d180:	b14b      	cbz	r3, 800d196 <__ascii_mbtowc+0x1e>
 800d182:	7813      	ldrb	r3, [r2, #0]
 800d184:	600b      	str	r3, [r1, #0]
 800d186:	7812      	ldrb	r2, [r2, #0]
 800d188:	1e10      	subs	r0, r2, #0
 800d18a:	bf18      	it	ne
 800d18c:	2001      	movne	r0, #1
 800d18e:	b002      	add	sp, #8
 800d190:	4770      	bx	lr
 800d192:	4610      	mov	r0, r2
 800d194:	e7fb      	b.n	800d18e <__ascii_mbtowc+0x16>
 800d196:	f06f 0001 	mvn.w	r0, #1
 800d19a:	e7f8      	b.n	800d18e <__ascii_mbtowc+0x16>

0800d19c <__malloc_lock>:
 800d19c:	4801      	ldr	r0, [pc, #4]	; (800d1a4 <__malloc_lock+0x8>)
 800d19e:	f7fc be7c 	b.w	8009e9a <__retarget_lock_acquire_recursive>
 800d1a2:	bf00      	nop
 800d1a4:	2000634c 	.word	0x2000634c

0800d1a8 <__malloc_unlock>:
 800d1a8:	4801      	ldr	r0, [pc, #4]	; (800d1b0 <__malloc_unlock+0x8>)
 800d1aa:	f7fc be77 	b.w	8009e9c <__retarget_lock_release_recursive>
 800d1ae:	bf00      	nop
 800d1b0:	2000634c 	.word	0x2000634c

0800d1b4 <_Balloc>:
 800d1b4:	b570      	push	{r4, r5, r6, lr}
 800d1b6:	6a46      	ldr	r6, [r0, #36]	; 0x24
 800d1b8:	4604      	mov	r4, r0
 800d1ba:	460d      	mov	r5, r1
 800d1bc:	b976      	cbnz	r6, 800d1dc <_Balloc+0x28>
 800d1be:	2010      	movs	r0, #16
 800d1c0:	f7ff ffd2 	bl	800d168 <malloc>
 800d1c4:	4602      	mov	r2, r0
 800d1c6:	6260      	str	r0, [r4, #36]	; 0x24
 800d1c8:	b920      	cbnz	r0, 800d1d4 <_Balloc+0x20>
 800d1ca:	4b18      	ldr	r3, [pc, #96]	; (800d22c <_Balloc+0x78>)
 800d1cc:	4818      	ldr	r0, [pc, #96]	; (800d230 <_Balloc+0x7c>)
 800d1ce:	2166      	movs	r1, #102	; 0x66
 800d1d0:	f000 fea2 	bl	800df18 <__assert_func>
 800d1d4:	e9c0 6601 	strd	r6, r6, [r0, #4]
 800d1d8:	6006      	str	r6, [r0, #0]
 800d1da:	60c6      	str	r6, [r0, #12]
 800d1dc:	6a66      	ldr	r6, [r4, #36]	; 0x24
 800d1de:	68f3      	ldr	r3, [r6, #12]
 800d1e0:	b183      	cbz	r3, 800d204 <_Balloc+0x50>
 800d1e2:	6a63      	ldr	r3, [r4, #36]	; 0x24
 800d1e4:	68db      	ldr	r3, [r3, #12]
 800d1e6:	f853 0025 	ldr.w	r0, [r3, r5, lsl #2]
 800d1ea:	b9b8      	cbnz	r0, 800d21c <_Balloc+0x68>
 800d1ec:	2101      	movs	r1, #1
 800d1ee:	fa01 f605 	lsl.w	r6, r1, r5
 800d1f2:	1d72      	adds	r2, r6, #5
 800d1f4:	0092      	lsls	r2, r2, #2
 800d1f6:	4620      	mov	r0, r4
 800d1f8:	f000 fc97 	bl	800db2a <_calloc_r>
 800d1fc:	b160      	cbz	r0, 800d218 <_Balloc+0x64>
 800d1fe:	e9c0 5601 	strd	r5, r6, [r0, #4]
 800d202:	e00e      	b.n	800d222 <_Balloc+0x6e>
 800d204:	2221      	movs	r2, #33	; 0x21
 800d206:	2104      	movs	r1, #4
 800d208:	4620      	mov	r0, r4
 800d20a:	f000 fc8e 	bl	800db2a <_calloc_r>
 800d20e:	6a63      	ldr	r3, [r4, #36]	; 0x24
 800d210:	60f0      	str	r0, [r6, #12]
 800d212:	68db      	ldr	r3, [r3, #12]
 800d214:	2b00      	cmp	r3, #0
 800d216:	d1e4      	bne.n	800d1e2 <_Balloc+0x2e>
 800d218:	2000      	movs	r0, #0
 800d21a:	bd70      	pop	{r4, r5, r6, pc}
 800d21c:	6802      	ldr	r2, [r0, #0]
 800d21e:	f843 2025 	str.w	r2, [r3, r5, lsl #2]
 800d222:	2300      	movs	r3, #0
 800d224:	e9c0 3303 	strd	r3, r3, [r0, #12]
 800d228:	e7f7      	b.n	800d21a <_Balloc+0x66>
 800d22a:	bf00      	nop
 800d22c:	0801002e 	.word	0x0801002e
 800d230:	08010134 	.word	0x08010134

0800d234 <_Bfree>:
 800d234:	b570      	push	{r4, r5, r6, lr}
 800d236:	6a46      	ldr	r6, [r0, #36]	; 0x24
 800d238:	4605      	mov	r5, r0
 800d23a:	460c      	mov	r4, r1
 800d23c:	b976      	cbnz	r6, 800d25c <_Bfree+0x28>
 800d23e:	2010      	movs	r0, #16
 800d240:	f7ff ff92 	bl	800d168 <malloc>
 800d244:	4602      	mov	r2, r0
 800d246:	6268      	str	r0, [r5, #36]	; 0x24
 800d248:	b920      	cbnz	r0, 800d254 <_Bfree+0x20>
 800d24a:	4b09      	ldr	r3, [pc, #36]	; (800d270 <_Bfree+0x3c>)
 800d24c:	4809      	ldr	r0, [pc, #36]	; (800d274 <_Bfree+0x40>)
 800d24e:	218a      	movs	r1, #138	; 0x8a
 800d250:	f000 fe62 	bl	800df18 <__assert_func>
 800d254:	e9c0 6601 	strd	r6, r6, [r0, #4]
 800d258:	6006      	str	r6, [r0, #0]
 800d25a:	60c6      	str	r6, [r0, #12]
 800d25c:	b13c      	cbz	r4, 800d26e <_Bfree+0x3a>
 800d25e:	6a6b      	ldr	r3, [r5, #36]	; 0x24
 800d260:	6862      	ldr	r2, [r4, #4]
 800d262:	68db      	ldr	r3, [r3, #12]
 800d264:	f853 1022 	ldr.w	r1, [r3, r2, lsl #2]
 800d268:	6021      	str	r1, [r4, #0]
 800d26a:	f843 4022 	str.w	r4, [r3, r2, lsl #2]
 800d26e:	bd70      	pop	{r4, r5, r6, pc}
 800d270:	0801002e 	.word	0x0801002e
 800d274:	08010134 	.word	0x08010134

0800d278 <__multadd>:
 800d278:	e92d 41f0 	stmdb	sp!, {r4, r5, r6, r7, r8, lr}
 800d27c:	690e      	ldr	r6, [r1, #16]
 800d27e:	4607      	mov	r7, r0
 800d280:	4698      	mov	r8, r3
 800d282:	460c      	mov	r4, r1
 800d284:	f101 0014 	add.w	r0, r1, #20
 800d288:	2300      	movs	r3, #0
 800d28a:	6805      	ldr	r5, [r0, #0]
 800d28c:	b2a9      	uxth	r1, r5
 800d28e:	fb02 8101 	mla	r1, r2, r1, r8
 800d292:	ea4f 4c11 	mov.w	ip, r1, lsr #16
 800d296:	0c2d      	lsrs	r5, r5, #16
 800d298:	fb02 c505 	mla	r5, r2, r5, ip
 800d29c:	b289      	uxth	r1, r1
 800d29e:	3301      	adds	r3, #1
 800d2a0:	eb01 4105 	add.w	r1, r1, r5, lsl #16
 800d2a4:	429e      	cmp	r6, r3
 800d2a6:	f840 1b04 	str.w	r1, [r0], #4
 800d2aa:	ea4f 4815 	mov.w	r8, r5, lsr #16
 800d2ae:	dcec      	bgt.n	800d28a <__multadd+0x12>
 800d2b0:	f1b8 0f00 	cmp.w	r8, #0
 800d2b4:	d022      	beq.n	800d2fc <__multadd+0x84>
 800d2b6:	68a3      	ldr	r3, [r4, #8]
 800d2b8:	42b3      	cmp	r3, r6
 800d2ba:	dc19      	bgt.n	800d2f0 <__multadd+0x78>
 800d2bc:	6861      	ldr	r1, [r4, #4]
 800d2be:	4638      	mov	r0, r7
 800d2c0:	3101      	adds	r1, #1
 800d2c2:	f7ff ff77 	bl	800d1b4 <_Balloc>
 800d2c6:	4605      	mov	r5, r0
 800d2c8:	b928      	cbnz	r0, 800d2d6 <__multadd+0x5e>
 800d2ca:	4602      	mov	r2, r0
 800d2cc:	4b0d      	ldr	r3, [pc, #52]	; (800d304 <__multadd+0x8c>)
 800d2ce:	480e      	ldr	r0, [pc, #56]	; (800d308 <__multadd+0x90>)
 800d2d0:	21b5      	movs	r1, #181	; 0xb5
 800d2d2:	f000 fe21 	bl	800df18 <__assert_func>
 800d2d6:	6922      	ldr	r2, [r4, #16]
 800d2d8:	3202      	adds	r2, #2
 800d2da:	f104 010c 	add.w	r1, r4, #12
 800d2de:	0092      	lsls	r2, r2, #2
 800d2e0:	300c      	adds	r0, #12
 800d2e2:	f7fc fddc 	bl	8009e9e <memcpy>
 800d2e6:	4621      	mov	r1, r4
 800d2e8:	4638      	mov	r0, r7
 800d2ea:	f7ff ffa3 	bl	800d234 <_Bfree>
 800d2ee:	462c      	mov	r4, r5
 800d2f0:	eb04 0386 	add.w	r3, r4, r6, lsl #2
 800d2f4:	3601      	adds	r6, #1
 800d2f6:	f8c3 8014 	str.w	r8, [r3, #20]
 800d2fa:	6126      	str	r6, [r4, #16]
 800d2fc:	4620      	mov	r0, r4
 800d2fe:	e8bd 81f0 	ldmia.w	sp!, {r4, r5, r6, r7, r8, pc}
 800d302:	bf00      	nop
 800d304:	080100a4 	.word	0x080100a4
 800d308:	08010134 	.word	0x08010134

0800d30c <__s2b>:
 800d30c:	e92d 43f8 	stmdb	sp!, {r3, r4, r5, r6, r7, r8, r9, lr}
 800d310:	460c      	mov	r4, r1
 800d312:	4615      	mov	r5, r2
 800d314:	461f      	mov	r7, r3
 800d316:	2209      	movs	r2, #9
 800d318:	3308      	adds	r3, #8
 800d31a:	4606      	mov	r6, r0
 800d31c:	fb93 f3f2 	sdiv	r3, r3, r2
 800d320:	2100      	movs	r1, #0
 800d322:	2201      	movs	r2, #1
 800d324:	429a      	cmp	r2, r3
 800d326:	db09      	blt.n	800d33c <__s2b+0x30>
 800d328:	4630      	mov	r0, r6
 800d32a:	f7ff ff43 	bl	800d1b4 <_Balloc>
 800d32e:	b940      	cbnz	r0, 800d342 <__s2b+0x36>
 800d330:	4602      	mov	r2, r0
 800d332:	4b19      	ldr	r3, [pc, #100]	; (800d398 <__s2b+0x8c>)
 800d334:	4819      	ldr	r0, [pc, #100]	; (800d39c <__s2b+0x90>)
 800d336:	21ce      	movs	r1, #206	; 0xce
 800d338:	f000 fdee 	bl	800df18 <__assert_func>
 800d33c:	0052      	lsls	r2, r2, #1
 800d33e:	3101      	adds	r1, #1
 800d340:	e7f0      	b.n	800d324 <__s2b+0x18>
 800d342:	9b08      	ldr	r3, [sp, #32]
 800d344:	6143      	str	r3, [r0, #20]
 800d346:	2d09      	cmp	r5, #9
 800d348:	f04f 0301 	mov.w	r3, #1
 800d34c:	6103      	str	r3, [r0, #16]
 800d34e:	dd16      	ble.n	800d37e <__s2b+0x72>
 800d350:	f104 0909 	add.w	r9, r4, #9
 800d354:	46c8      	mov	r8, r9
 800d356:	442c      	add	r4, r5
 800d358:	f818 3b01 	ldrb.w	r3, [r8], #1
 800d35c:	4601      	mov	r1, r0
 800d35e:	3b30      	subs	r3, #48	; 0x30
 800d360:	220a      	movs	r2, #10
 800d362:	4630      	mov	r0, r6
 800d364:	f7ff ff88 	bl	800d278 <__multadd>
 800d368:	45a0      	cmp	r8, r4
 800d36a:	d1f5      	bne.n	800d358 <__s2b+0x4c>
 800d36c:	f1a5 0408 	sub.w	r4, r5, #8
 800d370:	444c      	add	r4, r9
 800d372:	1b2d      	subs	r5, r5, r4
 800d374:	1963      	adds	r3, r4, r5
 800d376:	42bb      	cmp	r3, r7
 800d378:	db04      	blt.n	800d384 <__s2b+0x78>
 800d37a:	e8bd 83f8 	ldmia.w	sp!, {r3, r4, r5, r6, r7, r8, r9, pc}
 800d37e:	340a      	adds	r4, #10
 800d380:	2509      	movs	r5, #9
 800d382:	e7f6      	b.n	800d372 <__s2b+0x66>
 800d384:	f814 3b01 	ldrb.w	r3, [r4], #1
 800d388:	4601      	mov	r1, r0
 800d38a:	3b30      	subs	r3, #48	; 0x30
 800d38c:	220a      	movs	r2, #10
 800d38e:	4630      	mov	r0, r6
 800d390:	f7ff ff72 	bl	800d278 <__multadd>
 800d394:	e7ee      	b.n	800d374 <__s2b+0x68>
 800d396:	bf00      	nop
 800d398:	080100a4 	.word	0x080100a4
 800d39c:	08010134 	.word	0x08010134

0800d3a0 <__hi0bits>:
 800d3a0:	0c03      	lsrs	r3, r0, #16
 800d3a2:	041b      	lsls	r3, r3, #16
 800d3a4:	b9d3      	cbnz	r3, 800d3dc <__hi0bits+0x3c>
 800d3a6:	0400      	lsls	r0, r0, #16
 800d3a8:	2310      	movs	r3, #16
 800d3aa:	f010 4f7f 	tst.w	r0, #4278190080	; 0xff000000
 800d3ae:	bf04      	itt	eq
 800d3b0:	0200      	lsleq	r0, r0, #8
 800d3b2:	3308      	addeq	r3, #8
 800d3b4:	f010 4f70 	tst.w	r0, #4026531840	; 0xf0000000
 800d3b8:	bf04      	itt	eq
 800d3ba:	0100      	lsleq	r0, r0, #4
 800d3bc:	3304      	addeq	r3, #4
 800d3be:	f010 4f40 	tst.w	r0, #3221225472	; 0xc0000000
 800d3c2:	bf04      	itt	eq
 800d3c4:	0080      	lsleq	r0, r0, #2
 800d3c6:	3302      	addeq	r3, #2
 800d3c8:	2800      	cmp	r0, #0
 800d3ca:	db05      	blt.n	800d3d8 <__hi0bits+0x38>
 800d3cc:	f010 4f80 	tst.w	r0, #1073741824	; 0x40000000
 800d3d0:	f103 0301 	add.w	r3, r3, #1
 800d3d4:	bf08      	it	eq
 800d3d6:	2320      	moveq	r3, #32
 800d3d8:	4618      	mov	r0, r3
 800d3da:	4770      	bx	lr
 800d3dc:	2300      	movs	r3, #0
 800d3de:	e7e4      	b.n	800d3aa <__hi0bits+0xa>

0800d3e0 <__lo0bits>:
 800d3e0:	6803      	ldr	r3, [r0, #0]
 800d3e2:	f013 0207 	ands.w	r2, r3, #7
 800d3e6:	4601      	mov	r1, r0
 800d3e8:	d00b      	beq.n	800d402 <__lo0bits+0x22>
 800d3ea:	07da      	lsls	r2, r3, #31
 800d3ec:	d424      	bmi.n	800d438 <__lo0bits+0x58>
 800d3ee:	0798      	lsls	r0, r3, #30
 800d3f0:	bf49      	itett	mi
 800d3f2:	085b      	lsrmi	r3, r3, #1
 800d3f4:	089b      	lsrpl	r3, r3, #2
 800d3f6:	2001      	movmi	r0, #1
 800d3f8:	600b      	strmi	r3, [r1, #0]
 800d3fa:	bf5c      	itt	pl
 800d3fc:	600b      	strpl	r3, [r1, #0]
 800d3fe:	2002      	movpl	r0, #2
 800d400:	4770      	bx	lr
 800d402:	b298      	uxth	r0, r3
 800d404:	b9b0      	cbnz	r0, 800d434 <__lo0bits+0x54>
 800d406:	0c1b      	lsrs	r3, r3, #16
 800d408:	2010      	movs	r0, #16
 800d40a:	f013 0fff 	tst.w	r3, #255	; 0xff
 800d40e:	bf04      	itt	eq
 800d410:	0a1b      	lsreq	r3, r3, #8
 800d412:	3008      	addeq	r0, #8
 800d414:	071a      	lsls	r2, r3, #28
 800d416:	bf04      	itt	eq
 800d418:	091b      	lsreq	r3, r3, #4
 800d41a:	3004      	addeq	r0, #4
 800d41c:	079a      	lsls	r2, r3, #30
 800d41e:	bf04      	itt	eq
 800d420:	089b      	lsreq	r3, r3, #2
 800d422:	3002      	addeq	r0, #2
 800d424:	07da      	lsls	r2, r3, #31
 800d426:	d403      	bmi.n	800d430 <__lo0bits+0x50>
 800d428:	085b      	lsrs	r3, r3, #1
 800d42a:	f100 0001 	add.w	r0, r0, #1
 800d42e:	d005      	beq.n	800d43c <__lo0bits+0x5c>
 800d430:	600b      	str	r3, [r1, #0]
 800d432:	4770      	bx	lr
 800d434:	4610      	mov	r0, r2
 800d436:	e7e8      	b.n	800d40a <__lo0bits+0x2a>
 800d438:	2000      	movs	r0, #0
 800d43a:	4770      	bx	lr
 800d43c:	2020      	movs	r0, #32
 800d43e:	4770      	bx	lr

0800d440 <__i2b>:
 800d440:	b510      	push	{r4, lr}
 800d442:	460c      	mov	r4, r1
 800d444:	2101      	movs	r1, #1
 800d446:	f7ff feb5 	bl	800d1b4 <_Balloc>
 800d44a:	4602      	mov	r2, r0
 800d44c:	b928      	cbnz	r0, 800d45a <__i2b+0x1a>
 800d44e:	4b05      	ldr	r3, [pc, #20]	; (800d464 <__i2b+0x24>)
 800d450:	4805      	ldr	r0, [pc, #20]	; (800d468 <__i2b+0x28>)
 800d452:	f44f 71a0 	mov.w	r1, #320	; 0x140
 800d456:	f000 fd5f 	bl	800df18 <__assert_func>
 800d45a:	2301      	movs	r3, #1
 800d45c:	6144      	str	r4, [r0, #20]
 800d45e:	6103      	str	r3, [r0, #16]
 800d460:	bd10      	pop	{r4, pc}
 800d462:	bf00      	nop
 800d464:	080100a4 	.word	0x080100a4
 800d468:	08010134 	.word	0x08010134

0800d46c <__multiply>:
 800d46c:	e92d 4ff0 	stmdb	sp!, {r4, r5, r6, r7, r8, r9, sl, fp, lr}
 800d470:	4614      	mov	r4, r2
 800d472:	690a      	ldr	r2, [r1, #16]
 800d474:	6923      	ldr	r3, [r4, #16]
 800d476:	429a      	cmp	r2, r3
 800d478:	bfb8      	it	lt
 800d47a:	460b      	movlt	r3, r1
 800d47c:	460d      	mov	r5, r1
 800d47e:	bfbc      	itt	lt
 800d480:	4625      	movlt	r5, r4
 800d482:	461c      	movlt	r4, r3
 800d484:	f8d5 a010 	ldr.w	sl, [r5, #16]
 800d488:	f8d4 9010 	ldr.w	r9, [r4, #16]
 800d48c:	68ab      	ldr	r3, [r5, #8]
 800d48e:	6869      	ldr	r1, [r5, #4]
 800d490:	eb0a 0709 	add.w	r7, sl, r9
 800d494:	42bb      	cmp	r3, r7
 800d496:	b085      	sub	sp, #20
 800d498:	bfb8      	it	lt
 800d49a:	3101      	addlt	r1, #1
 800d49c:	f7ff fe8a 	bl	800d1b4 <_Balloc>
 800d4a0:	b930      	cbnz	r0, 800d4b0 <__multiply+0x44>
 800d4a2:	4602      	mov	r2, r0
 800d4a4:	4b42      	ldr	r3, [pc, #264]	; (800d5b0 <__multiply+0x144>)
 800d4a6:	4843      	ldr	r0, [pc, #268]	; (800d5b4 <__multiply+0x148>)
 800d4a8:	f240 115d 	movw	r1, #349	; 0x15d
 800d4ac:	f000 fd34 	bl	800df18 <__assert_func>
 800d4b0:	f100 0614 	add.w	r6, r0, #20
 800d4b4:	eb06 0887 	add.w	r8, r6, r7, lsl #2
 800d4b8:	4633      	mov	r3, r6
 800d4ba:	2200      	movs	r2, #0
 800d4bc:	4543      	cmp	r3, r8
 800d4be:	d31e      	bcc.n	800d4fe <__multiply+0x92>
 800d4c0:	f105 0c14 	add.w	ip, r5, #20
 800d4c4:	f104 0314 	add.w	r3, r4, #20
 800d4c8:	eb0c 0c8a 	add.w	ip, ip, sl, lsl #2
 800d4cc:	eb03 0289 	add.w	r2, r3, r9, lsl #2
 800d4d0:	9202      	str	r2, [sp, #8]
 800d4d2:	ebac 0205 	sub.w	r2, ip, r5
 800d4d6:	3a15      	subs	r2, #21
 800d4d8:	f022 0203 	bic.w	r2, r2, #3
 800d4dc:	3204      	adds	r2, #4
 800d4de:	f105 0115 	add.w	r1, r5, #21
 800d4e2:	458c      	cmp	ip, r1
 800d4e4:	bf38      	it	cc
 800d4e6:	2204      	movcc	r2, #4
 800d4e8:	9201      	str	r2, [sp, #4]
 800d4ea:	9a02      	ldr	r2, [sp, #8]
 800d4ec:	9303      	str	r3, [sp, #12]
 800d4ee:	429a      	cmp	r2, r3
 800d4f0:	d808      	bhi.n	800d504 <__multiply+0x98>
 800d4f2:	2f00      	cmp	r7, #0
 800d4f4:	dc55      	bgt.n	800d5a2 <__multiply+0x136>
 800d4f6:	6107      	str	r7, [r0, #16]
 800d4f8:	b005      	add	sp, #20
 800d4fa:	e8bd 8ff0 	ldmia.w	sp!, {r4, r5, r6, r7, r8, r9, sl, fp, pc}
 800d4fe:	f843 2b04 	str.w	r2, [r3], #4
 800d502:	e7db      	b.n	800d4bc <__multiply+0x50>
 800d504:	f8b3 a000 	ldrh.w	sl, [r3]
 800d508:	f1ba 0f00 	cmp.w	sl, #0
 800d50c:	d020      	beq.n	800d550 <__multiply+0xe4>
 800d50e:	f105 0e14 	add.w	lr, r5, #20
 800d512:	46b1      	mov	r9, r6
 800d514:	2200      	movs	r2, #0
 800d516:	f85e 4b04 	ldr.w	r4, [lr], #4
 800d51a:	f8d9 b000 	ldr.w	fp, [r9]
 800d51e:	b2a1      	uxth	r1, r4
 800d520:	fa1f fb8b 	uxth.w	fp, fp
 800d524:	fb0a b101 	mla	r1, sl, r1, fp
 800d528:	4411      	add	r1, r2
 800d52a:	f8d9 2000 	ldr.w	r2, [r9]
 800d52e:	0c24      	lsrs	r4, r4, #16
 800d530:	0c12      	lsrs	r2, r2, #16
 800d532:	fb0a 2404 	mla	r4, sl, r4, r2
 800d536:	eb04 4411 	add.w	r4, r4, r1, lsr #16
 800d53a:	b289      	uxth	r1, r1
 800d53c:	ea41 4104 	orr.w	r1, r1, r4, lsl #16
 800d540:	45f4      	cmp	ip, lr
 800d542:	f849 1b04 	str.w	r1, [r9], #4
 800d546:	ea4f 4214 	mov.w	r2, r4, lsr #16
 800d54a:	d8e4      	bhi.n	800d516 <__multiply+0xaa>
 800d54c:	9901      	ldr	r1, [sp, #4]
 800d54e:	5072      	str	r2, [r6, r1]
 800d550:	9a03      	ldr	r2, [sp, #12]
 800d552:	f8b2 9002 	ldrh.w	r9, [r2, #2]
 800d556:	3304      	adds	r3, #4
 800d558:	f1b9 0f00 	cmp.w	r9, #0
 800d55c:	d01f      	beq.n	800d59e <__multiply+0x132>
 800d55e:	6834      	ldr	r4, [r6, #0]
 800d560:	f105 0114 	add.w	r1, r5, #20
 800d564:	46b6      	mov	lr, r6
 800d566:	f04f 0a00 	mov.w	sl, #0
 800d56a:	880a      	ldrh	r2, [r1, #0]
 800d56c:	f8be b002 	ldrh.w	fp, [lr, #2]
 800d570:	fb09 b202 	mla	r2, r9, r2, fp
 800d574:	4492      	add	sl, r2
 800d576:	b2a4      	uxth	r4, r4
 800d578:	ea44 440a 	orr.w	r4, r4, sl, lsl #16
 800d57c:	f84e 4b04 	str.w	r4, [lr], #4
 800d580:	f851 4b04 	ldr.w	r4, [r1], #4
 800d584:	f8be 2000 	ldrh.w	r2, [lr]
 800d588:	0c24      	lsrs	r4, r4, #16
 800d58a:	fb09 2404 	mla	r4, r9, r4, r2
 800d58e:	eb04 441a 	add.w	r4, r4, sl, lsr #16
 800d592:	458c      	cmp	ip, r1
 800d594:	ea4f 4a14 	mov.w	sl, r4, lsr #16
 800d598:	d8e7      	bhi.n	800d56a <__multiply+0xfe>
 800d59a:	9a01      	ldr	r2, [sp, #4]
 800d59c:	50b4      	str	r4, [r6, r2]
 800d59e:	3604      	adds	r6, #4
 800d5a0:	e7a3      	b.n	800d4ea <__multiply+0x7e>
 800d5a2:	f858 3d04 	ldr.w	r3, [r8, #-4]!
 800d5a6:	2b00      	cmp	r3, #0
 800d5a8:	d1a5      	bne.n	800d4f6 <__multiply+0x8a>
 800d5aa:	3f01      	subs	r7, #1
 800d5ac:	e7a1      	b.n	800d4f2 <__multiply+0x86>
 800d5ae:	bf00      	nop
 800d5b0:	080100a4 	.word	0x080100a4
 800d5b4:	08010134 	.word	0x08010134

0800d5b8 <__pow5mult>:
 800d5b8:	e92d 43f8 	stmdb	sp!, {r3, r4, r5, r6, r7, r8, r9, lr}
 800d5bc:	4615      	mov	r5, r2
 800d5be:	f012 0203 	ands.w	r2, r2, #3
 800d5c2:	4606      	mov	r6, r0
 800d5c4:	460f      	mov	r7, r1
 800d5c6:	d007      	beq.n	800d5d8 <__pow5mult+0x20>
 800d5c8:	4c25      	ldr	r4, [pc, #148]	; (800d660 <__pow5mult+0xa8>)
 800d5ca:	3a01      	subs	r2, #1
 800d5cc:	2300      	movs	r3, #0
 800d5ce:	f854 2022 	ldr.w	r2, [r4, r2, lsl #2]
 800d5d2:	f7ff fe51 	bl	800d278 <__multadd>
 800d5d6:	4607      	mov	r7, r0
 800d5d8:	10ad      	asrs	r5, r5, #2
 800d5da:	d03d      	beq.n	800d658 <__pow5mult+0xa0>
 800d5dc:	6a74      	ldr	r4, [r6, #36]	; 0x24
 800d5de:	b97c      	cbnz	r4, 800d600 <__pow5mult+0x48>
 800d5e0:	2010      	movs	r0, #16
 800d5e2:	f7ff fdc1 	bl	800d168 <malloc>
 800d5e6:	4602      	mov	r2, r0
 800d5e8:	6270      	str	r0, [r6, #36]	; 0x24
 800d5ea:	b928      	cbnz	r0, 800d5f8 <__pow5mult+0x40>
 800d5ec:	4b1d      	ldr	r3, [pc, #116]	; (800d664 <__pow5mult+0xac>)
 800d5ee:	481e      	ldr	r0, [pc, #120]	; (800d668 <__pow5mult+0xb0>)
 800d5f0:	f44f 71d7 	mov.w	r1, #430	; 0x1ae
 800d5f4:	f000 fc90 	bl	800df18 <__assert_func>
 800d5f8:	e9c0 4401 	strd	r4, r4, [r0, #4]
 800d5fc:	6004      	str	r4, [r0, #0]
 800d5fe:	60c4      	str	r4, [r0, #12]
 800d600:	f8d6 8024 	ldr.w	r8, [r6, #36]	; 0x24
 800d604:	f8d8 4008 	ldr.w	r4, [r8, #8]
 800d608:	b94c      	cbnz	r4, 800d61e <__pow5mult+0x66>
 800d60a:	f240 2171 	movw	r1, #625	; 0x271
 800d60e:	4630      	mov	r0, r6
 800d610:	f7ff ff16 	bl	800d440 <__i2b>
 800d614:	2300      	movs	r3, #0
 800d616:	f8c8 0008 	str.w	r0, [r8, #8]
 800d61a:	4604      	mov	r4, r0
 800d61c:	6003      	str	r3, [r0, #0]
 800d61e:	f04f 0900 	mov.w	r9, #0
 800d622:	07eb      	lsls	r3, r5, #31
 800d624:	d50a      	bpl.n	800d63c <__pow5mult+0x84>
 800d626:	4639      	mov	r1, r7
 800d628:	4622      	mov	r2, r4
 800d62a:	4630      	mov	r0, r6
 800d62c:	f7ff ff1e 	bl	800d46c <__multiply>
 800d630:	4639      	mov	r1, r7
 800d632:	4680      	mov	r8, r0
 800d634:	4630      	mov	r0, r6
 800d636:	f7ff fdfd 	bl	800d234 <_Bfree>
 800d63a:	4647      	mov	r7, r8
 800d63c:	106d      	asrs	r5, r5, #1
 800d63e:	d00b      	beq.n	800d658 <__pow5mult+0xa0>
 800d640:	6820      	ldr	r0, [r4, #0]
 800d642:	b938      	cbnz	r0, 800d654 <__pow5mult+0x9c>
 800d644:	4622      	mov	r2, r4
 800d646:	4621      	mov	r1, r4
 800d648:	4630      	mov	r0, r6
 800d64a:	f7ff ff0f 	bl	800d46c <__multiply>
 800d64e:	6020      	str	r0, [r4, #0]
 800d650:	f8c0 9000 	str.w	r9, [r0]
 800d654:	4604      	mov	r4, r0
 800d656:	e7e4      	b.n	800d622 <__pow5mult+0x6a>
 800d658:	4638      	mov	r0, r7
 800d65a:	e8bd 83f8 	ldmia.w	sp!, {r3, r4, r5, r6, r7, r8, r9, pc}
 800d65e:	bf00      	nop
 800d660:	08010288 	.word	0x08010288
 800d664:	0801002e 	.word	0x0801002e
 800d668:	08010134 	.word	0x08010134

0800d66c <__lshift>:
 800d66c:	e92d 47f0 	stmdb	sp!, {r4, r5, r6, r7, r8, r9, sl, lr}
 800d670:	460c      	mov	r4, r1
 800d672:	6849      	ldr	r1, [r1, #4]
 800d674:	6923      	ldr	r3, [r4, #16]
 800d676:	eb03 1862 	add.w	r8, r3, r2, asr #5
 800d67a:	68a3      	ldr	r3, [r4, #8]
 800d67c:	4607      	mov	r7, r0
 800d67e:	4691      	mov	r9, r2
 800d680:	ea4f 1a62 	mov.w	sl, r2, asr #5
 800d684:	f108 0601 	add.w	r6, r8, #1
 800d688:	42b3      	cmp	r3, r6
 800d68a:	db0b      	blt.n	800d6a4 <__lshift+0x38>
 800d68c:	4638      	mov	r0, r7
 800d68e:	f7ff fd91 	bl	800d1b4 <_Balloc>
 800d692:	4605      	mov	r5, r0
 800d694:	b948      	cbnz	r0, 800d6aa <__lshift+0x3e>
 800d696:	4602      	mov	r2, r0
 800d698:	4b28      	ldr	r3, [pc, #160]	; (800d73c <__lshift+0xd0>)
 800d69a:	4829      	ldr	r0, [pc, #164]	; (800d740 <__lshift+0xd4>)
 800d69c:	f240 11d9 	movw	r1, #473	; 0x1d9
 800d6a0:	f000 fc3a 	bl	800df18 <__assert_func>
 800d6a4:	3101      	adds	r1, #1
 800d6a6:	005b      	lsls	r3, r3, #1
 800d6a8:	e7ee      	b.n	800d688 <__lshift+0x1c>
 800d6aa:	2300      	movs	r3, #0
 800d6ac:	f100 0114 	add.w	r1, r0, #20
 800d6b0:	f100 0210 	add.w	r2, r0, #16
 800d6b4:	4618      	mov	r0, r3
 800d6b6:	4553      	cmp	r3, sl
 800d6b8:	db33      	blt.n	800d722 <__lshift+0xb6>
 800d6ba:	6920      	ldr	r0, [r4, #16]
 800d6bc:	ea2a 7aea 	bic.w	sl, sl, sl, asr #31
 800d6c0:	f104 0314 	add.w	r3, r4, #20
 800d6c4:	f019 091f 	ands.w	r9, r9, #31
 800d6c8:	eb01 018a 	add.w	r1, r1, sl, lsl #2
 800d6cc:	eb03 0c80 	add.w	ip, r3, r0, lsl #2
 800d6d0:	d02b      	beq.n	800d72a <__lshift+0xbe>
 800d6d2:	f1c9 0e20 	rsb	lr, r9, #32
 800d6d6:	468a      	mov	sl, r1
 800d6d8:	2200      	movs	r2, #0
 800d6da:	6818      	ldr	r0, [r3, #0]
 800d6dc:	fa00 f009 	lsl.w	r0, r0, r9
 800d6e0:	4302      	orrs	r2, r0
 800d6e2:	f84a 2b04 	str.w	r2, [sl], #4
 800d6e6:	f853 2b04 	ldr.w	r2, [r3], #4
 800d6ea:	459c      	cmp	ip, r3
 800d6ec:	fa22 f20e 	lsr.w	r2, r2, lr
 800d6f0:	d8f3      	bhi.n	800d6da <__lshift+0x6e>
 800d6f2:	ebac 0304 	sub.w	r3, ip, r4
 800d6f6:	3b15      	subs	r3, #21
 800d6f8:	f023 0303 	bic.w	r3, r3, #3
 800d6fc:	3304      	adds	r3, #4
 800d6fe:	f104 0015 	add.w	r0, r4, #21
 800d702:	4584      	cmp	ip, r0
 800d704:	bf38      	it	cc
 800d706:	2304      	movcc	r3, #4
 800d708:	50ca      	str	r2, [r1, r3]
 800d70a:	b10a      	cbz	r2, 800d710 <__lshift+0xa4>
 800d70c:	f108 0602 	add.w	r6, r8, #2
 800d710:	3e01      	subs	r6, #1
 800d712:	4638      	mov	r0, r7
 800d714:	612e      	str	r6, [r5, #16]
 800d716:	4621      	mov	r1, r4
 800d718:	f7ff fd8c 	bl	800d234 <_Bfree>
 800d71c:	4628      	mov	r0, r5
 800d71e:	e8bd 87f0 	ldmia.w	sp!, {r4, r5, r6, r7, r8, r9, sl, pc}
 800d722:	f842 0f04 	str.w	r0, [r2, #4]!
 800d726:	3301      	adds	r3, #1
 800d728:	e7c5      	b.n	800d6b6 <__lshift+0x4a>
 800d72a:	3904      	subs	r1, #4
 800d72c:	f853 2b04 	ldr.w	r2, [r3], #4
 800d730:	f841 2f04 	str.w	r2, [r1, #4]!
 800d734:	459c      	cmp	ip, r3
 800d736:	d8f9      	bhi.n	800d72c <__lshift+0xc0>
 800d738:	e7ea      	b.n	800d710 <__lshift+0xa4>
 800d73a:	bf00      	nop
 800d73c:	080100a4 	.word	0x080100a4
 800d740:	08010134 	.word	0x08010134

0800d744 <__mcmp>:
 800d744:	b530      	push	{r4, r5, lr}
 800d746:	6902      	ldr	r2, [r0, #16]
 800d748:	690c      	ldr	r4, [r1, #16]
 800d74a:	1b12      	subs	r2, r2, r4
 800d74c:	d10e      	bne.n	800d76c <__mcmp+0x28>
 800d74e:	f100 0314 	add.w	r3, r0, #20
 800d752:	3114      	adds	r1, #20
 800d754:	eb03 0084 	add.w	r0, r3, r4, lsl #2
 800d758:	eb01 0184 	add.w	r1, r1, r4, lsl #2
 800d75c:	f850 5d04 	ldr.w	r5, [r0, #-4]!
 800d760:	f851 4d04 	ldr.w	r4, [r1, #-4]!
 800d764:	42a5      	cmp	r5, r4
 800d766:	d003      	beq.n	800d770 <__mcmp+0x2c>
 800d768:	d305      	bcc.n	800d776 <__mcmp+0x32>
 800d76a:	2201      	movs	r2, #1
 800d76c:	4610      	mov	r0, r2
 800d76e:	bd30      	pop	{r4, r5, pc}
 800d770:	4283      	cmp	r3, r0
 800d772:	d3f3      	bcc.n	800d75c <__mcmp+0x18>
 800d774:	e7fa      	b.n	800d76c <__mcmp+0x28>
 800d776:	f04f 32ff 	mov.w	r2, #4294967295
 800d77a:	e7f7      	b.n	800d76c <__mcmp+0x28>

0800d77c <__mdiff>:
 800d77c:	e92d 4ff8 	stmdb	sp!, {r3, r4, r5, r6, r7, r8, r9, sl, fp, lr}
 800d780:	460c      	mov	r4, r1
 800d782:	4606      	mov	r6, r0
 800d784:	4611      	mov	r1, r2
 800d786:	4620      	mov	r0, r4
 800d788:	4617      	mov	r7, r2
 800d78a:	f7ff ffdb 	bl	800d744 <__mcmp>
 800d78e:	1e05      	subs	r5, r0, #0
 800d790:	d110      	bne.n	800d7b4 <__mdiff+0x38>
 800d792:	4629      	mov	r1, r5
 800d794:	4630      	mov	r0, r6
 800d796:	f7ff fd0d 	bl	800d1b4 <_Balloc>
 800d79a:	b930      	cbnz	r0, 800d7aa <__mdiff+0x2e>
 800d79c:	4b39      	ldr	r3, [pc, #228]	; (800d884 <__mdiff+0x108>)
 800d79e:	4602      	mov	r2, r0
 800d7a0:	f240 2132 	movw	r1, #562	; 0x232
 800d7a4:	4838      	ldr	r0, [pc, #224]	; (800d888 <__mdiff+0x10c>)
 800d7a6:	f000 fbb7 	bl	800df18 <__assert_func>
 800d7aa:	2301      	movs	r3, #1
 800d7ac:	e9c0 3504 	strd	r3, r5, [r0, #16]
 800d7b0:	e8bd 8ff8 	ldmia.w	sp!, {r3, r4, r5, r6, r7, r8, r9, sl, fp, pc}
 800d7b4:	bfa4      	itt	ge
 800d7b6:	463b      	movge	r3, r7
 800d7b8:	4627      	movge	r7, r4
 800d7ba:	4630      	mov	r0, r6
 800d7bc:	6879      	ldr	r1, [r7, #4]
 800d7be:	bfa6      	itte	ge
 800d7c0:	461c      	movge	r4, r3
 800d7c2:	2500      	movge	r5, #0
 800d7c4:	2501      	movlt	r5, #1
 800d7c6:	f7ff fcf5 	bl	800d1b4 <_Balloc>
 800d7ca:	b920      	cbnz	r0, 800d7d6 <__mdiff+0x5a>
 800d7cc:	4b2d      	ldr	r3, [pc, #180]	; (800d884 <__mdiff+0x108>)
 800d7ce:	4602      	mov	r2, r0
 800d7d0:	f44f 7110 	mov.w	r1, #576	; 0x240
 800d7d4:	e7e6      	b.n	800d7a4 <__mdiff+0x28>
 800d7d6:	693e      	ldr	r6, [r7, #16]
 800d7d8:	60c5      	str	r5, [r0, #12]
 800d7da:	6925      	ldr	r5, [r4, #16]
 800d7dc:	f107 0114 	add.w	r1, r7, #20
 800d7e0:	f104 0914 	add.w	r9, r4, #20
 800d7e4:	f100 0e14 	add.w	lr, r0, #20
 800d7e8:	f107 0210 	add.w	r2, r7, #16
 800d7ec:	eb01 0c86 	add.w	ip, r1, r6, lsl #2
 800d7f0:	eb09 0585 	add.w	r5, r9, r5, lsl #2
 800d7f4:	46f2      	mov	sl, lr
 800d7f6:	2700      	movs	r7, #0
 800d7f8:	f859 3b04 	ldr.w	r3, [r9], #4
 800d7fc:	f852 bf04 	ldr.w	fp, [r2, #4]!
 800d800:	fa1f f883 	uxth.w	r8, r3
 800d804:	fa17 f78b 	uxtah	r7, r7, fp
 800d808:	0c1b      	lsrs	r3, r3, #16
 800d80a:	eba7 0808 	sub.w	r8, r7, r8
 800d80e:	ebc3 431b 	rsb	r3, r3, fp, lsr #16
 800d812:	eb03 4328 	add.w	r3, r3, r8, asr #16
 800d816:	fa1f f888 	uxth.w	r8, r8
 800d81a:	141f      	asrs	r7, r3, #16
 800d81c:	454d      	cmp	r5, r9
 800d81e:	ea48 4303 	orr.w	r3, r8, r3, lsl #16
 800d822:	f84a 3b04 	str.w	r3, [sl], #4
 800d826:	d8e7      	bhi.n	800d7f8 <__mdiff+0x7c>
 800d828:	1b2b      	subs	r3, r5, r4
 800d82a:	3b15      	subs	r3, #21
 800d82c:	f023 0303 	bic.w	r3, r3, #3
 800d830:	3304      	adds	r3, #4
 800d832:	3415      	adds	r4, #21
 800d834:	42a5      	cmp	r5, r4
 800d836:	bf38      	it	cc
 800d838:	2304      	movcc	r3, #4
 800d83a:	4419      	add	r1, r3
 800d83c:	4473      	add	r3, lr
 800d83e:	469e      	mov	lr, r3
 800d840:	460d      	mov	r5, r1
 800d842:	4565      	cmp	r5, ip
 800d844:	d30e      	bcc.n	800d864 <__mdiff+0xe8>
 800d846:	f10c 0203 	add.w	r2, ip, #3
 800d84a:	1a52      	subs	r2, r2, r1
 800d84c:	f022 0203 	bic.w	r2, r2, #3
 800d850:	3903      	subs	r1, #3
 800d852:	458c      	cmp	ip, r1
 800d854:	bf38      	it	cc
 800d856:	2200      	movcc	r2, #0
 800d858:	441a      	add	r2, r3
 800d85a:	f852 3d04 	ldr.w	r3, [r2, #-4]!
 800d85e:	b17b      	cbz	r3, 800d880 <__mdiff+0x104>
 800d860:	6106      	str	r6, [r0, #16]
 800d862:	e7a5      	b.n	800d7b0 <__mdiff+0x34>
 800d864:	f855 8b04 	ldr.w	r8, [r5], #4
 800d868:	fa17 f488 	uxtah	r4, r7, r8
 800d86c:	1422      	asrs	r2, r4, #16
 800d86e:	eb02 4218 	add.w	r2, r2, r8, lsr #16
 800d872:	b2a4      	uxth	r4, r4
 800d874:	ea44 4402 	orr.w	r4, r4, r2, lsl #16
 800d878:	f84e 4b04 	str.w	r4, [lr], #4
 800d87c:	1417      	asrs	r7, r2, #16
 800d87e:	e7e0      	b.n	800d842 <__mdiff+0xc6>
 800d880:	3e01      	subs	r6, #1
 800d882:	e7ea      	b.n	800d85a <__mdiff+0xde>
 800d884:	080100a4 	.word	0x080100a4
 800d888:	08010134 	.word	0x08010134

0800d88c <__ulp>:
 800d88c:	b082      	sub	sp, #8
 800d88e:	ed8d 0b00 	vstr	d0, [sp]
 800d892:	9b01      	ldr	r3, [sp, #4]
 800d894:	4912      	ldr	r1, [pc, #72]	; (800d8e0 <__ulp+0x54>)
 800d896:	4019      	ands	r1, r3
 800d898:	f1a1 7150 	sub.w	r1, r1, #54525952	; 0x3400000
 800d89c:	2900      	cmp	r1, #0
 800d89e:	dd05      	ble.n	800d8ac <__ulp+0x20>
 800d8a0:	2200      	movs	r2, #0
 800d8a2:	460b      	mov	r3, r1
 800d8a4:	ec43 2b10 	vmov	d0, r2, r3
 800d8a8:	b002      	add	sp, #8
 800d8aa:	4770      	bx	lr
 800d8ac:	4249      	negs	r1, r1
 800d8ae:	f1b1 7fa0 	cmp.w	r1, #20971520	; 0x1400000
 800d8b2:	ea4f 5021 	mov.w	r0, r1, asr #20
 800d8b6:	f04f 0200 	mov.w	r2, #0
 800d8ba:	f04f 0300 	mov.w	r3, #0
 800d8be:	da04      	bge.n	800d8ca <__ulp+0x3e>
 800d8c0:	f44f 2100 	mov.w	r1, #524288	; 0x80000
 800d8c4:	fa41 f300 	asr.w	r3, r1, r0
 800d8c8:	e7ec      	b.n	800d8a4 <__ulp+0x18>
 800d8ca:	f1a0 0114 	sub.w	r1, r0, #20
 800d8ce:	291e      	cmp	r1, #30
 800d8d0:	bfda      	itte	le
 800d8d2:	f04f 4000 	movle.w	r0, #2147483648	; 0x80000000
 800d8d6:	fa20 f101 	lsrle.w	r1, r0, r1
 800d8da:	2101      	movgt	r1, #1
 800d8dc:	460a      	mov	r2, r1
 800d8de:	e7e1      	b.n	800d8a4 <__ulp+0x18>
 800d8e0:	7ff00000 	.word	0x7ff00000

0800d8e4 <__b2d>:
 800d8e4:	b5f8      	push	{r3, r4, r5, r6, r7, lr}
 800d8e6:	6905      	ldr	r5, [r0, #16]
 800d8e8:	f100 0714 	add.w	r7, r0, #20
 800d8ec:	eb07 0585 	add.w	r5, r7, r5, lsl #2
 800d8f0:	1f2e      	subs	r6, r5, #4
 800d8f2:	f855 4c04 	ldr.w	r4, [r5, #-4]
 800d8f6:	4620      	mov	r0, r4
 800d8f8:	f7ff fd52 	bl	800d3a0 <__hi0bits>
 800d8fc:	f1c0 0320 	rsb	r3, r0, #32
 800d900:	280a      	cmp	r0, #10
 800d902:	f8df c07c 	ldr.w	ip, [pc, #124]	; 800d980 <__b2d+0x9c>
 800d906:	600b      	str	r3, [r1, #0]
 800d908:	dc14      	bgt.n	800d934 <__b2d+0x50>
 800d90a:	f1c0 0e0b 	rsb	lr, r0, #11
 800d90e:	fa24 f10e 	lsr.w	r1, r4, lr
 800d912:	42b7      	cmp	r7, r6
 800d914:	ea41 030c 	orr.w	r3, r1, ip
 800d918:	bf34      	ite	cc
 800d91a:	f855 1c08 	ldrcc.w	r1, [r5, #-8]
 800d91e:	2100      	movcs	r1, #0
 800d920:	3015      	adds	r0, #21
 800d922:	fa04 f000 	lsl.w	r0, r4, r0
 800d926:	fa21 f10e 	lsr.w	r1, r1, lr
 800d92a:	ea40 0201 	orr.w	r2, r0, r1
 800d92e:	ec43 2b10 	vmov	d0, r2, r3
 800d932:	bdf8      	pop	{r3, r4, r5, r6, r7, pc}
 800d934:	42b7      	cmp	r7, r6
 800d936:	bf3a      	itte	cc
 800d938:	f855 1c08 	ldrcc.w	r1, [r5, #-8]
 800d93c:	f1a5 0608 	subcc.w	r6, r5, #8
 800d940:	2100      	movcs	r1, #0
 800d942:	380b      	subs	r0, #11
 800d944:	d017      	beq.n	800d976 <__b2d+0x92>
 800d946:	f1c0 0c20 	rsb	ip, r0, #32
 800d94a:	fa04 f500 	lsl.w	r5, r4, r0
 800d94e:	42be      	cmp	r6, r7
 800d950:	fa21 f40c 	lsr.w	r4, r1, ip
 800d954:	ea45 0504 	orr.w	r5, r5, r4
 800d958:	bf8c      	ite	hi
 800d95a:	f856 4c04 	ldrhi.w	r4, [r6, #-4]
 800d95e:	2400      	movls	r4, #0
 800d960:	f045 537f 	orr.w	r3, r5, #1069547520	; 0x3fc00000
 800d964:	fa01 f000 	lsl.w	r0, r1, r0
 800d968:	fa24 f40c 	lsr.w	r4, r4, ip
 800d96c:	f443 1340 	orr.w	r3, r3, #3145728	; 0x300000
 800d970:	ea40 0204 	orr.w	r2, r0, r4
 800d974:	e7db      	b.n	800d92e <__b2d+0x4a>
 800d976:	ea44 030c 	orr.w	r3, r4, ip
 800d97a:	460a      	mov	r2, r1
 800d97c:	e7d7      	b.n	800d92e <__b2d+0x4a>
 800d97e:	bf00      	nop
 800d980:	3ff00000 	.word	0x3ff00000

0800d984 <__d2b>:
 800d984:	e92d 43f7 	stmdb	sp!, {r0, r1, r2, r4, r5, r6, r7, r8, r9, lr}
 800d988:	4689      	mov	r9, r1
 800d98a:	2101      	movs	r1, #1
 800d98c:	ec57 6b10 	vmov	r6, r7, d0
 800d990:	4690      	mov	r8, r2
 800d992:	f7ff fc0f 	bl	800d1b4 <_Balloc>
 800d996:	4604      	mov	r4, r0
 800d998:	b930      	cbnz	r0, 800d9a8 <__d2b+0x24>
 800d99a:	4602      	mov	r2, r0
 800d99c:	4b25      	ldr	r3, [pc, #148]	; (800da34 <__d2b+0xb0>)
 800d99e:	4826      	ldr	r0, [pc, #152]	; (800da38 <__d2b+0xb4>)
 800d9a0:	f240 310a 	movw	r1, #778	; 0x30a
 800d9a4:	f000 fab8 	bl	800df18 <__assert_func>
 800d9a8:	f3c7 550a 	ubfx	r5, r7, #20, #11
 800d9ac:	f3c7 0313 	ubfx	r3, r7, #0, #20
 800d9b0:	bb35      	cbnz	r5, 800da00 <__d2b+0x7c>
 800d9b2:	2e00      	cmp	r6, #0
 800d9b4:	9301      	str	r3, [sp, #4]
 800d9b6:	d028      	beq.n	800da0a <__d2b+0x86>
 800d9b8:	4668      	mov	r0, sp
 800d9ba:	9600      	str	r6, [sp, #0]
 800d9bc:	f7ff fd10 	bl	800d3e0 <__lo0bits>
 800d9c0:	9900      	ldr	r1, [sp, #0]
 800d9c2:	b300      	cbz	r0, 800da06 <__d2b+0x82>
 800d9c4:	9a01      	ldr	r2, [sp, #4]
 800d9c6:	f1c0 0320 	rsb	r3, r0, #32
 800d9ca:	fa02 f303 	lsl.w	r3, r2, r3
 800d9ce:	430b      	orrs	r3, r1
 800d9d0:	40c2      	lsrs	r2, r0
 800d9d2:	6163      	str	r3, [r4, #20]
 800d9d4:	9201      	str	r2, [sp, #4]
 800d9d6:	9b01      	ldr	r3, [sp, #4]
 800d9d8:	61a3      	str	r3, [r4, #24]
 800d9da:	2b00      	cmp	r3, #0
 800d9dc:	bf14      	ite	ne
 800d9de:	2202      	movne	r2, #2
 800d9e0:	2201      	moveq	r2, #1
 800d9e2:	6122      	str	r2, [r4, #16]
 800d9e4:	b1d5      	cbz	r5, 800da1c <__d2b+0x98>
 800d9e6:	f2a5 4533 	subw	r5, r5, #1075	; 0x433
 800d9ea:	4405      	add	r5, r0
 800d9ec:	f8c9 5000 	str.w	r5, [r9]
 800d9f0:	f1c0 0035 	rsb	r0, r0, #53	; 0x35
 800d9f4:	f8c8 0000 	str.w	r0, [r8]
 800d9f8:	4620      	mov	r0, r4
 800d9fa:	b003      	add	sp, #12
 800d9fc:	e8bd 83f0 	ldmia.w	sp!, {r4, r5, r6, r7, r8, r9, pc}
 800da00:	f443 1380 	orr.w	r3, r3, #1048576	; 0x100000
 800da04:	e7d5      	b.n	800d9b2 <__d2b+0x2e>
 800da06:	6161      	str	r1, [r4, #20]
 800da08:	e7e5      	b.n	800d9d6 <__d2b+0x52>
 800da0a:	a801      	add	r0, sp, #4
 800da0c:	f7ff fce8 	bl	800d3e0 <__lo0bits>
 800da10:	9b01      	ldr	r3, [sp, #4]
 800da12:	6163      	str	r3, [r4, #20]
 800da14:	2201      	movs	r2, #1
 800da16:	6122      	str	r2, [r4, #16]
 800da18:	3020      	adds	r0, #32
 800da1a:	e7e3      	b.n	800d9e4 <__d2b+0x60>
 800da1c:	eb04 0382 	add.w	r3, r4, r2, lsl #2
 800da20:	f2a0 4032 	subw	r0, r0, #1074	; 0x432
 800da24:	f8c9 0000 	str.w	r0, [r9]
 800da28:	6918      	ldr	r0, [r3, #16]
 800da2a:	f7ff fcb9 	bl	800d3a0 <__hi0bits>
 800da2e:	ebc0 1042 	rsb	r0, r0, r2, lsl #5
 800da32:	e7df      	b.n	800d9f4 <__d2b+0x70>
 800da34:	080100a4 	.word	0x080100a4
 800da38:	08010134 	.word	0x08010134

0800da3c <__ratio>:
 800da3c:	e92d 4ff7 	stmdb	sp!, {r0, r1, r2, r4, r5, r6, r7, r8, r9, sl, fp, lr}
 800da40:	4688      	mov	r8, r1
 800da42:	4669      	mov	r1, sp
 800da44:	4681      	mov	r9, r0
 800da46:	f7ff ff4d 	bl	800d8e4 <__b2d>
 800da4a:	a901      	add	r1, sp, #4
 800da4c:	4640      	mov	r0, r8
 800da4e:	ec55 4b10 	vmov	r4, r5, d0
 800da52:	f7ff ff47 	bl	800d8e4 <__b2d>
 800da56:	f8d9 3010 	ldr.w	r3, [r9, #16]
 800da5a:	f8d8 2010 	ldr.w	r2, [r8, #16]
 800da5e:	eba3 0c02 	sub.w	ip, r3, r2
 800da62:	e9dd 3200 	ldrd	r3, r2, [sp]
 800da66:	1a9b      	subs	r3, r3, r2
 800da68:	eb03 134c 	add.w	r3, r3, ip, lsl #5
 800da6c:	ec51 0b10 	vmov	r0, r1, d0
 800da70:	2b00      	cmp	r3, #0
 800da72:	bfd6      	itet	le
 800da74:	460a      	movle	r2, r1
 800da76:	462a      	movgt	r2, r5
 800da78:	ebc3 3303 	rsble	r3, r3, r3, lsl #12
 800da7c:	468b      	mov	fp, r1
 800da7e:	462f      	mov	r7, r5
 800da80:	bfd4      	ite	le
 800da82:	eb02 5b03 	addle.w	fp, r2, r3, lsl #20
 800da86:	eb02 5703 	addgt.w	r7, r2, r3, lsl #20
 800da8a:	4620      	mov	r0, r4
 800da8c:	ee10 2a10 	vmov	r2, s0
 800da90:	465b      	mov	r3, fp
 800da92:	4639      	mov	r1, r7
 800da94:	f7f2 feda 	bl	800084c <__aeabi_ddiv>
 800da98:	ec41 0b10 	vmov	d0, r0, r1
 800da9c:	b003      	add	sp, #12
 800da9e:	e8bd 8ff0 	ldmia.w	sp!, {r4, r5, r6, r7, r8, r9, sl, fp, pc}

0800daa2 <__copybits>:
 800daa2:	3901      	subs	r1, #1
 800daa4:	b570      	push	{r4, r5, r6, lr}
 800daa6:	1149      	asrs	r1, r1, #5
 800daa8:	6914      	ldr	r4, [r2, #16]
 800daaa:	3101      	adds	r1, #1
 800daac:	f102 0314 	add.w	r3, r2, #20
 800dab0:	eb00 0181 	add.w	r1, r0, r1, lsl #2
 800dab4:	eb03 0484 	add.w	r4, r3, r4, lsl #2
 800dab8:	1f05      	subs	r5, r0, #4
 800daba:	42a3      	cmp	r3, r4
 800dabc:	d30c      	bcc.n	800dad8 <__copybits+0x36>
 800dabe:	1aa3      	subs	r3, r4, r2
 800dac0:	3b11      	subs	r3, #17
 800dac2:	f023 0303 	bic.w	r3, r3, #3
 800dac6:	3211      	adds	r2, #17
 800dac8:	42a2      	cmp	r2, r4
 800daca:	bf88      	it	hi
 800dacc:	2300      	movhi	r3, #0
 800dace:	4418      	add	r0, r3
 800dad0:	2300      	movs	r3, #0
 800dad2:	4288      	cmp	r0, r1
 800dad4:	d305      	bcc.n	800dae2 <__copybits+0x40>
 800dad6:	bd70      	pop	{r4, r5, r6, pc}
 800dad8:	f853 6b04 	ldr.w	r6, [r3], #4
 800dadc:	f845 6f04 	str.w	r6, [r5, #4]!
 800dae0:	e7eb      	b.n	800daba <__copybits+0x18>
 800dae2:	f840 3b04 	str.w	r3, [r0], #4
 800dae6:	e7f4      	b.n	800dad2 <__copybits+0x30>

0800dae8 <__any_on>:
 800dae8:	f100 0214 	add.w	r2, r0, #20
 800daec:	6900      	ldr	r0, [r0, #16]
 800daee:	114b      	asrs	r3, r1, #5
 800daf0:	4298      	cmp	r0, r3
 800daf2:	b510      	push	{r4, lr}
 800daf4:	db11      	blt.n	800db1a <__any_on+0x32>
 800daf6:	dd0a      	ble.n	800db0e <__any_on+0x26>
 800daf8:	f011 011f 	ands.w	r1, r1, #31
 800dafc:	d007      	beq.n	800db0e <__any_on+0x26>
 800dafe:	f852 4023 	ldr.w	r4, [r2, r3, lsl #2]
 800db02:	fa24 f001 	lsr.w	r0, r4, r1
 800db06:	fa00 f101 	lsl.w	r1, r0, r1
 800db0a:	428c      	cmp	r4, r1
 800db0c:	d10b      	bne.n	800db26 <__any_on+0x3e>
 800db0e:	eb02 0383 	add.w	r3, r2, r3, lsl #2
 800db12:	4293      	cmp	r3, r2
 800db14:	d803      	bhi.n	800db1e <__any_on+0x36>
 800db16:	2000      	movs	r0, #0
 800db18:	bd10      	pop	{r4, pc}
 800db1a:	4603      	mov	r3, r0
 800db1c:	e7f7      	b.n	800db0e <__any_on+0x26>
 800db1e:	f853 1d04 	ldr.w	r1, [r3, #-4]!
 800db22:	2900      	cmp	r1, #0
 800db24:	d0f5      	beq.n	800db12 <__any_on+0x2a>
 800db26:	2001      	movs	r0, #1
 800db28:	e7f6      	b.n	800db18 <__any_on+0x30>

0800db2a <_calloc_r>:
 800db2a:	b513      	push	{r0, r1, r4, lr}
 800db2c:	434a      	muls	r2, r1
 800db2e:	4611      	mov	r1, r2
 800db30:	9201      	str	r2, [sp, #4]
 800db32:	f7fc f9cb 	bl	8009ecc <_malloc_r>
 800db36:	4604      	mov	r4, r0
 800db38:	b118      	cbz	r0, 800db42 <_calloc_r+0x18>
 800db3a:	9a01      	ldr	r2, [sp, #4]
 800db3c:	2100      	movs	r1, #0
 800db3e:	f7fc f9bc 	bl	8009eba <memset>
 800db42:	4620      	mov	r0, r4
 800db44:	b002      	add	sp, #8
 800db46:	bd10      	pop	{r4, pc}

0800db48 <_free_r>:
 800db48:	b537      	push	{r0, r1, r2, r4, r5, lr}
 800db4a:	2900      	cmp	r1, #0
 800db4c:	d048      	beq.n	800dbe0 <_free_r+0x98>
 800db4e:	f851 3c04 	ldr.w	r3, [r1, #-4]
 800db52:	9001      	str	r0, [sp, #4]
 800db54:	2b00      	cmp	r3, #0
 800db56:	f1a1 0404 	sub.w	r4, r1, #4
 800db5a:	bfb8      	it	lt
 800db5c:	18e4      	addlt	r4, r4, r3
 800db5e:	f7ff fb1d 	bl	800d19c <__malloc_lock>
 800db62:	4a20      	ldr	r2, [pc, #128]	; (800dbe4 <_free_r+0x9c>)
 800db64:	9801      	ldr	r0, [sp, #4]
 800db66:	6813      	ldr	r3, [r2, #0]
 800db68:	4615      	mov	r5, r2
 800db6a:	b933      	cbnz	r3, 800db7a <_free_r+0x32>
 800db6c:	6063      	str	r3, [r4, #4]
 800db6e:	6014      	str	r4, [r2, #0]
 800db70:	b003      	add	sp, #12
 800db72:	e8bd 4030 	ldmia.w	sp!, {r4, r5, lr}
 800db76:	f7ff bb17 	b.w	800d1a8 <__malloc_unlock>
 800db7a:	42a3      	cmp	r3, r4
 800db7c:	d90b      	bls.n	800db96 <_free_r+0x4e>
 800db7e:	6821      	ldr	r1, [r4, #0]
 800db80:	1862      	adds	r2, r4, r1
 800db82:	4293      	cmp	r3, r2
 800db84:	bf04      	itt	eq
 800db86:	681a      	ldreq	r2, [r3, #0]
 800db88:	685b      	ldreq	r3, [r3, #4]
 800db8a:	6063      	str	r3, [r4, #4]
 800db8c:	bf04      	itt	eq
 800db8e:	1852      	addeq	r2, r2, r1
 800db90:	6022      	streq	r2, [r4, #0]
 800db92:	602c      	str	r4, [r5, #0]
 800db94:	e7ec      	b.n	800db70 <_free_r+0x28>
 800db96:	461a      	mov	r2, r3
 800db98:	685b      	ldr	r3, [r3, #4]
 800db9a:	b10b      	cbz	r3, 800dba0 <_free_r+0x58>
 800db9c:	42a3      	cmp	r3, r4
 800db9e:	d9fa      	bls.n	800db96 <_free_r+0x4e>
 800dba0:	6811      	ldr	r1, [r2, #0]
 800dba2:	1855      	adds	r5, r2, r1
 800dba4:	42a5      	cmp	r5, r4
 800dba6:	d10b      	bne.n	800dbc0 <_free_r+0x78>
 800dba8:	6824      	ldr	r4, [r4, #0]
 800dbaa:	4421      	add	r1, r4
 800dbac:	1854      	adds	r4, r2, r1
 800dbae:	42a3      	cmp	r3, r4
 800dbb0:	6011      	str	r1, [r2, #0]
 800dbb2:	d1dd      	bne.n	800db70 <_free_r+0x28>
 800dbb4:	681c      	ldr	r4, [r3, #0]
 800dbb6:	685b      	ldr	r3, [r3, #4]
 800dbb8:	6053      	str	r3, [r2, #4]
 800dbba:	4421      	add	r1, r4
 800dbbc:	6011      	str	r1, [r2, #0]
 800dbbe:	e7d7      	b.n	800db70 <_free_r+0x28>
 800dbc0:	d902      	bls.n	800dbc8 <_free_r+0x80>
 800dbc2:	230c      	movs	r3, #12
 800dbc4:	6003      	str	r3, [r0, #0]
 800dbc6:	e7d3      	b.n	800db70 <_free_r+0x28>
 800dbc8:	6825      	ldr	r5, [r4, #0]
 800dbca:	1961      	adds	r1, r4, r5
 800dbcc:	428b      	cmp	r3, r1
 800dbce:	bf04      	itt	eq
 800dbd0:	6819      	ldreq	r1, [r3, #0]
 800dbd2:	685b      	ldreq	r3, [r3, #4]
 800dbd4:	6063      	str	r3, [r4, #4]
 800dbd6:	bf04      	itt	eq
 800dbd8:	1949      	addeq	r1, r1, r5
 800dbda:	6021      	streq	r1, [r4, #0]
 800dbdc:	6054      	str	r4, [r2, #4]
 800dbde:	e7c7      	b.n	800db70 <_free_r+0x28>
 800dbe0:	b003      	add	sp, #12
 800dbe2:	bd30      	pop	{r4, r5, pc}
 800dbe4:	20005980 	.word	0x20005980

0800dbe8 <__ssputs_r>:
 800dbe8:	e92d 47f0 	stmdb	sp!, {r4, r5, r6, r7, r8, r9, sl, lr}
 800dbec:	688e      	ldr	r6, [r1, #8]
 800dbee:	429e      	cmp	r6, r3
 800dbf0:	4682      	mov	sl, r0
 800dbf2:	460c      	mov	r4, r1
 800dbf4:	4690      	mov	r8, r2
 800dbf6:	461f      	mov	r7, r3
 800dbf8:	d838      	bhi.n	800dc6c <__ssputs_r+0x84>
 800dbfa:	898a      	ldrh	r2, [r1, #12]
 800dbfc:	f412 6f90 	tst.w	r2, #1152	; 0x480
 800dc00:	d032      	beq.n	800dc68 <__ssputs_r+0x80>
 800dc02:	6825      	ldr	r5, [r4, #0]
 800dc04:	6909      	ldr	r1, [r1, #16]
 800dc06:	eba5 0901 	sub.w	r9, r5, r1
 800dc0a:	6965      	ldr	r5, [r4, #20]
 800dc0c:	eb05 0545 	add.w	r5, r5, r5, lsl #1
 800dc10:	eb05 75d5 	add.w	r5, r5, r5, lsr #31
 800dc14:	3301      	adds	r3, #1
 800dc16:	444b      	add	r3, r9
 800dc18:	106d      	asrs	r5, r5, #1
 800dc1a:	429d      	cmp	r5, r3
 800dc1c:	bf38      	it	cc
 800dc1e:	461d      	movcc	r5, r3
 800dc20:	0553      	lsls	r3, r2, #21
 800dc22:	d531      	bpl.n	800dc88 <__ssputs_r+0xa0>
 800dc24:	4629      	mov	r1, r5
 800dc26:	f7fc f951 	bl	8009ecc <_malloc_r>
 800dc2a:	4606      	mov	r6, r0
 800dc2c:	b950      	cbnz	r0, 800dc44 <__ssputs_r+0x5c>
 800dc2e:	230c      	movs	r3, #12
 800dc30:	f8ca 3000 	str.w	r3, [sl]
 800dc34:	89a3      	ldrh	r3, [r4, #12]
 800dc36:	f043 0340 	orr.w	r3, r3, #64	; 0x40
 800dc3a:	81a3      	strh	r3, [r4, #12]
 800dc3c:	f04f 30ff 	mov.w	r0, #4294967295
 800dc40:	e8bd 87f0 	ldmia.w	sp!, {r4, r5, r6, r7, r8, r9, sl, pc}
 800dc44:	6921      	ldr	r1, [r4, #16]
 800dc46:	464a      	mov	r2, r9
 800dc48:	f7fc f929 	bl	8009e9e <memcpy>
 800dc4c:	89a3      	ldrh	r3, [r4, #12]
 800dc4e:	f423 6390 	bic.w	r3, r3, #1152	; 0x480
 800dc52:	f043 0380 	orr.w	r3, r3, #128	; 0x80
 800dc56:	81a3      	strh	r3, [r4, #12]
 800dc58:	6126      	str	r6, [r4, #16]
 800dc5a:	6165      	str	r5, [r4, #20]
 800dc5c:	444e      	add	r6, r9
 800dc5e:	eba5 0509 	sub.w	r5, r5, r9
 800dc62:	6026      	str	r6, [r4, #0]
 800dc64:	60a5      	str	r5, [r4, #8]
 800dc66:	463e      	mov	r6, r7
 800dc68:	42be      	cmp	r6, r7
 800dc6a:	d900      	bls.n	800dc6e <__ssputs_r+0x86>
 800dc6c:	463e      	mov	r6, r7
 800dc6e:	4632      	mov	r2, r6
 800dc70:	6820      	ldr	r0, [r4, #0]
 800dc72:	4641      	mov	r1, r8
 800dc74:	f000 f980 	bl	800df78 <memmove>
 800dc78:	68a3      	ldr	r3, [r4, #8]
 800dc7a:	6822      	ldr	r2, [r4, #0]
 800dc7c:	1b9b      	subs	r3, r3, r6
 800dc7e:	4432      	add	r2, r6
 800dc80:	60a3      	str	r3, [r4, #8]
 800dc82:	6022      	str	r2, [r4, #0]
 800dc84:	2000      	movs	r0, #0
 800dc86:	e7db      	b.n	800dc40 <__ssputs_r+0x58>
 800dc88:	462a      	mov	r2, r5
 800dc8a:	f000 f98f 	bl	800dfac <_realloc_r>
 800dc8e:	4606      	mov	r6, r0
 800dc90:	2800      	cmp	r0, #0
 800dc92:	d1e1      	bne.n	800dc58 <__ssputs_r+0x70>
 800dc94:	6921      	ldr	r1, [r4, #16]
 800dc96:	4650      	mov	r0, sl
 800dc98:	f7ff ff56 	bl	800db48 <_free_r>
 800dc9c:	e7c7      	b.n	800dc2e <__ssputs_r+0x46>
	...

0800dca0 <_svfiprintf_r>:
 800dca0:	e92d 4ff0 	stmdb	sp!, {r4, r5, r6, r7, r8, r9, sl, fp, lr}
 800dca4:	4698      	mov	r8, r3
 800dca6:	898b      	ldrh	r3, [r1, #12]
 800dca8:	061b      	lsls	r3, r3, #24
 800dcaa:	b09d      	sub	sp, #116	; 0x74
 800dcac:	4607      	mov	r7, r0
 800dcae:	460d      	mov	r5, r1
 800dcb0:	4614      	mov	r4, r2
 800dcb2:	d50e      	bpl.n	800dcd2 <_svfiprintf_r+0x32>
 800dcb4:	690b      	ldr	r3, [r1, #16]
 800dcb6:	b963      	cbnz	r3, 800dcd2 <_svfiprintf_r+0x32>
 800dcb8:	2140      	movs	r1, #64	; 0x40
 800dcba:	f7fc f907 	bl	8009ecc <_malloc_r>
 800dcbe:	6028      	str	r0, [r5, #0]
 800dcc0:	6128      	str	r0, [r5, #16]
 800dcc2:	b920      	cbnz	r0, 800dcce <_svfiprintf_r+0x2e>
 800dcc4:	230c      	movs	r3, #12
 800dcc6:	603b      	str	r3, [r7, #0]
 800dcc8:	f04f 30ff 	mov.w	r0, #4294967295
 800dccc:	e0d1      	b.n	800de72 <_svfiprintf_r+0x1d2>
 800dcce:	2340      	movs	r3, #64	; 0x40
 800dcd0:	616b      	str	r3, [r5, #20]
 800dcd2:	2300      	movs	r3, #0
 800dcd4:	9309      	str	r3, [sp, #36]	; 0x24
 800dcd6:	2320      	movs	r3, #32
 800dcd8:	f88d 3029 	strb.w	r3, [sp, #41]	; 0x29
 800dcdc:	f8cd 800c 	str.w	r8, [sp, #12]
 800dce0:	2330      	movs	r3, #48	; 0x30
 800dce2:	f8df 81a8 	ldr.w	r8, [pc, #424]	; 800de8c <_svfiprintf_r+0x1ec>
 800dce6:	f88d 302a 	strb.w	r3, [sp, #42]	; 0x2a
 800dcea:	f04f 0901 	mov.w	r9, #1
 800dcee:	4623      	mov	r3, r4
 800dcf0:	469a      	mov	sl, r3
 800dcf2:	f813 2b01 	ldrb.w	r2, [r3], #1
 800dcf6:	b10a      	cbz	r2, 800dcfc <_svfiprintf_r+0x5c>
 800dcf8:	2a25      	cmp	r2, #37	; 0x25
 800dcfa:	d1f9      	bne.n	800dcf0 <_svfiprintf_r+0x50>
 800dcfc:	ebba 0b04 	subs.w	fp, sl, r4
 800dd00:	d00b      	beq.n	800dd1a <_svfiprintf_r+0x7a>
 800dd02:	465b      	mov	r3, fp
 800dd04:	4622      	mov	r2, r4
 800dd06:	4629      	mov	r1, r5
 800dd08:	4638      	mov	r0, r7
 800dd0a:	f7ff ff6d 	bl	800dbe8 <__ssputs_r>
 800dd0e:	3001      	adds	r0, #1
 800dd10:	f000 80aa 	beq.w	800de68 <_svfiprintf_r+0x1c8>
 800dd14:	9a09      	ldr	r2, [sp, #36]	; 0x24
 800dd16:	445a      	add	r2, fp
 800dd18:	9209      	str	r2, [sp, #36]	; 0x24
 800dd1a:	f89a 3000 	ldrb.w	r3, [sl]
 800dd1e:	2b00      	cmp	r3, #0
 800dd20:	f000 80a2 	beq.w	800de68 <_svfiprintf_r+0x1c8>
 800dd24:	2300      	movs	r3, #0
 800dd26:	f04f 32ff 	mov.w	r2, #4294967295
 800dd2a:	e9cd 2305 	strd	r2, r3, [sp, #20]
 800dd2e:	f10a 0a01 	add.w	sl, sl, #1
 800dd32:	9304      	str	r3, [sp, #16]
 800dd34:	9307      	str	r3, [sp, #28]
 800dd36:	f88d 3053 	strb.w	r3, [sp, #83]	; 0x53
 800dd3a:	931a      	str	r3, [sp, #104]	; 0x68
 800dd3c:	4654      	mov	r4, sl
 800dd3e:	2205      	movs	r2, #5
 800dd40:	f814 1b01 	ldrb.w	r1, [r4], #1
 800dd44:	4851      	ldr	r0, [pc, #324]	; (800de8c <_svfiprintf_r+0x1ec>)
 800dd46:	f7f2 fa4b 	bl	80001e0 <memchr>
 800dd4a:	9a04      	ldr	r2, [sp, #16]
 800dd4c:	b9d8      	cbnz	r0, 800dd86 <_svfiprintf_r+0xe6>
 800dd4e:	06d0      	lsls	r0, r2, #27
 800dd50:	bf44      	itt	mi
 800dd52:	2320      	movmi	r3, #32
 800dd54:	f88d 3053 	strbmi.w	r3, [sp, #83]	; 0x53
 800dd58:	0711      	lsls	r1, r2, #28
 800dd5a:	bf44      	itt	mi
 800dd5c:	232b      	movmi	r3, #43	; 0x2b
 800dd5e:	f88d 3053 	strbmi.w	r3, [sp, #83]	; 0x53
 800dd62:	f89a 3000 	ldrb.w	r3, [sl]
 800dd66:	2b2a      	cmp	r3, #42	; 0x2a
 800dd68:	d015      	beq.n	800dd96 <_svfiprintf_r+0xf6>
 800dd6a:	9a07      	ldr	r2, [sp, #28]
 800dd6c:	4654      	mov	r4, sl
 800dd6e:	2000      	movs	r0, #0
 800dd70:	f04f 0c0a 	mov.w	ip, #10
 800dd74:	4621      	mov	r1, r4
 800dd76:	f811 3b01 	ldrb.w	r3, [r1], #1
 800dd7a:	3b30      	subs	r3, #48	; 0x30
 800dd7c:	2b09      	cmp	r3, #9
 800dd7e:	d94e      	bls.n	800de1e <_svfiprintf_r+0x17e>
 800dd80:	b1b0      	cbz	r0, 800ddb0 <_svfiprintf_r+0x110>
 800dd82:	9207      	str	r2, [sp, #28]
 800dd84:	e014      	b.n	800ddb0 <_svfiprintf_r+0x110>
 800dd86:	eba0 0308 	sub.w	r3, r0, r8
 800dd8a:	fa09 f303 	lsl.w	r3, r9, r3
 800dd8e:	4313      	orrs	r3, r2
 800dd90:	9304      	str	r3, [sp, #16]
 800dd92:	46a2      	mov	sl, r4
 800dd94:	e7d2      	b.n	800dd3c <_svfiprintf_r+0x9c>
 800dd96:	9b03      	ldr	r3, [sp, #12]
 800dd98:	1d19      	adds	r1, r3, #4
 800dd9a:	681b      	ldr	r3, [r3, #0]
 800dd9c:	9103      	str	r1, [sp, #12]
 800dd9e:	2b00      	cmp	r3, #0
 800dda0:	bfbb      	ittet	lt
 800dda2:	425b      	neglt	r3, r3
 800dda4:	f042 0202 	orrlt.w	r2, r2, #2
 800dda8:	9307      	strge	r3, [sp, #28]
 800ddaa:	9307      	strlt	r3, [sp, #28]
 800ddac:	bfb8      	it	lt
 800ddae:	9204      	strlt	r2, [sp, #16]
 800ddb0:	7823      	ldrb	r3, [r4, #0]
 800ddb2:	2b2e      	cmp	r3, #46	; 0x2e
 800ddb4:	d10c      	bne.n	800ddd0 <_svfiprintf_r+0x130>
 800ddb6:	7863      	ldrb	r3, [r4, #1]
 800ddb8:	2b2a      	cmp	r3, #42	; 0x2a
 800ddba:	d135      	bne.n	800de28 <_svfiprintf_r+0x188>
 800ddbc:	9b03      	ldr	r3, [sp, #12]
 800ddbe:	1d1a      	adds	r2, r3, #4
 800ddc0:	681b      	ldr	r3, [r3, #0]
 800ddc2:	9203      	str	r2, [sp, #12]
 800ddc4:	2b00      	cmp	r3, #0
 800ddc6:	bfb8      	it	lt
 800ddc8:	f04f 33ff 	movlt.w	r3, #4294967295
 800ddcc:	3402      	adds	r4, #2
 800ddce:	9305      	str	r3, [sp, #20]
 800ddd0:	f8df a0c8 	ldr.w	sl, [pc, #200]	; 800de9c <_svfiprintf_r+0x1fc>
 800ddd4:	7821      	ldrb	r1, [r4, #0]
 800ddd6:	2203      	movs	r2, #3
 800ddd8:	4650      	mov	r0, sl
 800ddda:	f7f2 fa01 	bl	80001e0 <memchr>
 800ddde:	b140      	cbz	r0, 800ddf2 <_svfiprintf_r+0x152>
 800dde0:	2340      	movs	r3, #64	; 0x40
 800dde2:	eba0 000a 	sub.w	r0, r0, sl
 800dde6:	fa03 f000 	lsl.w	r0, r3, r0
 800ddea:	9b04      	ldr	r3, [sp, #16]
 800ddec:	4303      	orrs	r3, r0
 800ddee:	3401      	adds	r4, #1
 800ddf0:	9304      	str	r3, [sp, #16]
 800ddf2:	f814 1b01 	ldrb.w	r1, [r4], #1
 800ddf6:	4826      	ldr	r0, [pc, #152]	; (800de90 <_svfiprintf_r+0x1f0>)
 800ddf8:	f88d 1028 	strb.w	r1, [sp, #40]	; 0x28
 800ddfc:	2206      	movs	r2, #6
 800ddfe:	f7f2 f9ef 	bl	80001e0 <memchr>
 800de02:	2800      	cmp	r0, #0
 800de04:	d038      	beq.n	800de78 <_svfiprintf_r+0x1d8>
 800de06:	4b23      	ldr	r3, [pc, #140]	; (800de94 <_svfiprintf_r+0x1f4>)
 800de08:	bb1b      	cbnz	r3, 800de52 <_svfiprintf_r+0x1b2>
 800de0a:	9b03      	ldr	r3, [sp, #12]
 800de0c:	3307      	adds	r3, #7
 800de0e:	f023 0307 	bic.w	r3, r3, #7
 800de12:	3308      	adds	r3, #8
 800de14:	9303      	str	r3, [sp, #12]
 800de16:	9b09      	ldr	r3, [sp, #36]	; 0x24
 800de18:	4433      	add	r3, r6
 800de1a:	9309      	str	r3, [sp, #36]	; 0x24
 800de1c:	e767      	b.n	800dcee <_svfiprintf_r+0x4e>
 800de1e:	fb0c 3202 	mla	r2, ip, r2, r3
 800de22:	460c      	mov	r4, r1
 800de24:	2001      	movs	r0, #1
 800de26:	e7a5      	b.n	800dd74 <_svfiprintf_r+0xd4>
 800de28:	2300      	movs	r3, #0
 800de2a:	3401      	adds	r4, #1
 800de2c:	9305      	str	r3, [sp, #20]
 800de2e:	4619      	mov	r1, r3
 800de30:	f04f 0c0a 	mov.w	ip, #10
 800de34:	4620      	mov	r0, r4
 800de36:	f810 2b01 	ldrb.w	r2, [r0], #1
 800de3a:	3a30      	subs	r2, #48	; 0x30
 800de3c:	2a09      	cmp	r2, #9
 800de3e:	d903      	bls.n	800de48 <_svfiprintf_r+0x1a8>
 800de40:	2b00      	cmp	r3, #0
 800de42:	d0c5      	beq.n	800ddd0 <_svfiprintf_r+0x130>
 800de44:	9105      	str	r1, [sp, #20]
 800de46:	e7c3      	b.n	800ddd0 <_svfiprintf_r+0x130>
 800de48:	fb0c 2101 	mla	r1, ip, r1, r2
 800de4c:	4604      	mov	r4, r0
 800de4e:	2301      	movs	r3, #1
 800de50:	e7f0      	b.n	800de34 <_svfiprintf_r+0x194>
 800de52:	ab03      	add	r3, sp, #12
 800de54:	9300      	str	r3, [sp, #0]
 800de56:	462a      	mov	r2, r5
 800de58:	4b0f      	ldr	r3, [pc, #60]	; (800de98 <_svfiprintf_r+0x1f8>)
 800de5a:	a904      	add	r1, sp, #16
 800de5c:	4638      	mov	r0, r7
 800de5e:	f7fc f92f 	bl	800a0c0 <_printf_float>
 800de62:	1c42      	adds	r2, r0, #1
 800de64:	4606      	mov	r6, r0
 800de66:	d1d6      	bne.n	800de16 <_svfiprintf_r+0x176>
 800de68:	89ab      	ldrh	r3, [r5, #12]
 800de6a:	065b      	lsls	r3, r3, #25
 800de6c:	f53f af2c 	bmi.w	800dcc8 <_svfiprintf_r+0x28>
 800de70:	9809      	ldr	r0, [sp, #36]	; 0x24
 800de72:	b01d      	add	sp, #116	; 0x74
 800de74:	e8bd 8ff0 	ldmia.w	sp!, {r4, r5, r6, r7, r8, r9, sl, fp, pc}
 800de78:	ab03      	add	r3, sp, #12
 800de7a:	9300      	str	r3, [sp, #0]
 800de7c:	462a      	mov	r2, r5
 800de7e:	4b06      	ldr	r3, [pc, #24]	; (800de98 <_svfiprintf_r+0x1f8>)
 800de80:	a904      	add	r1, sp, #16
 800de82:	4638      	mov	r0, r7
 800de84:	f7fc fbc0 	bl	800a608 <_printf_i>
 800de88:	e7eb      	b.n	800de62 <_svfiprintf_r+0x1c2>
 800de8a:	bf00      	nop
 800de8c:	08010294 	.word	0x08010294
 800de90:	0801029e 	.word	0x0801029e
 800de94:	0800a0c1 	.word	0x0800a0c1
 800de98:	0800dbe9 	.word	0x0800dbe9
 800de9c:	0801029a 	.word	0x0801029a

0800dea0 <_read_r>:
 800dea0:	b538      	push	{r3, r4, r5, lr}
 800dea2:	4d07      	ldr	r5, [pc, #28]	; (800dec0 <_read_r+0x20>)
 800dea4:	4604      	mov	r4, r0
 800dea6:	4608      	mov	r0, r1
 800dea8:	4611      	mov	r1, r2
 800deaa:	2200      	movs	r2, #0
 800deac:	602a      	str	r2, [r5, #0]
 800deae:	461a      	mov	r2, r3
 800deb0:	f7f5 fe7a 	bl	8003ba8 <_read>
 800deb4:	1c43      	adds	r3, r0, #1
 800deb6:	d102      	bne.n	800debe <_read_r+0x1e>
 800deb8:	682b      	ldr	r3, [r5, #0]
 800deba:	b103      	cbz	r3, 800debe <_read_r+0x1e>
 800debc:	6023      	str	r3, [r4, #0]
 800debe:	bd38      	pop	{r3, r4, r5, pc}
 800dec0:	20006354 	.word	0x20006354
 800dec4:	00000000 	.word	0x00000000

0800dec8 <nan>:
 800dec8:	ed9f 0b01 	vldr	d0, [pc, #4]	; 800ded0 <nan+0x8>
 800decc:	4770      	bx	lr
 800dece:	bf00      	nop
 800ded0:	00000000 	.word	0x00000000
 800ded4:	7ff80000 	.word	0x7ff80000

0800ded8 <strncmp>:
 800ded8:	b510      	push	{r4, lr}
 800deda:	b16a      	cbz	r2, 800def8 <strncmp+0x20>
 800dedc:	3901      	subs	r1, #1
 800dede:	1884      	adds	r4, r0, r2
 800dee0:	f810 3b01 	ldrb.w	r3, [r0], #1
 800dee4:	f811 2f01 	ldrb.w	r2, [r1, #1]!
 800dee8:	4293      	cmp	r3, r2
 800deea:	d103      	bne.n	800def4 <strncmp+0x1c>
 800deec:	42a0      	cmp	r0, r4
 800deee:	d001      	beq.n	800def4 <strncmp+0x1c>
 800def0:	2b00      	cmp	r3, #0
 800def2:	d1f5      	bne.n	800dee0 <strncmp+0x8>
 800def4:	1a98      	subs	r0, r3, r2
 800def6:	bd10      	pop	{r4, pc}
 800def8:	4610      	mov	r0, r2
 800defa:	e7fc      	b.n	800def6 <strncmp+0x1e>

0800defc <__ascii_wctomb>:
 800defc:	b149      	cbz	r1, 800df12 <__ascii_wctomb+0x16>
 800defe:	2aff      	cmp	r2, #255	; 0xff
 800df00:	bf85      	ittet	hi
 800df02:	238a      	movhi	r3, #138	; 0x8a
 800df04:	6003      	strhi	r3, [r0, #0]
 800df06:	700a      	strbls	r2, [r1, #0]
 800df08:	f04f 30ff 	movhi.w	r0, #4294967295
 800df0c:	bf98      	it	ls
 800df0e:	2001      	movls	r0, #1
 800df10:	4770      	bx	lr
 800df12:	4608      	mov	r0, r1
 800df14:	4770      	bx	lr
	...

0800df18 <__assert_func>:
 800df18:	b51f      	push	{r0, r1, r2, r3, r4, lr}
 800df1a:	4614      	mov	r4, r2
 800df1c:	461a      	mov	r2, r3
 800df1e:	4b09      	ldr	r3, [pc, #36]	; (800df44 <__assert_func+0x2c>)
 800df20:	681b      	ldr	r3, [r3, #0]
 800df22:	4605      	mov	r5, r0
 800df24:	68d8      	ldr	r0, [r3, #12]
 800df26:	b14c      	cbz	r4, 800df3c <__assert_func+0x24>
 800df28:	4b07      	ldr	r3, [pc, #28]	; (800df48 <__assert_func+0x30>)
 800df2a:	9100      	str	r1, [sp, #0]
 800df2c:	e9cd 3401 	strd	r3, r4, [sp, #4]
 800df30:	4906      	ldr	r1, [pc, #24]	; (800df4c <__assert_func+0x34>)
 800df32:	462b      	mov	r3, r5
 800df34:	f000 f80e 	bl	800df54 <fiprintf>
 800df38:	f000 fa78 	bl	800e42c <abort>
 800df3c:	4b04      	ldr	r3, [pc, #16]	; (800df50 <__assert_func+0x38>)
 800df3e:	461c      	mov	r4, r3
 800df40:	e7f3      	b.n	800df2a <__assert_func+0x12>
 800df42:	bf00      	nop
 800df44:	20000040 	.word	0x20000040
 800df48:	080102a5 	.word	0x080102a5
 800df4c:	080102b2 	.word	0x080102b2
 800df50:	080102e0 	.word	0x080102e0

0800df54 <fiprintf>:
 800df54:	b40e      	push	{r1, r2, r3}
 800df56:	b503      	push	{r0, r1, lr}
 800df58:	4601      	mov	r1, r0
 800df5a:	ab03      	add	r3, sp, #12
 800df5c:	4805      	ldr	r0, [pc, #20]	; (800df74 <fiprintf+0x20>)
 800df5e:	f853 2b04 	ldr.w	r2, [r3], #4
 800df62:	6800      	ldr	r0, [r0, #0]
 800df64:	9301      	str	r3, [sp, #4]
 800df66:	f000 f871 	bl	800e04c <_vfiprintf_r>
 800df6a:	b002      	add	sp, #8
 800df6c:	f85d eb04 	ldr.w	lr, [sp], #4
 800df70:	b003      	add	sp, #12
 800df72:	4770      	bx	lr
 800df74:	20000040 	.word	0x20000040

0800df78 <memmove>:
 800df78:	4288      	cmp	r0, r1
 800df7a:	b510      	push	{r4, lr}
 800df7c:	eb01 0402 	add.w	r4, r1, r2
 800df80:	d902      	bls.n	800df88 <memmove+0x10>
 800df82:	4284      	cmp	r4, r0
 800df84:	4623      	mov	r3, r4
 800df86:	d807      	bhi.n	800df98 <memmove+0x20>
 800df88:	1e43      	subs	r3, r0, #1
 800df8a:	42a1      	cmp	r1, r4
 800df8c:	d008      	beq.n	800dfa0 <memmove+0x28>
 800df8e:	f811 2b01 	ldrb.w	r2, [r1], #1
 800df92:	f803 2f01 	strb.w	r2, [r3, #1]!
 800df96:	e7f8      	b.n	800df8a <memmove+0x12>
 800df98:	4402      	add	r2, r0
 800df9a:	4601      	mov	r1, r0
 800df9c:	428a      	cmp	r2, r1
 800df9e:	d100      	bne.n	800dfa2 <memmove+0x2a>
 800dfa0:	bd10      	pop	{r4, pc}
 800dfa2:	f813 4d01 	ldrb.w	r4, [r3, #-1]!
 800dfa6:	f802 4d01 	strb.w	r4, [r2, #-1]!
 800dfaa:	e7f7      	b.n	800df9c <memmove+0x24>

0800dfac <_realloc_r>:
 800dfac:	b5f8      	push	{r3, r4, r5, r6, r7, lr}
 800dfae:	4607      	mov	r7, r0
 800dfb0:	4614      	mov	r4, r2
 800dfb2:	460e      	mov	r6, r1
 800dfb4:	b921      	cbnz	r1, 800dfc0 <_realloc_r+0x14>
 800dfb6:	e8bd 40f8 	ldmia.w	sp!, {r3, r4, r5, r6, r7, lr}
 800dfba:	4611      	mov	r1, r2
 800dfbc:	f7fb bf86 	b.w	8009ecc <_malloc_r>
 800dfc0:	b922      	cbnz	r2, 800dfcc <_realloc_r+0x20>
 800dfc2:	f7ff fdc1 	bl	800db48 <_free_r>
 800dfc6:	4625      	mov	r5, r4
 800dfc8:	4628      	mov	r0, r5
 800dfca:	bdf8      	pop	{r3, r4, r5, r6, r7, pc}
 800dfcc:	f000 fa9a 	bl	800e504 <_malloc_usable_size_r>
 800dfd0:	42a0      	cmp	r0, r4
 800dfd2:	d20f      	bcs.n	800dff4 <_realloc_r+0x48>
 800dfd4:	4621      	mov	r1, r4
 800dfd6:	4638      	mov	r0, r7
 800dfd8:	f7fb ff78 	bl	8009ecc <_malloc_r>
 800dfdc:	4605      	mov	r5, r0
 800dfde:	2800      	cmp	r0, #0
 800dfe0:	d0f2      	beq.n	800dfc8 <_realloc_r+0x1c>
 800dfe2:	4631      	mov	r1, r6
 800dfe4:	4622      	mov	r2, r4
 800dfe6:	f7fb ff5a 	bl	8009e9e <memcpy>
 800dfea:	4631      	mov	r1, r6
 800dfec:	4638      	mov	r0, r7
 800dfee:	f7ff fdab 	bl	800db48 <_free_r>
 800dff2:	e7e9      	b.n	800dfc8 <_realloc_r+0x1c>
 800dff4:	4635      	mov	r5, r6
 800dff6:	e7e7      	b.n	800dfc8 <_realloc_r+0x1c>

0800dff8 <__sfputc_r>:
 800dff8:	6893      	ldr	r3, [r2, #8]
 800dffa:	3b01      	subs	r3, #1
 800dffc:	2b00      	cmp	r3, #0
 800dffe:	b410      	push	{r4}
 800e000:	6093      	str	r3, [r2, #8]
 800e002:	da08      	bge.n	800e016 <__sfputc_r+0x1e>
 800e004:	6994      	ldr	r4, [r2, #24]
 800e006:	42a3      	cmp	r3, r4
 800e008:	db01      	blt.n	800e00e <__sfputc_r+0x16>
 800e00a:	290a      	cmp	r1, #10
 800e00c:	d103      	bne.n	800e016 <__sfputc_r+0x1e>
 800e00e:	f85d 4b04 	ldr.w	r4, [sp], #4
 800e012:	f000 b94b 	b.w	800e2ac <__swbuf_r>
 800e016:	6813      	ldr	r3, [r2, #0]
 800e018:	1c58      	adds	r0, r3, #1
 800e01a:	6010      	str	r0, [r2, #0]
 800e01c:	7019      	strb	r1, [r3, #0]
 800e01e:	4608      	mov	r0, r1
 800e020:	f85d 4b04 	ldr.w	r4, [sp], #4
 800e024:	4770      	bx	lr

0800e026 <__sfputs_r>:
 800e026:	b5f8      	push	{r3, r4, r5, r6, r7, lr}
 800e028:	4606      	mov	r6, r0
 800e02a:	460f      	mov	r7, r1
 800e02c:	4614      	mov	r4, r2
 800e02e:	18d5      	adds	r5, r2, r3
 800e030:	42ac      	cmp	r4, r5
 800e032:	d101      	bne.n	800e038 <__sfputs_r+0x12>
 800e034:	2000      	movs	r0, #0
 800e036:	e007      	b.n	800e048 <__sfputs_r+0x22>
 800e038:	f814 1b01 	ldrb.w	r1, [r4], #1
 800e03c:	463a      	mov	r2, r7
 800e03e:	4630      	mov	r0, r6
 800e040:	f7ff ffda 	bl	800dff8 <__sfputc_r>
 800e044:	1c43      	adds	r3, r0, #1
 800e046:	d1f3      	bne.n	800e030 <__sfputs_r+0xa>
 800e048:	bdf8      	pop	{r3, r4, r5, r6, r7, pc}
	...

0800e04c <_vfiprintf_r>:
 800e04c:	e92d 4ff0 	stmdb	sp!, {r4, r5, r6, r7, r8, r9, sl, fp, lr}
 800e050:	460d      	mov	r5, r1
 800e052:	b09d      	sub	sp, #116	; 0x74
 800e054:	4614      	mov	r4, r2
 800e056:	4698      	mov	r8, r3
 800e058:	4606      	mov	r6, r0
 800e05a:	b118      	cbz	r0, 800e064 <_vfiprintf_r+0x18>
 800e05c:	6983      	ldr	r3, [r0, #24]
 800e05e:	b90b      	cbnz	r3, 800e064 <_vfiprintf_r+0x18>
 800e060:	f7fb fe58 	bl	8009d14 <__sinit>
 800e064:	4b89      	ldr	r3, [pc, #548]	; (800e28c <_vfiprintf_r+0x240>)
 800e066:	429d      	cmp	r5, r3
 800e068:	d11b      	bne.n	800e0a2 <_vfiprintf_r+0x56>
 800e06a:	6875      	ldr	r5, [r6, #4]
 800e06c:	6e6b      	ldr	r3, [r5, #100]	; 0x64
 800e06e:	07d9      	lsls	r1, r3, #31
 800e070:	d405      	bmi.n	800e07e <_vfiprintf_r+0x32>
 800e072:	89ab      	ldrh	r3, [r5, #12]
 800e074:	059a      	lsls	r2, r3, #22
 800e076:	d402      	bmi.n	800e07e <_vfiprintf_r+0x32>
 800e078:	6da8      	ldr	r0, [r5, #88]	; 0x58
 800e07a:	f7fb ff0e 	bl	8009e9a <__retarget_lock_acquire_recursive>
 800e07e:	89ab      	ldrh	r3, [r5, #12]
 800e080:	071b      	lsls	r3, r3, #28
 800e082:	d501      	bpl.n	800e088 <_vfiprintf_r+0x3c>
 800e084:	692b      	ldr	r3, [r5, #16]
 800e086:	b9eb      	cbnz	r3, 800e0c4 <_vfiprintf_r+0x78>
 800e088:	4629      	mov	r1, r5
 800e08a:	4630      	mov	r0, r6
 800e08c:	f000 f960 	bl	800e350 <__swsetup_r>
 800e090:	b1c0      	cbz	r0, 800e0c4 <_vfiprintf_r+0x78>
 800e092:	6e6b      	ldr	r3, [r5, #100]	; 0x64
 800e094:	07dc      	lsls	r4, r3, #31
 800e096:	d50e      	bpl.n	800e0b6 <_vfiprintf_r+0x6a>
 800e098:	f04f 30ff 	mov.w	r0, #4294967295
 800e09c:	b01d      	add	sp, #116	; 0x74
 800e09e:	e8bd 8ff0 	ldmia.w	sp!, {r4, r5, r6, r7, r8, r9, sl, fp, pc}
 800e0a2:	4b7b      	ldr	r3, [pc, #492]	; (800e290 <_vfiprintf_r+0x244>)
 800e0a4:	429d      	cmp	r5, r3
 800e0a6:	d101      	bne.n	800e0ac <_vfiprintf_r+0x60>
 800e0a8:	68b5      	ldr	r5, [r6, #8]
 800e0aa:	e7df      	b.n	800e06c <_vfiprintf_r+0x20>
 800e0ac:	4b79      	ldr	r3, [pc, #484]	; (800e294 <_vfiprintf_r+0x248>)
 800e0ae:	429d      	cmp	r5, r3
 800e0b0:	bf08      	it	eq
 800e0b2:	68f5      	ldreq	r5, [r6, #12]
 800e0b4:	e7da      	b.n	800e06c <_vfiprintf_r+0x20>
 800e0b6:	89ab      	ldrh	r3, [r5, #12]
 800e0b8:	0598      	lsls	r0, r3, #22
 800e0ba:	d4ed      	bmi.n	800e098 <_vfiprintf_r+0x4c>
 800e0bc:	6da8      	ldr	r0, [r5, #88]	; 0x58
 800e0be:	f7fb feed 	bl	8009e9c <__retarget_lock_release_recursive>
 800e0c2:	e7e9      	b.n	800e098 <_vfiprintf_r+0x4c>
 800e0c4:	2300      	movs	r3, #0
 800e0c6:	9309      	str	r3, [sp, #36]	; 0x24
 800e0c8:	2320      	movs	r3, #32
 800e0ca:	f88d 3029 	strb.w	r3, [sp, #41]	; 0x29
 800e0ce:	f8cd 800c 	str.w	r8, [sp, #12]
 800e0d2:	2330      	movs	r3, #48	; 0x30
 800e0d4:	f8df 81c0 	ldr.w	r8, [pc, #448]	; 800e298 <_vfiprintf_r+0x24c>
 800e0d8:	f88d 302a 	strb.w	r3, [sp, #42]	; 0x2a
 800e0dc:	f04f 0901 	mov.w	r9, #1
 800e0e0:	4623      	mov	r3, r4
 800e0e2:	469a      	mov	sl, r3
 800e0e4:	f813 2b01 	ldrb.w	r2, [r3], #1
 800e0e8:	b10a      	cbz	r2, 800e0ee <_vfiprintf_r+0xa2>
 800e0ea:	2a25      	cmp	r2, #37	; 0x25
 800e0ec:	d1f9      	bne.n	800e0e2 <_vfiprintf_r+0x96>
 800e0ee:	ebba 0b04 	subs.w	fp, sl, r4
 800e0f2:	d00b      	beq.n	800e10c <_vfiprintf_r+0xc0>
 800e0f4:	465b      	mov	r3, fp
 800e0f6:	4622      	mov	r2, r4
 800e0f8:	4629      	mov	r1, r5
 800e0fa:	4630      	mov	r0, r6
 800e0fc:	f7ff ff93 	bl	800e026 <__sfputs_r>
 800e100:	3001      	adds	r0, #1
 800e102:	f000 80aa 	beq.w	800e25a <_vfiprintf_r+0x20e>
 800e106:	9a09      	ldr	r2, [sp, #36]	; 0x24
 800e108:	445a      	add	r2, fp
 800e10a:	9209      	str	r2, [sp, #36]	; 0x24
 800e10c:	f89a 3000 	ldrb.w	r3, [sl]
 800e110:	2b00      	cmp	r3, #0
 800e112:	f000 80a2 	beq.w	800e25a <_vfiprintf_r+0x20e>
 800e116:	2300      	movs	r3, #0
 800e118:	f04f 32ff 	mov.w	r2, #4294967295
 800e11c:	e9cd 2305 	strd	r2, r3, [sp, #20]
 800e120:	f10a 0a01 	add.w	sl, sl, #1
 800e124:	9304      	str	r3, [sp, #16]
 800e126:	9307      	str	r3, [sp, #28]
 800e128:	f88d 3053 	strb.w	r3, [sp, #83]	; 0x53
 800e12c:	931a      	str	r3, [sp, #104]	; 0x68
 800e12e:	4654      	mov	r4, sl
 800e130:	2205      	movs	r2, #5
 800e132:	f814 1b01 	ldrb.w	r1, [r4], #1
 800e136:	4858      	ldr	r0, [pc, #352]	; (800e298 <_vfiprintf_r+0x24c>)
 800e138:	f7f2 f852 	bl	80001e0 <memchr>
 800e13c:	9a04      	ldr	r2, [sp, #16]
 800e13e:	b9d8      	cbnz	r0, 800e178 <_vfiprintf_r+0x12c>
 800e140:	06d1      	lsls	r1, r2, #27
 800e142:	bf44      	itt	mi
 800e144:	2320      	movmi	r3, #32
 800e146:	f88d 3053 	strbmi.w	r3, [sp, #83]	; 0x53
 800e14a:	0713      	lsls	r3, r2, #28
 800e14c:	bf44      	itt	mi
 800e14e:	232b      	movmi	r3, #43	; 0x2b
 800e150:	f88d 3053 	strbmi.w	r3, [sp, #83]	; 0x53
 800e154:	f89a 3000 	ldrb.w	r3, [sl]
 800e158:	2b2a      	cmp	r3, #42	; 0x2a
 800e15a:	d015      	beq.n	800e188 <_vfiprintf_r+0x13c>
 800e15c:	9a07      	ldr	r2, [sp, #28]
 800e15e:	4654      	mov	r4, sl
 800e160:	2000      	movs	r0, #0
 800e162:	f04f 0c0a 	mov.w	ip, #10
 800e166:	4621      	mov	r1, r4
 800e168:	f811 3b01 	ldrb.w	r3, [r1], #1
 800e16c:	3b30      	subs	r3, #48	; 0x30
 800e16e:	2b09      	cmp	r3, #9
 800e170:	d94e      	bls.n	800e210 <_vfiprintf_r+0x1c4>
 800e172:	b1b0      	cbz	r0, 800e1a2 <_vfiprintf_r+0x156>
 800e174:	9207      	str	r2, [sp, #28]
 800e176:	e014      	b.n	800e1a2 <_vfiprintf_r+0x156>
 800e178:	eba0 0308 	sub.w	r3, r0, r8
 800e17c:	fa09 f303 	lsl.w	r3, r9, r3
 800e180:	4313      	orrs	r3, r2
 800e182:	9304      	str	r3, [sp, #16]
 800e184:	46a2      	mov	sl, r4
 800e186:	e7d2      	b.n	800e12e <_vfiprintf_r+0xe2>
 800e188:	9b03      	ldr	r3, [sp, #12]
 800e18a:	1d19      	adds	r1, r3, #4
 800e18c:	681b      	ldr	r3, [r3, #0]
 800e18e:	9103      	str	r1, [sp, #12]
 800e190:	2b00      	cmp	r3, #0
 800e192:	bfbb      	ittet	lt
 800e194:	425b      	neglt	r3, r3
 800e196:	f042 0202 	orrlt.w	r2, r2, #2
 800e19a:	9307      	strge	r3, [sp, #28]
 800e19c:	9307      	strlt	r3, [sp, #28]
 800e19e:	bfb8      	it	lt
 800e1a0:	9204      	strlt	r2, [sp, #16]
 800e1a2:	7823      	ldrb	r3, [r4, #0]
 800e1a4:	2b2e      	cmp	r3, #46	; 0x2e
 800e1a6:	d10c      	bne.n	800e1c2 <_vfiprintf_r+0x176>
 800e1a8:	7863      	ldrb	r3, [r4, #1]
 800e1aa:	2b2a      	cmp	r3, #42	; 0x2a
 800e1ac:	d135      	bne.n	800e21a <_vfiprintf_r+0x1ce>
 800e1ae:	9b03      	ldr	r3, [sp, #12]
 800e1b0:	1d1a      	adds	r2, r3, #4
 800e1b2:	681b      	ldr	r3, [r3, #0]
 800e1b4:	9203      	str	r2, [sp, #12]
 800e1b6:	2b00      	cmp	r3, #0
 800e1b8:	bfb8      	it	lt
 800e1ba:	f04f 33ff 	movlt.w	r3, #4294967295
 800e1be:	3402      	adds	r4, #2
 800e1c0:	9305      	str	r3, [sp, #20]
 800e1c2:	f8df a0e4 	ldr.w	sl, [pc, #228]	; 800e2a8 <_vfiprintf_r+0x25c>
 800e1c6:	7821      	ldrb	r1, [r4, #0]
 800e1c8:	2203      	movs	r2, #3
 800e1ca:	4650      	mov	r0, sl
 800e1cc:	f7f2 f808 	bl	80001e0 <memchr>
 800e1d0:	b140      	cbz	r0, 800e1e4 <_vfiprintf_r+0x198>
 800e1d2:	2340      	movs	r3, #64	; 0x40
 800e1d4:	eba0 000a 	sub.w	r0, r0, sl
 800e1d8:	fa03 f000 	lsl.w	r0, r3, r0
 800e1dc:	9b04      	ldr	r3, [sp, #16]
 800e1de:	4303      	orrs	r3, r0
 800e1e0:	3401      	adds	r4, #1
 800e1e2:	9304      	str	r3, [sp, #16]
 800e1e4:	f814 1b01 	ldrb.w	r1, [r4], #1
 800e1e8:	482c      	ldr	r0, [pc, #176]	; (800e29c <_vfiprintf_r+0x250>)
 800e1ea:	f88d 1028 	strb.w	r1, [sp, #40]	; 0x28
 800e1ee:	2206      	movs	r2, #6
 800e1f0:	f7f1 fff6 	bl	80001e0 <memchr>
 800e1f4:	2800      	cmp	r0, #0
 800e1f6:	d03f      	beq.n	800e278 <_vfiprintf_r+0x22c>
 800e1f8:	4b29      	ldr	r3, [pc, #164]	; (800e2a0 <_vfiprintf_r+0x254>)
 800e1fa:	bb1b      	cbnz	r3, 800e244 <_vfiprintf_r+0x1f8>
 800e1fc:	9b03      	ldr	r3, [sp, #12]
 800e1fe:	3307      	adds	r3, #7
 800e200:	f023 0307 	bic.w	r3, r3, #7
 800e204:	3308      	adds	r3, #8
 800e206:	9303      	str	r3, [sp, #12]
 800e208:	9b09      	ldr	r3, [sp, #36]	; 0x24
 800e20a:	443b      	add	r3, r7
 800e20c:	9309      	str	r3, [sp, #36]	; 0x24
 800e20e:	e767      	b.n	800e0e0 <_vfiprintf_r+0x94>
 800e210:	fb0c 3202 	mla	r2, ip, r2, r3
 800e214:	460c      	mov	r4, r1
 800e216:	2001      	movs	r0, #1
 800e218:	e7a5      	b.n	800e166 <_vfiprintf_r+0x11a>
 800e21a:	2300      	movs	r3, #0
 800e21c:	3401      	adds	r4, #1
 800e21e:	9305      	str	r3, [sp, #20]
 800e220:	4619      	mov	r1, r3
 800e222:	f04f 0c0a 	mov.w	ip, #10
 800e226:	4620      	mov	r0, r4
 800e228:	f810 2b01 	ldrb.w	r2, [r0], #1
 800e22c:	3a30      	subs	r2, #48	; 0x30
 800e22e:	2a09      	cmp	r2, #9
 800e230:	d903      	bls.n	800e23a <_vfiprintf_r+0x1ee>
 800e232:	2b00      	cmp	r3, #0
 800e234:	d0c5      	beq.n	800e1c2 <_vfiprintf_r+0x176>
 800e236:	9105      	str	r1, [sp, #20]
 800e238:	e7c3      	b.n	800e1c2 <_vfiprintf_r+0x176>
 800e23a:	fb0c 2101 	mla	r1, ip, r1, r2
 800e23e:	4604      	mov	r4, r0
 800e240:	2301      	movs	r3, #1
 800e242:	e7f0      	b.n	800e226 <_vfiprintf_r+0x1da>
 800e244:	ab03      	add	r3, sp, #12
 800e246:	9300      	str	r3, [sp, #0]
 800e248:	462a      	mov	r2, r5
 800e24a:	4b16      	ldr	r3, [pc, #88]	; (800e2a4 <_vfiprintf_r+0x258>)
 800e24c:	a904      	add	r1, sp, #16
 800e24e:	4630      	mov	r0, r6
 800e250:	f7fb ff36 	bl	800a0c0 <_printf_float>
 800e254:	4607      	mov	r7, r0
 800e256:	1c78      	adds	r0, r7, #1
 800e258:	d1d6      	bne.n	800e208 <_vfiprintf_r+0x1bc>
 800e25a:	6e6b      	ldr	r3, [r5, #100]	; 0x64
 800e25c:	07d9      	lsls	r1, r3, #31
 800e25e:	d405      	bmi.n	800e26c <_vfiprintf_r+0x220>
 800e260:	89ab      	ldrh	r3, [r5, #12]
 800e262:	059a      	lsls	r2, r3, #22
 800e264:	d402      	bmi.n	800e26c <_vfiprintf_r+0x220>
 800e266:	6da8      	ldr	r0, [r5, #88]	; 0x58
 800e268:	f7fb fe18 	bl	8009e9c <__retarget_lock_release_recursive>
 800e26c:	89ab      	ldrh	r3, [r5, #12]
 800e26e:	065b      	lsls	r3, r3, #25
 800e270:	f53f af12 	bmi.w	800e098 <_vfiprintf_r+0x4c>
 800e274:	9809      	ldr	r0, [sp, #36]	; 0x24
 800e276:	e711      	b.n	800e09c <_vfiprintf_r+0x50>
 800e278:	ab03      	add	r3, sp, #12
 800e27a:	9300      	str	r3, [sp, #0]
 800e27c:	462a      	mov	r2, r5
 800e27e:	4b09      	ldr	r3, [pc, #36]	; (800e2a4 <_vfiprintf_r+0x258>)
 800e280:	a904      	add	r1, sp, #16
 800e282:	4630      	mov	r0, r6
 800e284:	f7fc f9c0 	bl	800a608 <_printf_i>
 800e288:	e7e4      	b.n	800e254 <_vfiprintf_r+0x208>
 800e28a:	bf00      	nop
 800e28c:	0800fe50 	.word	0x0800fe50
 800e290:	0800fe70 	.word	0x0800fe70
 800e294:	0800fe30 	.word	0x0800fe30
 800e298:	08010294 	.word	0x08010294
 800e29c:	0801029e 	.word	0x0801029e
 800e2a0:	0800a0c1 	.word	0x0800a0c1
 800e2a4:	0800e027 	.word	0x0800e027
 800e2a8:	0801029a 	.word	0x0801029a

0800e2ac <__swbuf_r>:
 800e2ac:	b5f8      	push	{r3, r4, r5, r6, r7, lr}
 800e2ae:	460e      	mov	r6, r1
 800e2b0:	4614      	mov	r4, r2
 800e2b2:	4605      	mov	r5, r0
 800e2b4:	b118      	cbz	r0, 800e2be <__swbuf_r+0x12>
 800e2b6:	6983      	ldr	r3, [r0, #24]
 800e2b8:	b90b      	cbnz	r3, 800e2be <__swbuf_r+0x12>
 800e2ba:	f7fb fd2b 	bl	8009d14 <__sinit>
 800e2be:	4b21      	ldr	r3, [pc, #132]	; (800e344 <__swbuf_r+0x98>)
 800e2c0:	429c      	cmp	r4, r3
 800e2c2:	d12b      	bne.n	800e31c <__swbuf_r+0x70>
 800e2c4:	686c      	ldr	r4, [r5, #4]
 800e2c6:	69a3      	ldr	r3, [r4, #24]
 800e2c8:	60a3      	str	r3, [r4, #8]
 800e2ca:	89a3      	ldrh	r3, [r4, #12]
 800e2cc:	071a      	lsls	r2, r3, #28
 800e2ce:	d52f      	bpl.n	800e330 <__swbuf_r+0x84>
 800e2d0:	6923      	ldr	r3, [r4, #16]
 800e2d2:	b36b      	cbz	r3, 800e330 <__swbuf_r+0x84>
 800e2d4:	6923      	ldr	r3, [r4, #16]
 800e2d6:	6820      	ldr	r0, [r4, #0]
 800e2d8:	1ac0      	subs	r0, r0, r3
 800e2da:	6963      	ldr	r3, [r4, #20]
 800e2dc:	b2f6      	uxtb	r6, r6
 800e2de:	4283      	cmp	r3, r0
 800e2e0:	4637      	mov	r7, r6
 800e2e2:	dc04      	bgt.n	800e2ee <__swbuf_r+0x42>
 800e2e4:	4621      	mov	r1, r4
 800e2e6:	4628      	mov	r0, r5
 800e2e8:	f7fe fb7c 	bl	800c9e4 <_fflush_r>
 800e2ec:	bb30      	cbnz	r0, 800e33c <__swbuf_r+0x90>
 800e2ee:	68a3      	ldr	r3, [r4, #8]
 800e2f0:	3b01      	subs	r3, #1
 800e2f2:	60a3      	str	r3, [r4, #8]
 800e2f4:	6823      	ldr	r3, [r4, #0]
 800e2f6:	1c5a      	adds	r2, r3, #1
 800e2f8:	6022      	str	r2, [r4, #0]
 800e2fa:	701e      	strb	r6, [r3, #0]
 800e2fc:	6963      	ldr	r3, [r4, #20]
 800e2fe:	3001      	adds	r0, #1
 800e300:	4283      	cmp	r3, r0
 800e302:	d004      	beq.n	800e30e <__swbuf_r+0x62>
 800e304:	89a3      	ldrh	r3, [r4, #12]
 800e306:	07db      	lsls	r3, r3, #31
 800e308:	d506      	bpl.n	800e318 <__swbuf_r+0x6c>
 800e30a:	2e0a      	cmp	r6, #10
 800e30c:	d104      	bne.n	800e318 <__swbuf_r+0x6c>
 800e30e:	4621      	mov	r1, r4
 800e310:	4628      	mov	r0, r5
 800e312:	f7fe fb67 	bl	800c9e4 <_fflush_r>
 800e316:	b988      	cbnz	r0, 800e33c <__swbuf_r+0x90>
 800e318:	4638      	mov	r0, r7
 800e31a:	bdf8      	pop	{r3, r4, r5, r6, r7, pc}
 800e31c:	4b0a      	ldr	r3, [pc, #40]	; (800e348 <__swbuf_r+0x9c>)
 800e31e:	429c      	cmp	r4, r3
 800e320:	d101      	bne.n	800e326 <__swbuf_r+0x7a>
 800e322:	68ac      	ldr	r4, [r5, #8]
 800e324:	e7cf      	b.n	800e2c6 <__swbuf_r+0x1a>
 800e326:	4b09      	ldr	r3, [pc, #36]	; (800e34c <__swbuf_r+0xa0>)
 800e328:	429c      	cmp	r4, r3
 800e32a:	bf08      	it	eq
 800e32c:	68ec      	ldreq	r4, [r5, #12]
 800e32e:	e7ca      	b.n	800e2c6 <__swbuf_r+0x1a>
 800e330:	4621      	mov	r1, r4
 800e332:	4628      	mov	r0, r5
 800e334:	f000 f80c 	bl	800e350 <__swsetup_r>
 800e338:	2800      	cmp	r0, #0
 800e33a:	d0cb      	beq.n	800e2d4 <__swbuf_r+0x28>
 800e33c:	f04f 37ff 	mov.w	r7, #4294967295
 800e340:	e7ea      	b.n	800e318 <__swbuf_r+0x6c>
 800e342:	bf00      	nop
 800e344:	0800fe50 	.word	0x0800fe50
 800e348:	0800fe70 	.word	0x0800fe70
 800e34c:	0800fe30 	.word	0x0800fe30

0800e350 <__swsetup_r>:
 800e350:	4b32      	ldr	r3, [pc, #200]	; (800e41c <__swsetup_r+0xcc>)
 800e352:	b570      	push	{r4, r5, r6, lr}
 800e354:	681d      	ldr	r5, [r3, #0]
 800e356:	4606      	mov	r6, r0
 800e358:	460c      	mov	r4, r1
 800e35a:	b125      	cbz	r5, 800e366 <__swsetup_r+0x16>
 800e35c:	69ab      	ldr	r3, [r5, #24]
 800e35e:	b913      	cbnz	r3, 800e366 <__swsetup_r+0x16>
 800e360:	4628      	mov	r0, r5
 800e362:	f7fb fcd7 	bl	8009d14 <__sinit>
 800e366:	4b2e      	ldr	r3, [pc, #184]	; (800e420 <__swsetup_r+0xd0>)
 800e368:	429c      	cmp	r4, r3
 800e36a:	d10f      	bne.n	800e38c <__swsetup_r+0x3c>
 800e36c:	686c      	ldr	r4, [r5, #4]
 800e36e:	89a3      	ldrh	r3, [r4, #12]
 800e370:	f9b4 200c 	ldrsh.w	r2, [r4, #12]
 800e374:	0719      	lsls	r1, r3, #28
 800e376:	d42c      	bmi.n	800e3d2 <__swsetup_r+0x82>
 800e378:	06dd      	lsls	r5, r3, #27
 800e37a:	d411      	bmi.n	800e3a0 <__swsetup_r+0x50>
 800e37c:	2309      	movs	r3, #9
 800e37e:	6033      	str	r3, [r6, #0]
 800e380:	f042 0340 	orr.w	r3, r2, #64	; 0x40
 800e384:	81a3      	strh	r3, [r4, #12]
 800e386:	f04f 30ff 	mov.w	r0, #4294967295
 800e38a:	e03e      	b.n	800e40a <__swsetup_r+0xba>
 800e38c:	4b25      	ldr	r3, [pc, #148]	; (800e424 <__swsetup_r+0xd4>)
 800e38e:	429c      	cmp	r4, r3
 800e390:	d101      	bne.n	800e396 <__swsetup_r+0x46>
 800e392:	68ac      	ldr	r4, [r5, #8]
 800e394:	e7eb      	b.n	800e36e <__swsetup_r+0x1e>
 800e396:	4b24      	ldr	r3, [pc, #144]	; (800e428 <__swsetup_r+0xd8>)
 800e398:	429c      	cmp	r4, r3
 800e39a:	bf08      	it	eq
 800e39c:	68ec      	ldreq	r4, [r5, #12]
 800e39e:	e7e6      	b.n	800e36e <__swsetup_r+0x1e>
 800e3a0:	0758      	lsls	r0, r3, #29
 800e3a2:	d512      	bpl.n	800e3ca <__swsetup_r+0x7a>
 800e3a4:	6b61      	ldr	r1, [r4, #52]	; 0x34
 800e3a6:	b141      	cbz	r1, 800e3ba <__swsetup_r+0x6a>
 800e3a8:	f104 0344 	add.w	r3, r4, #68	; 0x44
 800e3ac:	4299      	cmp	r1, r3
 800e3ae:	d002      	beq.n	800e3b6 <__swsetup_r+0x66>
 800e3b0:	4630      	mov	r0, r6
 800e3b2:	f7ff fbc9 	bl	800db48 <_free_r>
 800e3b6:	2300      	movs	r3, #0
 800e3b8:	6363      	str	r3, [r4, #52]	; 0x34
 800e3ba:	89a3      	ldrh	r3, [r4, #12]
 800e3bc:	f023 0324 	bic.w	r3, r3, #36	; 0x24
 800e3c0:	81a3      	strh	r3, [r4, #12]
 800e3c2:	2300      	movs	r3, #0
 800e3c4:	6063      	str	r3, [r4, #4]
 800e3c6:	6923      	ldr	r3, [r4, #16]
 800e3c8:	6023      	str	r3, [r4, #0]
 800e3ca:	89a3      	ldrh	r3, [r4, #12]
 800e3cc:	f043 0308 	orr.w	r3, r3, #8
 800e3d0:	81a3      	strh	r3, [r4, #12]
 800e3d2:	6923      	ldr	r3, [r4, #16]
 800e3d4:	b94b      	cbnz	r3, 800e3ea <__swsetup_r+0x9a>
 800e3d6:	89a3      	ldrh	r3, [r4, #12]
 800e3d8:	f403 7320 	and.w	r3, r3, #640	; 0x280
 800e3dc:	f5b3 7f00 	cmp.w	r3, #512	; 0x200
 800e3e0:	d003      	beq.n	800e3ea <__swsetup_r+0x9a>
 800e3e2:	4621      	mov	r1, r4
 800e3e4:	4630      	mov	r0, r6
 800e3e6:	f000 f84d 	bl	800e484 <__smakebuf_r>
 800e3ea:	89a0      	ldrh	r0, [r4, #12]
 800e3ec:	f9b4 200c 	ldrsh.w	r2, [r4, #12]
 800e3f0:	f010 0301 	ands.w	r3, r0, #1
 800e3f4:	d00a      	beq.n	800e40c <__swsetup_r+0xbc>
 800e3f6:	2300      	movs	r3, #0
 800e3f8:	60a3      	str	r3, [r4, #8]
 800e3fa:	6963      	ldr	r3, [r4, #20]
 800e3fc:	425b      	negs	r3, r3
 800e3fe:	61a3      	str	r3, [r4, #24]
 800e400:	6923      	ldr	r3, [r4, #16]
 800e402:	b943      	cbnz	r3, 800e416 <__swsetup_r+0xc6>
 800e404:	f010 0080 	ands.w	r0, r0, #128	; 0x80
 800e408:	d1ba      	bne.n	800e380 <__swsetup_r+0x30>
 800e40a:	bd70      	pop	{r4, r5, r6, pc}
 800e40c:	0781      	lsls	r1, r0, #30
 800e40e:	bf58      	it	pl
 800e410:	6963      	ldrpl	r3, [r4, #20]
 800e412:	60a3      	str	r3, [r4, #8]
 800e414:	e7f4      	b.n	800e400 <__swsetup_r+0xb0>
 800e416:	2000      	movs	r0, #0
 800e418:	e7f7      	b.n	800e40a <__swsetup_r+0xba>
 800e41a:	bf00      	nop
 800e41c:	20000040 	.word	0x20000040
 800e420:	0800fe50 	.word	0x0800fe50
 800e424:	0800fe70 	.word	0x0800fe70
 800e428:	0800fe30 	.word	0x0800fe30

0800e42c <abort>:
 800e42c:	b508      	push	{r3, lr}
 800e42e:	2006      	movs	r0, #6
 800e430:	f000 f898 	bl	800e564 <raise>
 800e434:	2001      	movs	r0, #1
 800e436:	f7f5 fbb1 	bl	8003b9c <_exit>

0800e43a <__swhatbuf_r>:
 800e43a:	b570      	push	{r4, r5, r6, lr}
 800e43c:	460e      	mov	r6, r1
 800e43e:	f9b1 100e 	ldrsh.w	r1, [r1, #14]
 800e442:	2900      	cmp	r1, #0
 800e444:	b096      	sub	sp, #88	; 0x58
 800e446:	4614      	mov	r4, r2
 800e448:	461d      	mov	r5, r3
 800e44a:	da07      	bge.n	800e45c <__swhatbuf_r+0x22>
 800e44c:	2300      	movs	r3, #0
 800e44e:	602b      	str	r3, [r5, #0]
 800e450:	89b3      	ldrh	r3, [r6, #12]
 800e452:	061a      	lsls	r2, r3, #24
 800e454:	d410      	bmi.n	800e478 <__swhatbuf_r+0x3e>
 800e456:	f44f 6380 	mov.w	r3, #1024	; 0x400
 800e45a:	e00e      	b.n	800e47a <__swhatbuf_r+0x40>
 800e45c:	466a      	mov	r2, sp
 800e45e:	f000 f89d 	bl	800e59c <_fstat_r>
 800e462:	2800      	cmp	r0, #0
 800e464:	dbf2      	blt.n	800e44c <__swhatbuf_r+0x12>
 800e466:	9a01      	ldr	r2, [sp, #4]
 800e468:	f402 4270 	and.w	r2, r2, #61440	; 0xf000
 800e46c:	f5a2 5300 	sub.w	r3, r2, #8192	; 0x2000
 800e470:	425a      	negs	r2, r3
 800e472:	415a      	adcs	r2, r3
 800e474:	602a      	str	r2, [r5, #0]
 800e476:	e7ee      	b.n	800e456 <__swhatbuf_r+0x1c>
 800e478:	2340      	movs	r3, #64	; 0x40
 800e47a:	2000      	movs	r0, #0
 800e47c:	6023      	str	r3, [r4, #0]
 800e47e:	b016      	add	sp, #88	; 0x58
 800e480:	bd70      	pop	{r4, r5, r6, pc}
	...

0800e484 <__smakebuf_r>:
 800e484:	898b      	ldrh	r3, [r1, #12]
 800e486:	b573      	push	{r0, r1, r4, r5, r6, lr}
 800e488:	079d      	lsls	r5, r3, #30
 800e48a:	4606      	mov	r6, r0
 800e48c:	460c      	mov	r4, r1
 800e48e:	d507      	bpl.n	800e4a0 <__smakebuf_r+0x1c>
 800e490:	f104 0347 	add.w	r3, r4, #71	; 0x47
 800e494:	6023      	str	r3, [r4, #0]
 800e496:	6123      	str	r3, [r4, #16]
 800e498:	2301      	movs	r3, #1
 800e49a:	6163      	str	r3, [r4, #20]
 800e49c:	b002      	add	sp, #8
 800e49e:	bd70      	pop	{r4, r5, r6, pc}
 800e4a0:	ab01      	add	r3, sp, #4
 800e4a2:	466a      	mov	r2, sp
 800e4a4:	f7ff ffc9 	bl	800e43a <__swhatbuf_r>
 800e4a8:	9900      	ldr	r1, [sp, #0]
 800e4aa:	4605      	mov	r5, r0
 800e4ac:	4630      	mov	r0, r6
 800e4ae:	f7fb fd0d 	bl	8009ecc <_malloc_r>
 800e4b2:	b948      	cbnz	r0, 800e4c8 <__smakebuf_r+0x44>
 800e4b4:	f9b4 300c 	ldrsh.w	r3, [r4, #12]
 800e4b8:	059a      	lsls	r2, r3, #22
 800e4ba:	d4ef      	bmi.n	800e49c <__smakebuf_r+0x18>
 800e4bc:	f023 0303 	bic.w	r3, r3, #3
 800e4c0:	f043 0302 	orr.w	r3, r3, #2
 800e4c4:	81a3      	strh	r3, [r4, #12]
 800e4c6:	e7e3      	b.n	800e490 <__smakebuf_r+0xc>
 800e4c8:	4b0d      	ldr	r3, [pc, #52]	; (800e500 <__smakebuf_r+0x7c>)
 800e4ca:	62b3      	str	r3, [r6, #40]	; 0x28
 800e4cc:	89a3      	ldrh	r3, [r4, #12]
 800e4ce:	6020      	str	r0, [r4, #0]
 800e4d0:	f043 0380 	orr.w	r3, r3, #128	; 0x80
 800e4d4:	81a3      	strh	r3, [r4, #12]
 800e4d6:	9b00      	ldr	r3, [sp, #0]
 800e4d8:	6163      	str	r3, [r4, #20]
 800e4da:	9b01      	ldr	r3, [sp, #4]
 800e4dc:	6120      	str	r0, [r4, #16]
 800e4de:	b15b      	cbz	r3, 800e4f8 <__smakebuf_r+0x74>
 800e4e0:	f9b4 100e 	ldrsh.w	r1, [r4, #14]
 800e4e4:	4630      	mov	r0, r6
 800e4e6:	f000 f86b 	bl	800e5c0 <_isatty_r>
 800e4ea:	b128      	cbz	r0, 800e4f8 <__smakebuf_r+0x74>
 800e4ec:	89a3      	ldrh	r3, [r4, #12]
 800e4ee:	f023 0303 	bic.w	r3, r3, #3
 800e4f2:	f043 0301 	orr.w	r3, r3, #1
 800e4f6:	81a3      	strh	r3, [r4, #12]
 800e4f8:	89a0      	ldrh	r0, [r4, #12]
 800e4fa:	4305      	orrs	r5, r0
 800e4fc:	81a5      	strh	r5, [r4, #12]
 800e4fe:	e7cd      	b.n	800e49c <__smakebuf_r+0x18>
 800e500:	08009cad 	.word	0x08009cad

0800e504 <_malloc_usable_size_r>:
 800e504:	f851 3c04 	ldr.w	r3, [r1, #-4]
 800e508:	1f18      	subs	r0, r3, #4
 800e50a:	2b00      	cmp	r3, #0
 800e50c:	bfbc      	itt	lt
 800e50e:	580b      	ldrlt	r3, [r1, r0]
 800e510:	18c0      	addlt	r0, r0, r3
 800e512:	4770      	bx	lr

0800e514 <_raise_r>:
 800e514:	291f      	cmp	r1, #31
 800e516:	b538      	push	{r3, r4, r5, lr}
 800e518:	4604      	mov	r4, r0
 800e51a:	460d      	mov	r5, r1
 800e51c:	d904      	bls.n	800e528 <_raise_r+0x14>
 800e51e:	2316      	movs	r3, #22
 800e520:	6003      	str	r3, [r0, #0]
 800e522:	f04f 30ff 	mov.w	r0, #4294967295
 800e526:	bd38      	pop	{r3, r4, r5, pc}
 800e528:	6c42      	ldr	r2, [r0, #68]	; 0x44
 800e52a:	b112      	cbz	r2, 800e532 <_raise_r+0x1e>
 800e52c:	f852 3021 	ldr.w	r3, [r2, r1, lsl #2]
 800e530:	b94b      	cbnz	r3, 800e546 <_raise_r+0x32>
 800e532:	4620      	mov	r0, r4
 800e534:	f000 f830 	bl	800e598 <_getpid_r>
 800e538:	462a      	mov	r2, r5
 800e53a:	4601      	mov	r1, r0
 800e53c:	4620      	mov	r0, r4
 800e53e:	e8bd 4038 	ldmia.w	sp!, {r3, r4, r5, lr}
 800e542:	f000 b817 	b.w	800e574 <_kill_r>
 800e546:	2b01      	cmp	r3, #1
 800e548:	d00a      	beq.n	800e560 <_raise_r+0x4c>
 800e54a:	1c59      	adds	r1, r3, #1
 800e54c:	d103      	bne.n	800e556 <_raise_r+0x42>
 800e54e:	2316      	movs	r3, #22
 800e550:	6003      	str	r3, [r0, #0]
 800e552:	2001      	movs	r0, #1
 800e554:	e7e7      	b.n	800e526 <_raise_r+0x12>
 800e556:	2400      	movs	r4, #0
 800e558:	f842 4025 	str.w	r4, [r2, r5, lsl #2]
 800e55c:	4628      	mov	r0, r5
 800e55e:	4798      	blx	r3
 800e560:	2000      	movs	r0, #0
 800e562:	e7e0      	b.n	800e526 <_raise_r+0x12>

0800e564 <raise>:
 800e564:	4b02      	ldr	r3, [pc, #8]	; (800e570 <raise+0xc>)
 800e566:	4601      	mov	r1, r0
 800e568:	6818      	ldr	r0, [r3, #0]
 800e56a:	f7ff bfd3 	b.w	800e514 <_raise_r>
 800e56e:	bf00      	nop
 800e570:	20000040 	.word	0x20000040

0800e574 <_kill_r>:
 800e574:	b538      	push	{r3, r4, r5, lr}
 800e576:	4d07      	ldr	r5, [pc, #28]	; (800e594 <_kill_r+0x20>)
 800e578:	2300      	movs	r3, #0
 800e57a:	4604      	mov	r4, r0
 800e57c:	4608      	mov	r0, r1
 800e57e:	4611      	mov	r1, r2
 800e580:	602b      	str	r3, [r5, #0]
 800e582:	f7f5 fb03 	bl	8003b8c <_kill>
 800e586:	1c43      	adds	r3, r0, #1
 800e588:	d102      	bne.n	800e590 <_kill_r+0x1c>
 800e58a:	682b      	ldr	r3, [r5, #0]
 800e58c:	b103      	cbz	r3, 800e590 <_kill_r+0x1c>
 800e58e:	6023      	str	r3, [r4, #0]
 800e590:	bd38      	pop	{r3, r4, r5, pc}
 800e592:	bf00      	nop
 800e594:	20006354 	.word	0x20006354

0800e598 <_getpid_r>:
 800e598:	f7f5 baf6 	b.w	8003b88 <_getpid>

0800e59c <_fstat_r>:
 800e59c:	b538      	push	{r3, r4, r5, lr}
 800e59e:	4d07      	ldr	r5, [pc, #28]	; (800e5bc <_fstat_r+0x20>)
 800e5a0:	2300      	movs	r3, #0
 800e5a2:	4604      	mov	r4, r0
 800e5a4:	4608      	mov	r0, r1
 800e5a6:	4611      	mov	r1, r2
 800e5a8:	602b      	str	r3, [r5, #0]
 800e5aa:	f7f5 fb1d 	bl	8003be8 <_fstat>
 800e5ae:	1c43      	adds	r3, r0, #1
 800e5b0:	d102      	bne.n	800e5b8 <_fstat_r+0x1c>
 800e5b2:	682b      	ldr	r3, [r5, #0]
 800e5b4:	b103      	cbz	r3, 800e5b8 <_fstat_r+0x1c>
 800e5b6:	6023      	str	r3, [r4, #0]
 800e5b8:	bd38      	pop	{r3, r4, r5, pc}
 800e5ba:	bf00      	nop
 800e5bc:	20006354 	.word	0x20006354

0800e5c0 <_isatty_r>:
 800e5c0:	b538      	push	{r3, r4, r5, lr}
 800e5c2:	4d06      	ldr	r5, [pc, #24]	; (800e5dc <_isatty_r+0x1c>)
 800e5c4:	2300      	movs	r3, #0
 800e5c6:	4604      	mov	r4, r0
 800e5c8:	4608      	mov	r0, r1
 800e5ca:	602b      	str	r3, [r5, #0]
 800e5cc:	f7f5 fb12 	bl	8003bf4 <_isatty>
 800e5d0:	1c43      	adds	r3, r0, #1
 800e5d2:	d102      	bne.n	800e5da <_isatty_r+0x1a>
 800e5d4:	682b      	ldr	r3, [r5, #0]
 800e5d6:	b103      	cbz	r3, 800e5da <_isatty_r+0x1a>
 800e5d8:	6023      	str	r3, [r4, #0]
 800e5da:	bd38      	pop	{r3, r4, r5, pc}
 800e5dc:	20006354 	.word	0x20006354

0800e5e0 <pow>:
 800e5e0:	e92d 43f8 	stmdb	sp!, {r3, r4, r5, r6, r7, r8, r9, lr}
 800e5e4:	ec59 8b10 	vmov	r8, r9, d0
 800e5e8:	ec57 6b11 	vmov	r6, r7, d1
 800e5ec:	f000 f8a8 	bl	800e740 <__ieee754_pow>
 800e5f0:	4b4e      	ldr	r3, [pc, #312]	; (800e72c <pow+0x14c>)
 800e5f2:	f993 3000 	ldrsb.w	r3, [r3]
 800e5f6:	3301      	adds	r3, #1
 800e5f8:	ec55 4b10 	vmov	r4, r5, d0
 800e5fc:	d015      	beq.n	800e62a <pow+0x4a>
 800e5fe:	4632      	mov	r2, r6
 800e600:	463b      	mov	r3, r7
 800e602:	4630      	mov	r0, r6
 800e604:	4639      	mov	r1, r7
 800e606:	f7f2 fa91 	bl	8000b2c <__aeabi_dcmpun>
 800e60a:	b970      	cbnz	r0, 800e62a <pow+0x4a>
 800e60c:	4642      	mov	r2, r8
 800e60e:	464b      	mov	r3, r9
 800e610:	4640      	mov	r0, r8
 800e612:	4649      	mov	r1, r9
 800e614:	f7f2 fa8a 	bl	8000b2c <__aeabi_dcmpun>
 800e618:	2200      	movs	r2, #0
 800e61a:	2300      	movs	r3, #0
 800e61c:	b148      	cbz	r0, 800e632 <pow+0x52>
 800e61e:	4630      	mov	r0, r6
 800e620:	4639      	mov	r1, r7
 800e622:	f7f2 fa51 	bl	8000ac8 <__aeabi_dcmpeq>
 800e626:	2800      	cmp	r0, #0
 800e628:	d17d      	bne.n	800e726 <pow+0x146>
 800e62a:	ec45 4b10 	vmov	d0, r4, r5
 800e62e:	e8bd 83f8 	ldmia.w	sp!, {r3, r4, r5, r6, r7, r8, r9, pc}
 800e632:	4640      	mov	r0, r8
 800e634:	4649      	mov	r1, r9
 800e636:	f7f2 fa47 	bl	8000ac8 <__aeabi_dcmpeq>
 800e63a:	b1e0      	cbz	r0, 800e676 <pow+0x96>
 800e63c:	2200      	movs	r2, #0
 800e63e:	2300      	movs	r3, #0
 800e640:	4630      	mov	r0, r6
 800e642:	4639      	mov	r1, r7
 800e644:	f7f2 fa40 	bl	8000ac8 <__aeabi_dcmpeq>
 800e648:	2800      	cmp	r0, #0
 800e64a:	d16c      	bne.n	800e726 <pow+0x146>
 800e64c:	ec47 6b10 	vmov	d0, r6, r7
 800e650:	f000 fe55 	bl	800f2fe <finite>
 800e654:	2800      	cmp	r0, #0
 800e656:	d0e8      	beq.n	800e62a <pow+0x4a>
 800e658:	2200      	movs	r2, #0
 800e65a:	2300      	movs	r3, #0
 800e65c:	4630      	mov	r0, r6
 800e65e:	4639      	mov	r1, r7
 800e660:	f7f2 fa3c 	bl	8000adc <__aeabi_dcmplt>
 800e664:	2800      	cmp	r0, #0
 800e666:	d0e0      	beq.n	800e62a <pow+0x4a>
 800e668:	f7fb faf6 	bl	8009c58 <__errno>
 800e66c:	2321      	movs	r3, #33	; 0x21
 800e66e:	6003      	str	r3, [r0, #0]
 800e670:	2400      	movs	r4, #0
 800e672:	4d2f      	ldr	r5, [pc, #188]	; (800e730 <pow+0x150>)
 800e674:	e7d9      	b.n	800e62a <pow+0x4a>
 800e676:	ec45 4b10 	vmov	d0, r4, r5
 800e67a:	f000 fe40 	bl	800f2fe <finite>
 800e67e:	bbb8      	cbnz	r0, 800e6f0 <pow+0x110>
 800e680:	ec49 8b10 	vmov	d0, r8, r9
 800e684:	f000 fe3b 	bl	800f2fe <finite>
 800e688:	b390      	cbz	r0, 800e6f0 <pow+0x110>
 800e68a:	ec47 6b10 	vmov	d0, r6, r7
 800e68e:	f000 fe36 	bl	800f2fe <finite>
 800e692:	b368      	cbz	r0, 800e6f0 <pow+0x110>
 800e694:	4622      	mov	r2, r4
 800e696:	462b      	mov	r3, r5
 800e698:	4620      	mov	r0, r4
 800e69a:	4629      	mov	r1, r5
 800e69c:	f7f2 fa46 	bl	8000b2c <__aeabi_dcmpun>
 800e6a0:	b160      	cbz	r0, 800e6bc <pow+0xdc>
 800e6a2:	f7fb fad9 	bl	8009c58 <__errno>
 800e6a6:	2321      	movs	r3, #33	; 0x21
 800e6a8:	6003      	str	r3, [r0, #0]
 800e6aa:	2200      	movs	r2, #0
 800e6ac:	2300      	movs	r3, #0
 800e6ae:	4610      	mov	r0, r2
 800e6b0:	4619      	mov	r1, r3
 800e6b2:	f7f2 f8cb 	bl	800084c <__aeabi_ddiv>
 800e6b6:	4604      	mov	r4, r0
 800e6b8:	460d      	mov	r5, r1
 800e6ba:	e7b6      	b.n	800e62a <pow+0x4a>
 800e6bc:	f7fb facc 	bl	8009c58 <__errno>
 800e6c0:	2322      	movs	r3, #34	; 0x22
 800e6c2:	6003      	str	r3, [r0, #0]
 800e6c4:	2200      	movs	r2, #0
 800e6c6:	2300      	movs	r3, #0
 800e6c8:	4640      	mov	r0, r8
 800e6ca:	4649      	mov	r1, r9
 800e6cc:	f7f2 fa06 	bl	8000adc <__aeabi_dcmplt>
 800e6d0:	2400      	movs	r4, #0
 800e6d2:	b158      	cbz	r0, 800e6ec <pow+0x10c>
 800e6d4:	ec47 6b10 	vmov	d0, r6, r7
 800e6d8:	f000 fe1c 	bl	800f314 <rint>
 800e6dc:	4632      	mov	r2, r6
 800e6de:	ec51 0b10 	vmov	r0, r1, d0
 800e6e2:	463b      	mov	r3, r7
 800e6e4:	f7f2 f9f0 	bl	8000ac8 <__aeabi_dcmpeq>
 800e6e8:	2800      	cmp	r0, #0
 800e6ea:	d0c2      	beq.n	800e672 <pow+0x92>
 800e6ec:	4d11      	ldr	r5, [pc, #68]	; (800e734 <pow+0x154>)
 800e6ee:	e79c      	b.n	800e62a <pow+0x4a>
 800e6f0:	2200      	movs	r2, #0
 800e6f2:	2300      	movs	r3, #0
 800e6f4:	4620      	mov	r0, r4
 800e6f6:	4629      	mov	r1, r5
 800e6f8:	f7f2 f9e6 	bl	8000ac8 <__aeabi_dcmpeq>
 800e6fc:	2800      	cmp	r0, #0
 800e6fe:	d094      	beq.n	800e62a <pow+0x4a>
 800e700:	ec49 8b10 	vmov	d0, r8, r9
 800e704:	f000 fdfb 	bl	800f2fe <finite>
 800e708:	2800      	cmp	r0, #0
 800e70a:	d08e      	beq.n	800e62a <pow+0x4a>
 800e70c:	ec47 6b10 	vmov	d0, r6, r7
 800e710:	f000 fdf5 	bl	800f2fe <finite>
 800e714:	2800      	cmp	r0, #0
 800e716:	d088      	beq.n	800e62a <pow+0x4a>
 800e718:	f7fb fa9e 	bl	8009c58 <__errno>
 800e71c:	2322      	movs	r3, #34	; 0x22
 800e71e:	6003      	str	r3, [r0, #0]
 800e720:	2400      	movs	r4, #0
 800e722:	2500      	movs	r5, #0
 800e724:	e781      	b.n	800e62a <pow+0x4a>
 800e726:	4d04      	ldr	r5, [pc, #16]	; (800e738 <pow+0x158>)
 800e728:	2400      	movs	r4, #0
 800e72a:	e77e      	b.n	800e62a <pow+0x4a>
 800e72c:	20000214 	.word	0x20000214
 800e730:	fff00000 	.word	0xfff00000
 800e734:	7ff00000 	.word	0x7ff00000
 800e738:	3ff00000 	.word	0x3ff00000
 800e73c:	00000000 	.word	0x00000000

0800e740 <__ieee754_pow>:
 800e740:	e92d 4ff0 	stmdb	sp!, {r4, r5, r6, r7, r8, r9, sl, fp, lr}
 800e744:	ed2d 8b06 	vpush	{d8-d10}
 800e748:	b08d      	sub	sp, #52	; 0x34
 800e74a:	ed8d 1b02 	vstr	d1, [sp, #8]
 800e74e:	e9dd 0702 	ldrd	r0, r7, [sp, #8]
 800e752:	f027 4600 	bic.w	r6, r7, #2147483648	; 0x80000000
 800e756:	ea56 0100 	orrs.w	r1, r6, r0
 800e75a:	ec53 2b10 	vmov	r2, r3, d0
 800e75e:	f000 84d1 	beq.w	800f104 <__ieee754_pow+0x9c4>
 800e762:	497f      	ldr	r1, [pc, #508]	; (800e960 <__ieee754_pow+0x220>)
 800e764:	f023 4400 	bic.w	r4, r3, #2147483648	; 0x80000000
 800e768:	428c      	cmp	r4, r1
 800e76a:	ee10 8a10 	vmov	r8, s0
 800e76e:	4699      	mov	r9, r3
 800e770:	dc09      	bgt.n	800e786 <__ieee754_pow+0x46>
 800e772:	d103      	bne.n	800e77c <__ieee754_pow+0x3c>
 800e774:	b97a      	cbnz	r2, 800e796 <__ieee754_pow+0x56>
 800e776:	42a6      	cmp	r6, r4
 800e778:	dd02      	ble.n	800e780 <__ieee754_pow+0x40>
 800e77a:	e00c      	b.n	800e796 <__ieee754_pow+0x56>
 800e77c:	428e      	cmp	r6, r1
 800e77e:	dc02      	bgt.n	800e786 <__ieee754_pow+0x46>
 800e780:	428e      	cmp	r6, r1
 800e782:	d110      	bne.n	800e7a6 <__ieee754_pow+0x66>
 800e784:	b178      	cbz	r0, 800e7a6 <__ieee754_pow+0x66>
 800e786:	f104 4440 	add.w	r4, r4, #3221225472	; 0xc0000000
 800e78a:	f504 1480 	add.w	r4, r4, #1048576	; 0x100000
 800e78e:	ea54 0308 	orrs.w	r3, r4, r8
 800e792:	f000 84b7 	beq.w	800f104 <__ieee754_pow+0x9c4>
 800e796:	4873      	ldr	r0, [pc, #460]	; (800e964 <__ieee754_pow+0x224>)
 800e798:	b00d      	add	sp, #52	; 0x34
 800e79a:	ecbd 8b06 	vpop	{d8-d10}
 800e79e:	e8bd 4ff0 	ldmia.w	sp!, {r4, r5, r6, r7, r8, r9, sl, fp, lr}
 800e7a2:	f7ff bb91 	b.w	800dec8 <nan>
 800e7a6:	f1b9 0f00 	cmp.w	r9, #0
 800e7aa:	da36      	bge.n	800e81a <__ieee754_pow+0xda>
 800e7ac:	496e      	ldr	r1, [pc, #440]	; (800e968 <__ieee754_pow+0x228>)
 800e7ae:	428e      	cmp	r6, r1
 800e7b0:	dc51      	bgt.n	800e856 <__ieee754_pow+0x116>
 800e7b2:	f1a1 7154 	sub.w	r1, r1, #55574528	; 0x3500000
 800e7b6:	428e      	cmp	r6, r1
 800e7b8:	f340 84af 	ble.w	800f11a <__ieee754_pow+0x9da>
 800e7bc:	1531      	asrs	r1, r6, #20
 800e7be:	f2a1 31ff 	subw	r1, r1, #1023	; 0x3ff
 800e7c2:	2914      	cmp	r1, #20
 800e7c4:	dd0f      	ble.n	800e7e6 <__ieee754_pow+0xa6>
 800e7c6:	f1c1 0134 	rsb	r1, r1, #52	; 0x34
 800e7ca:	fa20 fc01 	lsr.w	ip, r0, r1
 800e7ce:	fa0c f101 	lsl.w	r1, ip, r1
 800e7d2:	4281      	cmp	r1, r0
 800e7d4:	f040 84a1 	bne.w	800f11a <__ieee754_pow+0x9da>
 800e7d8:	f00c 0c01 	and.w	ip, ip, #1
 800e7dc:	f1cc 0102 	rsb	r1, ip, #2
 800e7e0:	9100      	str	r1, [sp, #0]
 800e7e2:	b180      	cbz	r0, 800e806 <__ieee754_pow+0xc6>
 800e7e4:	e059      	b.n	800e89a <__ieee754_pow+0x15a>
 800e7e6:	2800      	cmp	r0, #0
 800e7e8:	d155      	bne.n	800e896 <__ieee754_pow+0x156>
 800e7ea:	f1c1 0114 	rsb	r1, r1, #20
 800e7ee:	fa46 fc01 	asr.w	ip, r6, r1
 800e7f2:	fa0c f101 	lsl.w	r1, ip, r1
 800e7f6:	42b1      	cmp	r1, r6
 800e7f8:	f040 848c 	bne.w	800f114 <__ieee754_pow+0x9d4>
 800e7fc:	f00c 0c01 	and.w	ip, ip, #1
 800e800:	f1cc 0102 	rsb	r1, ip, #2
 800e804:	9100      	str	r1, [sp, #0]
 800e806:	4959      	ldr	r1, [pc, #356]	; (800e96c <__ieee754_pow+0x22c>)
 800e808:	428e      	cmp	r6, r1
 800e80a:	d12d      	bne.n	800e868 <__ieee754_pow+0x128>
 800e80c:	2f00      	cmp	r7, #0
 800e80e:	da79      	bge.n	800e904 <__ieee754_pow+0x1c4>
 800e810:	4956      	ldr	r1, [pc, #344]	; (800e96c <__ieee754_pow+0x22c>)
 800e812:	2000      	movs	r0, #0
 800e814:	f7f2 f81a 	bl	800084c <__aeabi_ddiv>
 800e818:	e016      	b.n	800e848 <__ieee754_pow+0x108>
 800e81a:	2100      	movs	r1, #0
 800e81c:	9100      	str	r1, [sp, #0]
 800e81e:	2800      	cmp	r0, #0
 800e820:	d13b      	bne.n	800e89a <__ieee754_pow+0x15a>
 800e822:	494f      	ldr	r1, [pc, #316]	; (800e960 <__ieee754_pow+0x220>)
 800e824:	428e      	cmp	r6, r1
 800e826:	d1ee      	bne.n	800e806 <__ieee754_pow+0xc6>
 800e828:	f104 4340 	add.w	r3, r4, #3221225472	; 0xc0000000
 800e82c:	f503 1380 	add.w	r3, r3, #1048576	; 0x100000
 800e830:	ea53 0308 	orrs.w	r3, r3, r8
 800e834:	f000 8466 	beq.w	800f104 <__ieee754_pow+0x9c4>
 800e838:	4b4d      	ldr	r3, [pc, #308]	; (800e970 <__ieee754_pow+0x230>)
 800e83a:	429c      	cmp	r4, r3
 800e83c:	dd0d      	ble.n	800e85a <__ieee754_pow+0x11a>
 800e83e:	2f00      	cmp	r7, #0
 800e840:	f280 8464 	bge.w	800f10c <__ieee754_pow+0x9cc>
 800e844:	2000      	movs	r0, #0
 800e846:	2100      	movs	r1, #0
 800e848:	ec41 0b10 	vmov	d0, r0, r1
 800e84c:	b00d      	add	sp, #52	; 0x34
 800e84e:	ecbd 8b06 	vpop	{d8-d10}
 800e852:	e8bd 8ff0 	ldmia.w	sp!, {r4, r5, r6, r7, r8, r9, sl, fp, pc}
 800e856:	2102      	movs	r1, #2
 800e858:	e7e0      	b.n	800e81c <__ieee754_pow+0xdc>
 800e85a:	2f00      	cmp	r7, #0
 800e85c:	daf2      	bge.n	800e844 <__ieee754_pow+0x104>
 800e85e:	e9dd 0302 	ldrd	r0, r3, [sp, #8]
 800e862:	f103 4100 	add.w	r1, r3, #2147483648	; 0x80000000
 800e866:	e7ef      	b.n	800e848 <__ieee754_pow+0x108>
 800e868:	f1b7 4f80 	cmp.w	r7, #1073741824	; 0x40000000
 800e86c:	d104      	bne.n	800e878 <__ieee754_pow+0x138>
 800e86e:	4610      	mov	r0, r2
 800e870:	4619      	mov	r1, r3
 800e872:	f7f1 fec1 	bl	80005f8 <__aeabi_dmul>
 800e876:	e7e7      	b.n	800e848 <__ieee754_pow+0x108>
 800e878:	493e      	ldr	r1, [pc, #248]	; (800e974 <__ieee754_pow+0x234>)
 800e87a:	428f      	cmp	r7, r1
 800e87c:	d10d      	bne.n	800e89a <__ieee754_pow+0x15a>
 800e87e:	f1b9 0f00 	cmp.w	r9, #0
 800e882:	db0a      	blt.n	800e89a <__ieee754_pow+0x15a>
 800e884:	ec43 2b10 	vmov	d0, r2, r3
 800e888:	b00d      	add	sp, #52	; 0x34
 800e88a:	ecbd 8b06 	vpop	{d8-d10}
 800e88e:	e8bd 4ff0 	ldmia.w	sp!, {r4, r5, r6, r7, r8, r9, sl, fp, lr}
 800e892:	f000 bc77 	b.w	800f184 <__ieee754_sqrt>
 800e896:	2100      	movs	r1, #0
 800e898:	9100      	str	r1, [sp, #0]
 800e89a:	ec43 2b10 	vmov	d0, r2, r3
 800e89e:	e9cd 2304 	strd	r2, r3, [sp, #16]
 800e8a2:	f000 fd23 	bl	800f2ec <fabs>
 800e8a6:	e9dd 2304 	ldrd	r2, r3, [sp, #16]
 800e8aa:	ec51 0b10 	vmov	r0, r1, d0
 800e8ae:	f1b8 0f00 	cmp.w	r8, #0
 800e8b2:	d12a      	bne.n	800e90a <__ieee754_pow+0x1ca>
 800e8b4:	b12c      	cbz	r4, 800e8c2 <__ieee754_pow+0x182>
 800e8b6:	f8df c0b4 	ldr.w	ip, [pc, #180]	; 800e96c <__ieee754_pow+0x22c>
 800e8ba:	f029 4e40 	bic.w	lr, r9, #3221225472	; 0xc0000000
 800e8be:	45e6      	cmp	lr, ip
 800e8c0:	d123      	bne.n	800e90a <__ieee754_pow+0x1ca>
 800e8c2:	2f00      	cmp	r7, #0
 800e8c4:	da05      	bge.n	800e8d2 <__ieee754_pow+0x192>
 800e8c6:	4602      	mov	r2, r0
 800e8c8:	460b      	mov	r3, r1
 800e8ca:	2000      	movs	r0, #0
 800e8cc:	4927      	ldr	r1, [pc, #156]	; (800e96c <__ieee754_pow+0x22c>)
 800e8ce:	f7f1 ffbd 	bl	800084c <__aeabi_ddiv>
 800e8d2:	f1b9 0f00 	cmp.w	r9, #0
 800e8d6:	dab7      	bge.n	800e848 <__ieee754_pow+0x108>
 800e8d8:	9b00      	ldr	r3, [sp, #0]
 800e8da:	f104 4440 	add.w	r4, r4, #3221225472	; 0xc0000000
 800e8de:	f504 1480 	add.w	r4, r4, #1048576	; 0x100000
 800e8e2:	4323      	orrs	r3, r4
 800e8e4:	d108      	bne.n	800e8f8 <__ieee754_pow+0x1b8>
 800e8e6:	4602      	mov	r2, r0
 800e8e8:	460b      	mov	r3, r1
 800e8ea:	4610      	mov	r0, r2
 800e8ec:	4619      	mov	r1, r3
 800e8ee:	f7f1 fccb 	bl	8000288 <__aeabi_dsub>
 800e8f2:	4602      	mov	r2, r0
 800e8f4:	460b      	mov	r3, r1
 800e8f6:	e78d      	b.n	800e814 <__ieee754_pow+0xd4>
 800e8f8:	9b00      	ldr	r3, [sp, #0]
 800e8fa:	2b01      	cmp	r3, #1
 800e8fc:	d1a4      	bne.n	800e848 <__ieee754_pow+0x108>
 800e8fe:	4602      	mov	r2, r0
 800e900:	f101 4300 	add.w	r3, r1, #2147483648	; 0x80000000
 800e904:	4610      	mov	r0, r2
 800e906:	4619      	mov	r1, r3
 800e908:	e79e      	b.n	800e848 <__ieee754_pow+0x108>
 800e90a:	ea4f 7cd9 	mov.w	ip, r9, lsr #31
 800e90e:	f10c 35ff 	add.w	r5, ip, #4294967295
 800e912:	950a      	str	r5, [sp, #40]	; 0x28
 800e914:	9d00      	ldr	r5, [sp, #0]
 800e916:	46ac      	mov	ip, r5
 800e918:	9d0a      	ldr	r5, [sp, #40]	; 0x28
 800e91a:	ea5c 0505 	orrs.w	r5, ip, r5
 800e91e:	d0e4      	beq.n	800e8ea <__ieee754_pow+0x1aa>
 800e920:	4b15      	ldr	r3, [pc, #84]	; (800e978 <__ieee754_pow+0x238>)
 800e922:	429e      	cmp	r6, r3
 800e924:	f340 80fc 	ble.w	800eb20 <__ieee754_pow+0x3e0>
 800e928:	f103 7304 	add.w	r3, r3, #34603008	; 0x2100000
 800e92c:	429e      	cmp	r6, r3
 800e92e:	4b10      	ldr	r3, [pc, #64]	; (800e970 <__ieee754_pow+0x230>)
 800e930:	dd07      	ble.n	800e942 <__ieee754_pow+0x202>
 800e932:	429c      	cmp	r4, r3
 800e934:	dc0a      	bgt.n	800e94c <__ieee754_pow+0x20c>
 800e936:	2f00      	cmp	r7, #0
 800e938:	da84      	bge.n	800e844 <__ieee754_pow+0x104>
 800e93a:	a307      	add	r3, pc, #28	; (adr r3, 800e958 <__ieee754_pow+0x218>)
 800e93c:	e9d3 2300 	ldrd	r2, r3, [r3]
 800e940:	e795      	b.n	800e86e <__ieee754_pow+0x12e>
 800e942:	429c      	cmp	r4, r3
 800e944:	dbf7      	blt.n	800e936 <__ieee754_pow+0x1f6>
 800e946:	4b09      	ldr	r3, [pc, #36]	; (800e96c <__ieee754_pow+0x22c>)
 800e948:	429c      	cmp	r4, r3
 800e94a:	dd17      	ble.n	800e97c <__ieee754_pow+0x23c>
 800e94c:	2f00      	cmp	r7, #0
 800e94e:	dcf4      	bgt.n	800e93a <__ieee754_pow+0x1fa>
 800e950:	e778      	b.n	800e844 <__ieee754_pow+0x104>
 800e952:	bf00      	nop
 800e954:	f3af 8000 	nop.w
 800e958:	8800759c 	.word	0x8800759c
 800e95c:	7e37e43c 	.word	0x7e37e43c
 800e960:	7ff00000 	.word	0x7ff00000
 800e964:	080102e0 	.word	0x080102e0
 800e968:	433fffff 	.word	0x433fffff
 800e96c:	3ff00000 	.word	0x3ff00000
 800e970:	3fefffff 	.word	0x3fefffff
 800e974:	3fe00000 	.word	0x3fe00000
 800e978:	41e00000 	.word	0x41e00000
 800e97c:	4b64      	ldr	r3, [pc, #400]	; (800eb10 <__ieee754_pow+0x3d0>)
 800e97e:	2200      	movs	r2, #0
 800e980:	f7f1 fc82 	bl	8000288 <__aeabi_dsub>
 800e984:	a356      	add	r3, pc, #344	; (adr r3, 800eae0 <__ieee754_pow+0x3a0>)
 800e986:	e9d3 2300 	ldrd	r2, r3, [r3]
 800e98a:	4604      	mov	r4, r0
 800e98c:	460d      	mov	r5, r1
 800e98e:	f7f1 fe33 	bl	80005f8 <__aeabi_dmul>
 800e992:	a355      	add	r3, pc, #340	; (adr r3, 800eae8 <__ieee754_pow+0x3a8>)
 800e994:	e9d3 2300 	ldrd	r2, r3, [r3]
 800e998:	4606      	mov	r6, r0
 800e99a:	460f      	mov	r7, r1
 800e99c:	4620      	mov	r0, r4
 800e99e:	4629      	mov	r1, r5
 800e9a0:	f7f1 fe2a 	bl	80005f8 <__aeabi_dmul>
 800e9a4:	4b5b      	ldr	r3, [pc, #364]	; (800eb14 <__ieee754_pow+0x3d4>)
 800e9a6:	4682      	mov	sl, r0
 800e9a8:	468b      	mov	fp, r1
 800e9aa:	2200      	movs	r2, #0
 800e9ac:	4620      	mov	r0, r4
 800e9ae:	4629      	mov	r1, r5
 800e9b0:	f7f1 fe22 	bl	80005f8 <__aeabi_dmul>
 800e9b4:	4602      	mov	r2, r0
 800e9b6:	460b      	mov	r3, r1
 800e9b8:	a14d      	add	r1, pc, #308	; (adr r1, 800eaf0 <__ieee754_pow+0x3b0>)
 800e9ba:	e9d1 0100 	ldrd	r0, r1, [r1]
 800e9be:	f7f1 fc63 	bl	8000288 <__aeabi_dsub>
 800e9c2:	4622      	mov	r2, r4
 800e9c4:	462b      	mov	r3, r5
 800e9c6:	f7f1 fe17 	bl	80005f8 <__aeabi_dmul>
 800e9ca:	4602      	mov	r2, r0
 800e9cc:	460b      	mov	r3, r1
 800e9ce:	2000      	movs	r0, #0
 800e9d0:	4951      	ldr	r1, [pc, #324]	; (800eb18 <__ieee754_pow+0x3d8>)
 800e9d2:	f7f1 fc59 	bl	8000288 <__aeabi_dsub>
 800e9d6:	4622      	mov	r2, r4
 800e9d8:	4680      	mov	r8, r0
 800e9da:	4689      	mov	r9, r1
 800e9dc:	462b      	mov	r3, r5
 800e9de:	4620      	mov	r0, r4
 800e9e0:	4629      	mov	r1, r5
 800e9e2:	f7f1 fe09 	bl	80005f8 <__aeabi_dmul>
 800e9e6:	4602      	mov	r2, r0
 800e9e8:	460b      	mov	r3, r1
 800e9ea:	4640      	mov	r0, r8
 800e9ec:	4649      	mov	r1, r9
 800e9ee:	f7f1 fe03 	bl	80005f8 <__aeabi_dmul>
 800e9f2:	a341      	add	r3, pc, #260	; (adr r3, 800eaf8 <__ieee754_pow+0x3b8>)
 800e9f4:	e9d3 2300 	ldrd	r2, r3, [r3]
 800e9f8:	f7f1 fdfe 	bl	80005f8 <__aeabi_dmul>
 800e9fc:	4602      	mov	r2, r0
 800e9fe:	460b      	mov	r3, r1
 800ea00:	4650      	mov	r0, sl
 800ea02:	4659      	mov	r1, fp
 800ea04:	f7f1 fc40 	bl	8000288 <__aeabi_dsub>
 800ea08:	4602      	mov	r2, r0
 800ea0a:	460b      	mov	r3, r1
 800ea0c:	4680      	mov	r8, r0
 800ea0e:	4689      	mov	r9, r1
 800ea10:	4630      	mov	r0, r6
 800ea12:	4639      	mov	r1, r7
 800ea14:	f7f1 fc3a 	bl	800028c <__adddf3>
 800ea18:	2400      	movs	r4, #0
 800ea1a:	4632      	mov	r2, r6
 800ea1c:	463b      	mov	r3, r7
 800ea1e:	4620      	mov	r0, r4
 800ea20:	460d      	mov	r5, r1
 800ea22:	f7f1 fc31 	bl	8000288 <__aeabi_dsub>
 800ea26:	4602      	mov	r2, r0
 800ea28:	460b      	mov	r3, r1
 800ea2a:	4640      	mov	r0, r8
 800ea2c:	4649      	mov	r1, r9
 800ea2e:	f7f1 fc2b 	bl	8000288 <__aeabi_dsub>
 800ea32:	9b00      	ldr	r3, [sp, #0]
 800ea34:	9a0a      	ldr	r2, [sp, #40]	; 0x28
 800ea36:	3b01      	subs	r3, #1
 800ea38:	4313      	orrs	r3, r2
 800ea3a:	4682      	mov	sl, r0
 800ea3c:	468b      	mov	fp, r1
 800ea3e:	f040 81f1 	bne.w	800ee24 <__ieee754_pow+0x6e4>
 800ea42:	ed9f 7b2f 	vldr	d7, [pc, #188]	; 800eb00 <__ieee754_pow+0x3c0>
 800ea46:	eeb0 8a47 	vmov.f32	s16, s14
 800ea4a:	eef0 8a67 	vmov.f32	s17, s15
 800ea4e:	e9dd 6702 	ldrd	r6, r7, [sp, #8]
 800ea52:	2600      	movs	r6, #0
 800ea54:	4632      	mov	r2, r6
 800ea56:	463b      	mov	r3, r7
 800ea58:	e9dd 0102 	ldrd	r0, r1, [sp, #8]
 800ea5c:	f7f1 fc14 	bl	8000288 <__aeabi_dsub>
 800ea60:	4622      	mov	r2, r4
 800ea62:	462b      	mov	r3, r5
 800ea64:	f7f1 fdc8 	bl	80005f8 <__aeabi_dmul>
 800ea68:	e9dd 2302 	ldrd	r2, r3, [sp, #8]
 800ea6c:	4680      	mov	r8, r0
 800ea6e:	4689      	mov	r9, r1
 800ea70:	4650      	mov	r0, sl
 800ea72:	4659      	mov	r1, fp
 800ea74:	f7f1 fdc0 	bl	80005f8 <__aeabi_dmul>
 800ea78:	4602      	mov	r2, r0
 800ea7a:	460b      	mov	r3, r1
 800ea7c:	4640      	mov	r0, r8
 800ea7e:	4649      	mov	r1, r9
 800ea80:	f7f1 fc04 	bl	800028c <__adddf3>
 800ea84:	4632      	mov	r2, r6
 800ea86:	463b      	mov	r3, r7
 800ea88:	4680      	mov	r8, r0
 800ea8a:	4689      	mov	r9, r1
 800ea8c:	4620      	mov	r0, r4
 800ea8e:	4629      	mov	r1, r5
 800ea90:	f7f1 fdb2 	bl	80005f8 <__aeabi_dmul>
 800ea94:	460b      	mov	r3, r1
 800ea96:	4604      	mov	r4, r0
 800ea98:	460d      	mov	r5, r1
 800ea9a:	4602      	mov	r2, r0
 800ea9c:	4649      	mov	r1, r9
 800ea9e:	4640      	mov	r0, r8
 800eaa0:	f7f1 fbf4 	bl	800028c <__adddf3>
 800eaa4:	4b1d      	ldr	r3, [pc, #116]	; (800eb1c <__ieee754_pow+0x3dc>)
 800eaa6:	4299      	cmp	r1, r3
 800eaa8:	ec45 4b19 	vmov	d9, r4, r5
 800eaac:	4606      	mov	r6, r0
 800eaae:	460f      	mov	r7, r1
 800eab0:	468b      	mov	fp, r1
 800eab2:	f340 82fe 	ble.w	800f0b2 <__ieee754_pow+0x972>
 800eab6:	f101 433f 	add.w	r3, r1, #3204448256	; 0xbf000000
 800eaba:	f503 03e0 	add.w	r3, r3, #7340032	; 0x700000
 800eabe:	4303      	orrs	r3, r0
 800eac0:	f000 81f0 	beq.w	800eea4 <__ieee754_pow+0x764>
 800eac4:	a310      	add	r3, pc, #64	; (adr r3, 800eb08 <__ieee754_pow+0x3c8>)
 800eac6:	e9d3 2300 	ldrd	r2, r3, [r3]
 800eaca:	ec51 0b18 	vmov	r0, r1, d8
 800eace:	f7f1 fd93 	bl	80005f8 <__aeabi_dmul>
 800ead2:	a30d      	add	r3, pc, #52	; (adr r3, 800eb08 <__ieee754_pow+0x3c8>)
 800ead4:	e9d3 2300 	ldrd	r2, r3, [r3]
 800ead8:	e6cb      	b.n	800e872 <__ieee754_pow+0x132>
 800eada:	bf00      	nop
 800eadc:	f3af 8000 	nop.w
 800eae0:	60000000 	.word	0x60000000
 800eae4:	3ff71547 	.word	0x3ff71547
 800eae8:	f85ddf44 	.word	0xf85ddf44
 800eaec:	3e54ae0b 	.word	0x3e54ae0b
 800eaf0:	55555555 	.word	0x55555555
 800eaf4:	3fd55555 	.word	0x3fd55555
 800eaf8:	652b82fe 	.word	0x652b82fe
 800eafc:	3ff71547 	.word	0x3ff71547
 800eb00:	00000000 	.word	0x00000000
 800eb04:	bff00000 	.word	0xbff00000
 800eb08:	8800759c 	.word	0x8800759c
 800eb0c:	7e37e43c 	.word	0x7e37e43c
 800eb10:	3ff00000 	.word	0x3ff00000
 800eb14:	3fd00000 	.word	0x3fd00000
 800eb18:	3fe00000 	.word	0x3fe00000
 800eb1c:	408fffff 	.word	0x408fffff
 800eb20:	4bd7      	ldr	r3, [pc, #860]	; (800ee80 <__ieee754_pow+0x740>)
 800eb22:	ea03 0309 	and.w	r3, r3, r9
 800eb26:	2200      	movs	r2, #0
 800eb28:	b92b      	cbnz	r3, 800eb36 <__ieee754_pow+0x3f6>
 800eb2a:	4bd6      	ldr	r3, [pc, #856]	; (800ee84 <__ieee754_pow+0x744>)
 800eb2c:	f7f1 fd64 	bl	80005f8 <__aeabi_dmul>
 800eb30:	f06f 0234 	mvn.w	r2, #52	; 0x34
 800eb34:	460c      	mov	r4, r1
 800eb36:	1523      	asrs	r3, r4, #20
 800eb38:	f2a3 33ff 	subw	r3, r3, #1023	; 0x3ff
 800eb3c:	4413      	add	r3, r2
 800eb3e:	9309      	str	r3, [sp, #36]	; 0x24
 800eb40:	4bd1      	ldr	r3, [pc, #836]	; (800ee88 <__ieee754_pow+0x748>)
 800eb42:	f3c4 0413 	ubfx	r4, r4, #0, #20
 800eb46:	f044 557f 	orr.w	r5, r4, #1069547520	; 0x3fc00000
 800eb4a:	429c      	cmp	r4, r3
 800eb4c:	f445 1540 	orr.w	r5, r5, #3145728	; 0x300000
 800eb50:	dd08      	ble.n	800eb64 <__ieee754_pow+0x424>
 800eb52:	4bce      	ldr	r3, [pc, #824]	; (800ee8c <__ieee754_pow+0x74c>)
 800eb54:	429c      	cmp	r4, r3
 800eb56:	f340 8163 	ble.w	800ee20 <__ieee754_pow+0x6e0>
 800eb5a:	9b09      	ldr	r3, [sp, #36]	; 0x24
 800eb5c:	3301      	adds	r3, #1
 800eb5e:	9309      	str	r3, [sp, #36]	; 0x24
 800eb60:	f5a5 1580 	sub.w	r5, r5, #1048576	; 0x100000
 800eb64:	2400      	movs	r4, #0
 800eb66:	00e3      	lsls	r3, r4, #3
 800eb68:	930b      	str	r3, [sp, #44]	; 0x2c
 800eb6a:	4bc9      	ldr	r3, [pc, #804]	; (800ee90 <__ieee754_pow+0x750>)
 800eb6c:	eb03 03c4 	add.w	r3, r3, r4, lsl #3
 800eb70:	ed93 7b00 	vldr	d7, [r3]
 800eb74:	4629      	mov	r1, r5
 800eb76:	ec53 2b17 	vmov	r2, r3, d7
 800eb7a:	eeb0 8a47 	vmov.f32	s16, s14
 800eb7e:	eef0 8a67 	vmov.f32	s17, s15
 800eb82:	4682      	mov	sl, r0
 800eb84:	f7f1 fb80 	bl	8000288 <__aeabi_dsub>
 800eb88:	4652      	mov	r2, sl
 800eb8a:	4606      	mov	r6, r0
 800eb8c:	460f      	mov	r7, r1
 800eb8e:	462b      	mov	r3, r5
 800eb90:	ec51 0b18 	vmov	r0, r1, d8
 800eb94:	f7f1 fb7a 	bl	800028c <__adddf3>
 800eb98:	4602      	mov	r2, r0
 800eb9a:	460b      	mov	r3, r1
 800eb9c:	2000      	movs	r0, #0
 800eb9e:	49bd      	ldr	r1, [pc, #756]	; (800ee94 <__ieee754_pow+0x754>)
 800eba0:	f7f1 fe54 	bl	800084c <__aeabi_ddiv>
 800eba4:	ec41 0b19 	vmov	d9, r0, r1
 800eba8:	4602      	mov	r2, r0
 800ebaa:	460b      	mov	r3, r1
 800ebac:	4630      	mov	r0, r6
 800ebae:	4639      	mov	r1, r7
 800ebb0:	f7f1 fd22 	bl	80005f8 <__aeabi_dmul>
 800ebb4:	e9cd 0106 	strd	r0, r1, [sp, #24]
 800ebb8:	e9dd 2306 	ldrd	r2, r3, [sp, #24]
 800ebbc:	e9cd 2304 	strd	r2, r3, [sp, #16]
 800ebc0:	2300      	movs	r3, #0
 800ebc2:	9304      	str	r3, [sp, #16]
 800ebc4:	e9dd 8904 	ldrd	r8, r9, [sp, #16]
 800ebc8:	46ab      	mov	fp, r5
 800ebca:	106d      	asrs	r5, r5, #1
 800ebcc:	f045 5500 	orr.w	r5, r5, #536870912	; 0x20000000
 800ebd0:	f505 2500 	add.w	r5, r5, #524288	; 0x80000
 800ebd4:	eb05 4384 	add.w	r3, r5, r4, lsl #18
 800ebd8:	2200      	movs	r2, #0
 800ebda:	4640      	mov	r0, r8
 800ebdc:	4649      	mov	r1, r9
 800ebde:	4614      	mov	r4, r2
 800ebe0:	461d      	mov	r5, r3
 800ebe2:	f7f1 fd09 	bl	80005f8 <__aeabi_dmul>
 800ebe6:	4602      	mov	r2, r0
 800ebe8:	460b      	mov	r3, r1
 800ebea:	4630      	mov	r0, r6
 800ebec:	4639      	mov	r1, r7
 800ebee:	f7f1 fb4b 	bl	8000288 <__aeabi_dsub>
 800ebf2:	ec53 2b18 	vmov	r2, r3, d8
 800ebf6:	4606      	mov	r6, r0
 800ebf8:	460f      	mov	r7, r1
 800ebfa:	4620      	mov	r0, r4
 800ebfc:	4629      	mov	r1, r5
 800ebfe:	f7f1 fb43 	bl	8000288 <__aeabi_dsub>
 800ec02:	4602      	mov	r2, r0
 800ec04:	460b      	mov	r3, r1
 800ec06:	4650      	mov	r0, sl
 800ec08:	4659      	mov	r1, fp
 800ec0a:	f7f1 fb3d 	bl	8000288 <__aeabi_dsub>
 800ec0e:	4642      	mov	r2, r8
 800ec10:	464b      	mov	r3, r9
 800ec12:	f7f1 fcf1 	bl	80005f8 <__aeabi_dmul>
 800ec16:	4602      	mov	r2, r0
 800ec18:	460b      	mov	r3, r1
 800ec1a:	4630      	mov	r0, r6
 800ec1c:	4639      	mov	r1, r7
 800ec1e:	f7f1 fb33 	bl	8000288 <__aeabi_dsub>
 800ec22:	ec53 2b19 	vmov	r2, r3, d9
 800ec26:	f7f1 fce7 	bl	80005f8 <__aeabi_dmul>
 800ec2a:	e9dd 2306 	ldrd	r2, r3, [sp, #24]
 800ec2e:	ec41 0b18 	vmov	d8, r0, r1
 800ec32:	4610      	mov	r0, r2
 800ec34:	4619      	mov	r1, r3
 800ec36:	f7f1 fcdf 	bl	80005f8 <__aeabi_dmul>
 800ec3a:	a37d      	add	r3, pc, #500	; (adr r3, 800ee30 <__ieee754_pow+0x6f0>)
 800ec3c:	e9d3 2300 	ldrd	r2, r3, [r3]
 800ec40:	4604      	mov	r4, r0
 800ec42:	460d      	mov	r5, r1
 800ec44:	f7f1 fcd8 	bl	80005f8 <__aeabi_dmul>
 800ec48:	a37b      	add	r3, pc, #492	; (adr r3, 800ee38 <__ieee754_pow+0x6f8>)
 800ec4a:	e9d3 2300 	ldrd	r2, r3, [r3]
 800ec4e:	f7f1 fb1d 	bl	800028c <__adddf3>
 800ec52:	4622      	mov	r2, r4
 800ec54:	462b      	mov	r3, r5
 800ec56:	f7f1 fccf 	bl	80005f8 <__aeabi_dmul>
 800ec5a:	a379      	add	r3, pc, #484	; (adr r3, 800ee40 <__ieee754_pow+0x700>)
 800ec5c:	e9d3 2300 	ldrd	r2, r3, [r3]
 800ec60:	f7f1 fb14 	bl	800028c <__adddf3>
 800ec64:	4622      	mov	r2, r4
 800ec66:	462b      	mov	r3, r5
 800ec68:	f7f1 fcc6 	bl	80005f8 <__aeabi_dmul>
 800ec6c:	a376      	add	r3, pc, #472	; (adr r3, 800ee48 <__ieee754_pow+0x708>)
 800ec6e:	e9d3 2300 	ldrd	r2, r3, [r3]
 800ec72:	f7f1 fb0b 	bl	800028c <__adddf3>
 800ec76:	4622      	mov	r2, r4
 800ec78:	462b      	mov	r3, r5
 800ec7a:	f7f1 fcbd 	bl	80005f8 <__aeabi_dmul>
 800ec7e:	a374      	add	r3, pc, #464	; (adr r3, 800ee50 <__ieee754_pow+0x710>)
 800ec80:	e9d3 2300 	ldrd	r2, r3, [r3]
 800ec84:	f7f1 fb02 	bl	800028c <__adddf3>
 800ec88:	4622      	mov	r2, r4
 800ec8a:	462b      	mov	r3, r5
 800ec8c:	f7f1 fcb4 	bl	80005f8 <__aeabi_dmul>
 800ec90:	a371      	add	r3, pc, #452	; (adr r3, 800ee58 <__ieee754_pow+0x718>)
 800ec92:	e9d3 2300 	ldrd	r2, r3, [r3]
 800ec96:	f7f1 faf9 	bl	800028c <__adddf3>
 800ec9a:	4622      	mov	r2, r4
 800ec9c:	4606      	mov	r6, r0
 800ec9e:	460f      	mov	r7, r1
 800eca0:	462b      	mov	r3, r5
 800eca2:	4620      	mov	r0, r4
 800eca4:	4629      	mov	r1, r5
 800eca6:	f7f1 fca7 	bl	80005f8 <__aeabi_dmul>
 800ecaa:	4602      	mov	r2, r0
 800ecac:	460b      	mov	r3, r1
 800ecae:	4630      	mov	r0, r6
 800ecb0:	4639      	mov	r1, r7
 800ecb2:	f7f1 fca1 	bl	80005f8 <__aeabi_dmul>
 800ecb6:	4642      	mov	r2, r8
 800ecb8:	4604      	mov	r4, r0
 800ecba:	460d      	mov	r5, r1
 800ecbc:	464b      	mov	r3, r9
 800ecbe:	e9dd 0106 	ldrd	r0, r1, [sp, #24]
 800ecc2:	f7f1 fae3 	bl	800028c <__adddf3>
 800ecc6:	ec53 2b18 	vmov	r2, r3, d8
 800ecca:	f7f1 fc95 	bl	80005f8 <__aeabi_dmul>
 800ecce:	4622      	mov	r2, r4
 800ecd0:	462b      	mov	r3, r5
 800ecd2:	f7f1 fadb 	bl	800028c <__adddf3>
 800ecd6:	4642      	mov	r2, r8
 800ecd8:	4682      	mov	sl, r0
 800ecda:	468b      	mov	fp, r1
 800ecdc:	464b      	mov	r3, r9
 800ecde:	4640      	mov	r0, r8
 800ece0:	4649      	mov	r1, r9
 800ece2:	f7f1 fc89 	bl	80005f8 <__aeabi_dmul>
 800ece6:	4b6c      	ldr	r3, [pc, #432]	; (800ee98 <__ieee754_pow+0x758>)
 800ece8:	2200      	movs	r2, #0
 800ecea:	4606      	mov	r6, r0
 800ecec:	460f      	mov	r7, r1
 800ecee:	f7f1 facd 	bl	800028c <__adddf3>
 800ecf2:	4652      	mov	r2, sl
 800ecf4:	465b      	mov	r3, fp
 800ecf6:	f7f1 fac9 	bl	800028c <__adddf3>
 800ecfa:	9c04      	ldr	r4, [sp, #16]
 800ecfc:	460d      	mov	r5, r1
 800ecfe:	4622      	mov	r2, r4
 800ed00:	460b      	mov	r3, r1
 800ed02:	4640      	mov	r0, r8
 800ed04:	4649      	mov	r1, r9
 800ed06:	f7f1 fc77 	bl	80005f8 <__aeabi_dmul>
 800ed0a:	4b63      	ldr	r3, [pc, #396]	; (800ee98 <__ieee754_pow+0x758>)
 800ed0c:	4680      	mov	r8, r0
 800ed0e:	4689      	mov	r9, r1
 800ed10:	2200      	movs	r2, #0
 800ed12:	4620      	mov	r0, r4
 800ed14:	4629      	mov	r1, r5
 800ed16:	f7f1 fab7 	bl	8000288 <__aeabi_dsub>
 800ed1a:	4632      	mov	r2, r6
 800ed1c:	463b      	mov	r3, r7
 800ed1e:	f7f1 fab3 	bl	8000288 <__aeabi_dsub>
 800ed22:	4602      	mov	r2, r0
 800ed24:	460b      	mov	r3, r1
 800ed26:	4650      	mov	r0, sl
 800ed28:	4659      	mov	r1, fp
 800ed2a:	f7f1 faad 	bl	8000288 <__aeabi_dsub>
 800ed2e:	e9dd 2306 	ldrd	r2, r3, [sp, #24]
 800ed32:	f7f1 fc61 	bl	80005f8 <__aeabi_dmul>
 800ed36:	4622      	mov	r2, r4
 800ed38:	4606      	mov	r6, r0
 800ed3a:	460f      	mov	r7, r1
 800ed3c:	462b      	mov	r3, r5
 800ed3e:	ec51 0b18 	vmov	r0, r1, d8
 800ed42:	f7f1 fc59 	bl	80005f8 <__aeabi_dmul>
 800ed46:	4602      	mov	r2, r0
 800ed48:	460b      	mov	r3, r1
 800ed4a:	4630      	mov	r0, r6
 800ed4c:	4639      	mov	r1, r7
 800ed4e:	f7f1 fa9d 	bl	800028c <__adddf3>
 800ed52:	4606      	mov	r6, r0
 800ed54:	460f      	mov	r7, r1
 800ed56:	4602      	mov	r2, r0
 800ed58:	460b      	mov	r3, r1
 800ed5a:	4640      	mov	r0, r8
 800ed5c:	4649      	mov	r1, r9
 800ed5e:	f7f1 fa95 	bl	800028c <__adddf3>
 800ed62:	9c04      	ldr	r4, [sp, #16]
 800ed64:	a33e      	add	r3, pc, #248	; (adr r3, 800ee60 <__ieee754_pow+0x720>)
 800ed66:	e9d3 2300 	ldrd	r2, r3, [r3]
 800ed6a:	4620      	mov	r0, r4
 800ed6c:	460d      	mov	r5, r1
 800ed6e:	f7f1 fc43 	bl	80005f8 <__aeabi_dmul>
 800ed72:	4642      	mov	r2, r8
 800ed74:	ec41 0b18 	vmov	d8, r0, r1
 800ed78:	464b      	mov	r3, r9
 800ed7a:	4620      	mov	r0, r4
 800ed7c:	4629      	mov	r1, r5
 800ed7e:	f7f1 fa83 	bl	8000288 <__aeabi_dsub>
 800ed82:	4602      	mov	r2, r0
 800ed84:	460b      	mov	r3, r1
 800ed86:	4630      	mov	r0, r6
 800ed88:	4639      	mov	r1, r7
 800ed8a:	f7f1 fa7d 	bl	8000288 <__aeabi_dsub>
 800ed8e:	a336      	add	r3, pc, #216	; (adr r3, 800ee68 <__ieee754_pow+0x728>)
 800ed90:	e9d3 2300 	ldrd	r2, r3, [r3]
 800ed94:	f7f1 fc30 	bl	80005f8 <__aeabi_dmul>
 800ed98:	a335      	add	r3, pc, #212	; (adr r3, 800ee70 <__ieee754_pow+0x730>)
 800ed9a:	e9d3 2300 	ldrd	r2, r3, [r3]
 800ed9e:	4606      	mov	r6, r0
 800eda0:	460f      	mov	r7, r1
 800eda2:	4620      	mov	r0, r4
 800eda4:	4629      	mov	r1, r5
 800eda6:	f7f1 fc27 	bl	80005f8 <__aeabi_dmul>
 800edaa:	4602      	mov	r2, r0
 800edac:	460b      	mov	r3, r1
 800edae:	4630      	mov	r0, r6
 800edb0:	4639      	mov	r1, r7
 800edb2:	f7f1 fa6b 	bl	800028c <__adddf3>
 800edb6:	9a0b      	ldr	r2, [sp, #44]	; 0x2c
 800edb8:	4b38      	ldr	r3, [pc, #224]	; (800ee9c <__ieee754_pow+0x75c>)
 800edba:	4413      	add	r3, r2
 800edbc:	e9d3 2300 	ldrd	r2, r3, [r3]
 800edc0:	f7f1 fa64 	bl	800028c <__adddf3>
 800edc4:	4682      	mov	sl, r0
 800edc6:	9809      	ldr	r0, [sp, #36]	; 0x24
 800edc8:	468b      	mov	fp, r1
 800edca:	f7f1 fbab 	bl	8000524 <__aeabi_i2d>
 800edce:	9a0b      	ldr	r2, [sp, #44]	; 0x2c
 800edd0:	4b33      	ldr	r3, [pc, #204]	; (800eea0 <__ieee754_pow+0x760>)
 800edd2:	4413      	add	r3, r2
 800edd4:	e9d3 8900 	ldrd	r8, r9, [r3]
 800edd8:	4606      	mov	r6, r0
 800edda:	460f      	mov	r7, r1
 800eddc:	4652      	mov	r2, sl
 800edde:	465b      	mov	r3, fp
 800ede0:	ec51 0b18 	vmov	r0, r1, d8
 800ede4:	f7f1 fa52 	bl	800028c <__adddf3>
 800ede8:	4642      	mov	r2, r8
 800edea:	464b      	mov	r3, r9
 800edec:	f7f1 fa4e 	bl	800028c <__adddf3>
 800edf0:	4632      	mov	r2, r6
 800edf2:	463b      	mov	r3, r7
 800edf4:	f7f1 fa4a 	bl	800028c <__adddf3>
 800edf8:	9c04      	ldr	r4, [sp, #16]
 800edfa:	4632      	mov	r2, r6
 800edfc:	463b      	mov	r3, r7
 800edfe:	4620      	mov	r0, r4
 800ee00:	460d      	mov	r5, r1
 800ee02:	f7f1 fa41 	bl	8000288 <__aeabi_dsub>
 800ee06:	4642      	mov	r2, r8
 800ee08:	464b      	mov	r3, r9
 800ee0a:	f7f1 fa3d 	bl	8000288 <__aeabi_dsub>
 800ee0e:	ec53 2b18 	vmov	r2, r3, d8
 800ee12:	f7f1 fa39 	bl	8000288 <__aeabi_dsub>
 800ee16:	4602      	mov	r2, r0
 800ee18:	460b      	mov	r3, r1
 800ee1a:	4650      	mov	r0, sl
 800ee1c:	4659      	mov	r1, fp
 800ee1e:	e606      	b.n	800ea2e <__ieee754_pow+0x2ee>
 800ee20:	2401      	movs	r4, #1
 800ee22:	e6a0      	b.n	800eb66 <__ieee754_pow+0x426>
 800ee24:	ed9f 7b14 	vldr	d7, [pc, #80]	; 800ee78 <__ieee754_pow+0x738>
 800ee28:	e60d      	b.n	800ea46 <__ieee754_pow+0x306>
 800ee2a:	bf00      	nop
 800ee2c:	f3af 8000 	nop.w
 800ee30:	4a454eef 	.word	0x4a454eef
 800ee34:	3fca7e28 	.word	0x3fca7e28
 800ee38:	93c9db65 	.word	0x93c9db65
 800ee3c:	3fcd864a 	.word	0x3fcd864a
 800ee40:	a91d4101 	.word	0xa91d4101
 800ee44:	3fd17460 	.word	0x3fd17460
 800ee48:	518f264d 	.word	0x518f264d
 800ee4c:	3fd55555 	.word	0x3fd55555
 800ee50:	db6fabff 	.word	0xdb6fabff
 800ee54:	3fdb6db6 	.word	0x3fdb6db6
 800ee58:	33333303 	.word	0x33333303
 800ee5c:	3fe33333 	.word	0x3fe33333
 800ee60:	e0000000 	.word	0xe0000000
 800ee64:	3feec709 	.word	0x3feec709
 800ee68:	dc3a03fd 	.word	0xdc3a03fd
 800ee6c:	3feec709 	.word	0x3feec709
 800ee70:	145b01f5 	.word	0x145b01f5
 800ee74:	be3e2fe0 	.word	0xbe3e2fe0
 800ee78:	00000000 	.word	0x00000000
 800ee7c:	3ff00000 	.word	0x3ff00000
 800ee80:	7ff00000 	.word	0x7ff00000
 800ee84:	43400000 	.word	0x43400000
 800ee88:	0003988e 	.word	0x0003988e
 800ee8c:	000bb679 	.word	0x000bb679
 800ee90:	080102e8 	.word	0x080102e8
 800ee94:	3ff00000 	.word	0x3ff00000
 800ee98:	40080000 	.word	0x40080000
 800ee9c:	08010308 	.word	0x08010308
 800eea0:	080102f8 	.word	0x080102f8
 800eea4:	a3b5      	add	r3, pc, #724	; (adr r3, 800f17c <__ieee754_pow+0xa3c>)
 800eea6:	e9d3 2300 	ldrd	r2, r3, [r3]
 800eeaa:	4640      	mov	r0, r8
 800eeac:	4649      	mov	r1, r9
 800eeae:	f7f1 f9ed 	bl	800028c <__adddf3>
 800eeb2:	4622      	mov	r2, r4
 800eeb4:	ec41 0b1a 	vmov	d10, r0, r1
 800eeb8:	462b      	mov	r3, r5
 800eeba:	4630      	mov	r0, r6
 800eebc:	4639      	mov	r1, r7
 800eebe:	f7f1 f9e3 	bl	8000288 <__aeabi_dsub>
 800eec2:	4602      	mov	r2, r0
 800eec4:	460b      	mov	r3, r1
 800eec6:	ec51 0b1a 	vmov	r0, r1, d10
 800eeca:	f7f1 fe25 	bl	8000b18 <__aeabi_dcmpgt>
 800eece:	2800      	cmp	r0, #0
 800eed0:	f47f adf8 	bne.w	800eac4 <__ieee754_pow+0x384>
 800eed4:	4aa4      	ldr	r2, [pc, #656]	; (800f168 <__ieee754_pow+0xa28>)
 800eed6:	f02b 4300 	bic.w	r3, fp, #2147483648	; 0x80000000
 800eeda:	4293      	cmp	r3, r2
 800eedc:	f340 810b 	ble.w	800f0f6 <__ieee754_pow+0x9b6>
 800eee0:	151b      	asrs	r3, r3, #20
 800eee2:	f44f 1a80 	mov.w	sl, #1048576	; 0x100000
 800eee6:	f2a3 33fe 	subw	r3, r3, #1022	; 0x3fe
 800eeea:	fa4a f303 	asr.w	r3, sl, r3
 800eeee:	445b      	add	r3, fp
 800eef0:	f3c3 520a 	ubfx	r2, r3, #20, #11
 800eef4:	4e9d      	ldr	r6, [pc, #628]	; (800f16c <__ieee754_pow+0xa2c>)
 800eef6:	f2a2 32ff 	subw	r2, r2, #1023	; 0x3ff
 800eefa:	4116      	asrs	r6, r2
 800eefc:	f3c3 0a13 	ubfx	sl, r3, #0, #20
 800ef00:	2000      	movs	r0, #0
 800ef02:	ea23 0106 	bic.w	r1, r3, r6
 800ef06:	f1c2 0214 	rsb	r2, r2, #20
 800ef0a:	f44a 1a80 	orr.w	sl, sl, #1048576	; 0x100000
 800ef0e:	fa4a fa02 	asr.w	sl, sl, r2
 800ef12:	f1bb 0f00 	cmp.w	fp, #0
 800ef16:	4602      	mov	r2, r0
 800ef18:	460b      	mov	r3, r1
 800ef1a:	4620      	mov	r0, r4
 800ef1c:	4629      	mov	r1, r5
 800ef1e:	bfb8      	it	lt
 800ef20:	f1ca 0a00 	rsblt	sl, sl, #0
 800ef24:	f7f1 f9b0 	bl	8000288 <__aeabi_dsub>
 800ef28:	ec41 0b19 	vmov	d9, r0, r1
 800ef2c:	4642      	mov	r2, r8
 800ef2e:	464b      	mov	r3, r9
 800ef30:	ec51 0b19 	vmov	r0, r1, d9
 800ef34:	f7f1 f9aa 	bl	800028c <__adddf3>
 800ef38:	2400      	movs	r4, #0
 800ef3a:	a379      	add	r3, pc, #484	; (adr r3, 800f120 <__ieee754_pow+0x9e0>)
 800ef3c:	e9d3 2300 	ldrd	r2, r3, [r3]
 800ef40:	4620      	mov	r0, r4
 800ef42:	460d      	mov	r5, r1
 800ef44:	f7f1 fb58 	bl	80005f8 <__aeabi_dmul>
 800ef48:	ec53 2b19 	vmov	r2, r3, d9
 800ef4c:	4606      	mov	r6, r0
 800ef4e:	460f      	mov	r7, r1
 800ef50:	4620      	mov	r0, r4
 800ef52:	4629      	mov	r1, r5
 800ef54:	f7f1 f998 	bl	8000288 <__aeabi_dsub>
 800ef58:	4602      	mov	r2, r0
 800ef5a:	460b      	mov	r3, r1
 800ef5c:	4640      	mov	r0, r8
 800ef5e:	4649      	mov	r1, r9
 800ef60:	f7f1 f992 	bl	8000288 <__aeabi_dsub>
 800ef64:	a370      	add	r3, pc, #448	; (adr r3, 800f128 <__ieee754_pow+0x9e8>)
 800ef66:	e9d3 2300 	ldrd	r2, r3, [r3]
 800ef6a:	f7f1 fb45 	bl	80005f8 <__aeabi_dmul>
 800ef6e:	a370      	add	r3, pc, #448	; (adr r3, 800f130 <__ieee754_pow+0x9f0>)
 800ef70:	e9d3 2300 	ldrd	r2, r3, [r3]
 800ef74:	4680      	mov	r8, r0
 800ef76:	4689      	mov	r9, r1
 800ef78:	4620      	mov	r0, r4
 800ef7a:	4629      	mov	r1, r5
 800ef7c:	f7f1 fb3c 	bl	80005f8 <__aeabi_dmul>
 800ef80:	4602      	mov	r2, r0
 800ef82:	460b      	mov	r3, r1
 800ef84:	4640      	mov	r0, r8
 800ef86:	4649      	mov	r1, r9
 800ef88:	f7f1 f980 	bl	800028c <__adddf3>
 800ef8c:	4604      	mov	r4, r0
 800ef8e:	460d      	mov	r5, r1
 800ef90:	4602      	mov	r2, r0
 800ef92:	460b      	mov	r3, r1
 800ef94:	4630      	mov	r0, r6
 800ef96:	4639      	mov	r1, r7
 800ef98:	f7f1 f978 	bl	800028c <__adddf3>
 800ef9c:	4632      	mov	r2, r6
 800ef9e:	463b      	mov	r3, r7
 800efa0:	4680      	mov	r8, r0
 800efa2:	4689      	mov	r9, r1
 800efa4:	f7f1 f970 	bl	8000288 <__aeabi_dsub>
 800efa8:	4602      	mov	r2, r0
 800efaa:	460b      	mov	r3, r1
 800efac:	4620      	mov	r0, r4
 800efae:	4629      	mov	r1, r5
 800efb0:	f7f1 f96a 	bl	8000288 <__aeabi_dsub>
 800efb4:	4642      	mov	r2, r8
 800efb6:	4606      	mov	r6, r0
 800efb8:	460f      	mov	r7, r1
 800efba:	464b      	mov	r3, r9
 800efbc:	4640      	mov	r0, r8
 800efbe:	4649      	mov	r1, r9
 800efc0:	f7f1 fb1a 	bl	80005f8 <__aeabi_dmul>
 800efc4:	a35c      	add	r3, pc, #368	; (adr r3, 800f138 <__ieee754_pow+0x9f8>)
 800efc6:	e9d3 2300 	ldrd	r2, r3, [r3]
 800efca:	4604      	mov	r4, r0
 800efcc:	460d      	mov	r5, r1
 800efce:	f7f1 fb13 	bl	80005f8 <__aeabi_dmul>
 800efd2:	a35b      	add	r3, pc, #364	; (adr r3, 800f140 <__ieee754_pow+0xa00>)
 800efd4:	e9d3 2300 	ldrd	r2, r3, [r3]
 800efd8:	f7f1 f956 	bl	8000288 <__aeabi_dsub>
 800efdc:	4622      	mov	r2, r4
 800efde:	462b      	mov	r3, r5
 800efe0:	f7f1 fb0a 	bl	80005f8 <__aeabi_dmul>
 800efe4:	a358      	add	r3, pc, #352	; (adr r3, 800f148 <__ieee754_pow+0xa08>)
 800efe6:	e9d3 2300 	ldrd	r2, r3, [r3]
 800efea:	f7f1 f94f 	bl	800028c <__adddf3>
 800efee:	4622      	mov	r2, r4
 800eff0:	462b      	mov	r3, r5
 800eff2:	f7f1 fb01 	bl	80005f8 <__aeabi_dmul>
 800eff6:	a356      	add	r3, pc, #344	; (adr r3, 800f150 <__ieee754_pow+0xa10>)
 800eff8:	e9d3 2300 	ldrd	r2, r3, [r3]
 800effc:	f7f1 f944 	bl	8000288 <__aeabi_dsub>
 800f000:	4622      	mov	r2, r4
 800f002:	462b      	mov	r3, r5
 800f004:	f7f1 faf8 	bl	80005f8 <__aeabi_dmul>
 800f008:	a353      	add	r3, pc, #332	; (adr r3, 800f158 <__ieee754_pow+0xa18>)
 800f00a:	e9d3 2300 	ldrd	r2, r3, [r3]
 800f00e:	f7f1 f93d 	bl	800028c <__adddf3>
 800f012:	4622      	mov	r2, r4
 800f014:	462b      	mov	r3, r5
 800f016:	f7f1 faef 	bl	80005f8 <__aeabi_dmul>
 800f01a:	4602      	mov	r2, r0
 800f01c:	460b      	mov	r3, r1
 800f01e:	4640      	mov	r0, r8
 800f020:	4649      	mov	r1, r9
 800f022:	f7f1 f931 	bl	8000288 <__aeabi_dsub>
 800f026:	4604      	mov	r4, r0
 800f028:	460d      	mov	r5, r1
 800f02a:	4602      	mov	r2, r0
 800f02c:	460b      	mov	r3, r1
 800f02e:	4640      	mov	r0, r8
 800f030:	4649      	mov	r1, r9
 800f032:	f7f1 fae1 	bl	80005f8 <__aeabi_dmul>
 800f036:	2200      	movs	r2, #0
 800f038:	ec41 0b19 	vmov	d9, r0, r1
 800f03c:	f04f 4380 	mov.w	r3, #1073741824	; 0x40000000
 800f040:	4620      	mov	r0, r4
 800f042:	4629      	mov	r1, r5
 800f044:	f7f1 f920 	bl	8000288 <__aeabi_dsub>
 800f048:	4602      	mov	r2, r0
 800f04a:	460b      	mov	r3, r1
 800f04c:	ec51 0b19 	vmov	r0, r1, d9
 800f050:	f7f1 fbfc 	bl	800084c <__aeabi_ddiv>
 800f054:	4632      	mov	r2, r6
 800f056:	4604      	mov	r4, r0
 800f058:	460d      	mov	r5, r1
 800f05a:	463b      	mov	r3, r7
 800f05c:	4640      	mov	r0, r8
 800f05e:	4649      	mov	r1, r9
 800f060:	f7f1 faca 	bl	80005f8 <__aeabi_dmul>
 800f064:	4632      	mov	r2, r6
 800f066:	463b      	mov	r3, r7
 800f068:	f7f1 f910 	bl	800028c <__adddf3>
 800f06c:	4602      	mov	r2, r0
 800f06e:	460b      	mov	r3, r1
 800f070:	4620      	mov	r0, r4
 800f072:	4629      	mov	r1, r5
 800f074:	f7f1 f908 	bl	8000288 <__aeabi_dsub>
 800f078:	4642      	mov	r2, r8
 800f07a:	464b      	mov	r3, r9
 800f07c:	f7f1 f904 	bl	8000288 <__aeabi_dsub>
 800f080:	460b      	mov	r3, r1
 800f082:	4602      	mov	r2, r0
 800f084:	493a      	ldr	r1, [pc, #232]	; (800f170 <__ieee754_pow+0xa30>)
 800f086:	2000      	movs	r0, #0
 800f088:	f7f1 f8fe 	bl	8000288 <__aeabi_dsub>
 800f08c:	e9cd 0100 	strd	r0, r1, [sp]
 800f090:	9b01      	ldr	r3, [sp, #4]
 800f092:	eb03 530a 	add.w	r3, r3, sl, lsl #20
 800f096:	f5b3 1f80 	cmp.w	r3, #1048576	; 0x100000
 800f09a:	da2f      	bge.n	800f0fc <__ieee754_pow+0x9bc>
 800f09c:	4650      	mov	r0, sl
 800f09e:	ed9d 0b00 	vldr	d0, [sp]
 800f0a2:	f000 f9c1 	bl	800f428 <scalbn>
 800f0a6:	ec51 0b10 	vmov	r0, r1, d0
 800f0aa:	ec53 2b18 	vmov	r2, r3, d8
 800f0ae:	f7ff bbe0 	b.w	800e872 <__ieee754_pow+0x132>
 800f0b2:	4b30      	ldr	r3, [pc, #192]	; (800f174 <__ieee754_pow+0xa34>)
 800f0b4:	f021 4600 	bic.w	r6, r1, #2147483648	; 0x80000000
 800f0b8:	429e      	cmp	r6, r3
 800f0ba:	f77f af0b 	ble.w	800eed4 <__ieee754_pow+0x794>
 800f0be:	4b2e      	ldr	r3, [pc, #184]	; (800f178 <__ieee754_pow+0xa38>)
 800f0c0:	440b      	add	r3, r1
 800f0c2:	4303      	orrs	r3, r0
 800f0c4:	d00b      	beq.n	800f0de <__ieee754_pow+0x99e>
 800f0c6:	a326      	add	r3, pc, #152	; (adr r3, 800f160 <__ieee754_pow+0xa20>)
 800f0c8:	e9d3 2300 	ldrd	r2, r3, [r3]
 800f0cc:	ec51 0b18 	vmov	r0, r1, d8
 800f0d0:	f7f1 fa92 	bl	80005f8 <__aeabi_dmul>
 800f0d4:	a322      	add	r3, pc, #136	; (adr r3, 800f160 <__ieee754_pow+0xa20>)
 800f0d6:	e9d3 2300 	ldrd	r2, r3, [r3]
 800f0da:	f7ff bbca 	b.w	800e872 <__ieee754_pow+0x132>
 800f0de:	4622      	mov	r2, r4
 800f0e0:	462b      	mov	r3, r5
 800f0e2:	f7f1 f8d1 	bl	8000288 <__aeabi_dsub>
 800f0e6:	4642      	mov	r2, r8
 800f0e8:	464b      	mov	r3, r9
 800f0ea:	f7f1 fd0b 	bl	8000b04 <__aeabi_dcmpge>
 800f0ee:	2800      	cmp	r0, #0
 800f0f0:	f43f aef0 	beq.w	800eed4 <__ieee754_pow+0x794>
 800f0f4:	e7e7      	b.n	800f0c6 <__ieee754_pow+0x986>
 800f0f6:	f04f 0a00 	mov.w	sl, #0
 800f0fa:	e717      	b.n	800ef2c <__ieee754_pow+0x7ec>
 800f0fc:	e9dd 0100 	ldrd	r0, r1, [sp]
 800f100:	4619      	mov	r1, r3
 800f102:	e7d2      	b.n	800f0aa <__ieee754_pow+0x96a>
 800f104:	491a      	ldr	r1, [pc, #104]	; (800f170 <__ieee754_pow+0xa30>)
 800f106:	2000      	movs	r0, #0
 800f108:	f7ff bb9e 	b.w	800e848 <__ieee754_pow+0x108>
 800f10c:	e9dd 0102 	ldrd	r0, r1, [sp, #8]
 800f110:	f7ff bb9a 	b.w	800e848 <__ieee754_pow+0x108>
 800f114:	9000      	str	r0, [sp, #0]
 800f116:	f7ff bb76 	b.w	800e806 <__ieee754_pow+0xc6>
 800f11a:	2100      	movs	r1, #0
 800f11c:	f7ff bb60 	b.w	800e7e0 <__ieee754_pow+0xa0>
 800f120:	00000000 	.word	0x00000000
 800f124:	3fe62e43 	.word	0x3fe62e43
 800f128:	fefa39ef 	.word	0xfefa39ef
 800f12c:	3fe62e42 	.word	0x3fe62e42
 800f130:	0ca86c39 	.word	0x0ca86c39
 800f134:	be205c61 	.word	0xbe205c61
 800f138:	72bea4d0 	.word	0x72bea4d0
 800f13c:	3e663769 	.word	0x3e663769
 800f140:	c5d26bf1 	.word	0xc5d26bf1
 800f144:	3ebbbd41 	.word	0x3ebbbd41
 800f148:	af25de2c 	.word	0xaf25de2c
 800f14c:	3f11566a 	.word	0x3f11566a
 800f150:	16bebd93 	.word	0x16bebd93
 800f154:	3f66c16c 	.word	0x3f66c16c
 800f158:	5555553e 	.word	0x5555553e
 800f15c:	3fc55555 	.word	0x3fc55555
 800f160:	c2f8f359 	.word	0xc2f8f359
 800f164:	01a56e1f 	.word	0x01a56e1f
 800f168:	3fe00000 	.word	0x3fe00000
 800f16c:	000fffff 	.word	0x000fffff
 800f170:	3ff00000 	.word	0x3ff00000
 800f174:	4090cbff 	.word	0x4090cbff
 800f178:	3f6f3400 	.word	0x3f6f3400
 800f17c:	652b82fe 	.word	0x652b82fe
 800f180:	3c971547 	.word	0x3c971547

0800f184 <__ieee754_sqrt>:
 800f184:	e92d 41f0 	stmdb	sp!, {r4, r5, r6, r7, r8, lr}
 800f188:	ec55 4b10 	vmov	r4, r5, d0
 800f18c:	4e56      	ldr	r6, [pc, #344]	; (800f2e8 <__ieee754_sqrt+0x164>)
 800f18e:	43ae      	bics	r6, r5
 800f190:	ee10 0a10 	vmov	r0, s0
 800f194:	ee10 3a10 	vmov	r3, s0
 800f198:	4629      	mov	r1, r5
 800f19a:	462a      	mov	r2, r5
 800f19c:	d110      	bne.n	800f1c0 <__ieee754_sqrt+0x3c>
 800f19e:	ee10 2a10 	vmov	r2, s0
 800f1a2:	462b      	mov	r3, r5
 800f1a4:	f7f1 fa28 	bl	80005f8 <__aeabi_dmul>
 800f1a8:	4602      	mov	r2, r0
 800f1aa:	460b      	mov	r3, r1
 800f1ac:	4620      	mov	r0, r4
 800f1ae:	4629      	mov	r1, r5
 800f1b0:	f7f1 f86c 	bl	800028c <__adddf3>
 800f1b4:	4604      	mov	r4, r0
 800f1b6:	460d      	mov	r5, r1
 800f1b8:	ec45 4b10 	vmov	d0, r4, r5
 800f1bc:	e8bd 81f0 	ldmia.w	sp!, {r4, r5, r6, r7, r8, pc}
 800f1c0:	2d00      	cmp	r5, #0
 800f1c2:	dc10      	bgt.n	800f1e6 <__ieee754_sqrt+0x62>
 800f1c4:	f025 4600 	bic.w	r6, r5, #2147483648	; 0x80000000
 800f1c8:	4330      	orrs	r0, r6
 800f1ca:	d0f5      	beq.n	800f1b8 <__ieee754_sqrt+0x34>
 800f1cc:	b15d      	cbz	r5, 800f1e6 <__ieee754_sqrt+0x62>
 800f1ce:	ee10 2a10 	vmov	r2, s0
 800f1d2:	462b      	mov	r3, r5
 800f1d4:	ee10 0a10 	vmov	r0, s0
 800f1d8:	f7f1 f856 	bl	8000288 <__aeabi_dsub>
 800f1dc:	4602      	mov	r2, r0
 800f1de:	460b      	mov	r3, r1
 800f1e0:	f7f1 fb34 	bl	800084c <__aeabi_ddiv>
 800f1e4:	e7e6      	b.n	800f1b4 <__ieee754_sqrt+0x30>
 800f1e6:	1509      	asrs	r1, r1, #20
 800f1e8:	d076      	beq.n	800f2d8 <__ieee754_sqrt+0x154>
 800f1ea:	f3c2 0213 	ubfx	r2, r2, #0, #20
 800f1ee:	07ce      	lsls	r6, r1, #31
 800f1f0:	f442 1080 	orr.w	r0, r2, #1048576	; 0x100000
 800f1f4:	bf5e      	ittt	pl
 800f1f6:	0fda      	lsrpl	r2, r3, #31
 800f1f8:	005b      	lslpl	r3, r3, #1
 800f1fa:	eb02 0040 	addpl.w	r0, r2, r0, lsl #1
 800f1fe:	0fda      	lsrs	r2, r3, #31
 800f200:	f2a1 35ff 	subw	r5, r1, #1023	; 0x3ff
 800f204:	eb02 0240 	add.w	r2, r2, r0, lsl #1
 800f208:	2000      	movs	r0, #0
 800f20a:	106d      	asrs	r5, r5, #1
 800f20c:	005b      	lsls	r3, r3, #1
 800f20e:	f04f 0e16 	mov.w	lr, #22
 800f212:	4684      	mov	ip, r0
 800f214:	f44f 1100 	mov.w	r1, #2097152	; 0x200000
 800f218:	eb0c 0401 	add.w	r4, ip, r1
 800f21c:	4294      	cmp	r4, r2
 800f21e:	bfde      	ittt	le
 800f220:	1b12      	suble	r2, r2, r4
 800f222:	eb04 0c01 	addle.w	ip, r4, r1
 800f226:	1840      	addle	r0, r0, r1
 800f228:	0052      	lsls	r2, r2, #1
 800f22a:	f1be 0e01 	subs.w	lr, lr, #1
 800f22e:	eb02 72d3 	add.w	r2, r2, r3, lsr #31
 800f232:	ea4f 0151 	mov.w	r1, r1, lsr #1
 800f236:	ea4f 0343 	mov.w	r3, r3, lsl #1
 800f23a:	d1ed      	bne.n	800f218 <__ieee754_sqrt+0x94>
 800f23c:	4671      	mov	r1, lr
 800f23e:	2720      	movs	r7, #32
 800f240:	f04f 4400 	mov.w	r4, #2147483648	; 0x80000000
 800f244:	4562      	cmp	r2, ip
 800f246:	eb04 060e 	add.w	r6, r4, lr
 800f24a:	dc02      	bgt.n	800f252 <__ieee754_sqrt+0xce>
 800f24c:	d113      	bne.n	800f276 <__ieee754_sqrt+0xf2>
 800f24e:	429e      	cmp	r6, r3
 800f250:	d811      	bhi.n	800f276 <__ieee754_sqrt+0xf2>
 800f252:	2e00      	cmp	r6, #0
 800f254:	eb06 0e04 	add.w	lr, r6, r4
 800f258:	da43      	bge.n	800f2e2 <__ieee754_sqrt+0x15e>
 800f25a:	f1be 0f00 	cmp.w	lr, #0
 800f25e:	db40      	blt.n	800f2e2 <__ieee754_sqrt+0x15e>
 800f260:	f10c 0801 	add.w	r8, ip, #1
 800f264:	eba2 020c 	sub.w	r2, r2, ip
 800f268:	429e      	cmp	r6, r3
 800f26a:	bf88      	it	hi
 800f26c:	f102 32ff 	addhi.w	r2, r2, #4294967295
 800f270:	1b9b      	subs	r3, r3, r6
 800f272:	4421      	add	r1, r4
 800f274:	46c4      	mov	ip, r8
 800f276:	0052      	lsls	r2, r2, #1
 800f278:	3f01      	subs	r7, #1
 800f27a:	eb02 72d3 	add.w	r2, r2, r3, lsr #31
 800f27e:	ea4f 0454 	mov.w	r4, r4, lsr #1
 800f282:	ea4f 0343 	mov.w	r3, r3, lsl #1
 800f286:	d1dd      	bne.n	800f244 <__ieee754_sqrt+0xc0>
 800f288:	4313      	orrs	r3, r2
 800f28a:	d006      	beq.n	800f29a <__ieee754_sqrt+0x116>
 800f28c:	1c4c      	adds	r4, r1, #1
 800f28e:	bf13      	iteet	ne
 800f290:	3101      	addne	r1, #1
 800f292:	3001      	addeq	r0, #1
 800f294:	4639      	moveq	r1, r7
 800f296:	f021 0101 	bicne.w	r1, r1, #1
 800f29a:	1043      	asrs	r3, r0, #1
 800f29c:	f103 537f 	add.w	r3, r3, #1069547520	; 0x3fc00000
 800f2a0:	0849      	lsrs	r1, r1, #1
 800f2a2:	f503 1300 	add.w	r3, r3, #2097152	; 0x200000
 800f2a6:	07c2      	lsls	r2, r0, #31
 800f2a8:	bf48      	it	mi
 800f2aa:	f041 4100 	orrmi.w	r1, r1, #2147483648	; 0x80000000
 800f2ae:	eb03 5705 	add.w	r7, r3, r5, lsl #20
 800f2b2:	460c      	mov	r4, r1
 800f2b4:	463d      	mov	r5, r7
 800f2b6:	e77f      	b.n	800f1b8 <__ieee754_sqrt+0x34>
 800f2b8:	0ada      	lsrs	r2, r3, #11
 800f2ba:	3815      	subs	r0, #21
 800f2bc:	055b      	lsls	r3, r3, #21
 800f2be:	2a00      	cmp	r2, #0
 800f2c0:	d0fa      	beq.n	800f2b8 <__ieee754_sqrt+0x134>
 800f2c2:	02d7      	lsls	r7, r2, #11
 800f2c4:	d50a      	bpl.n	800f2dc <__ieee754_sqrt+0x158>
 800f2c6:	f1c1 0420 	rsb	r4, r1, #32
 800f2ca:	fa23 f404 	lsr.w	r4, r3, r4
 800f2ce:	1e4d      	subs	r5, r1, #1
 800f2d0:	408b      	lsls	r3, r1
 800f2d2:	4322      	orrs	r2, r4
 800f2d4:	1b41      	subs	r1, r0, r5
 800f2d6:	e788      	b.n	800f1ea <__ieee754_sqrt+0x66>
 800f2d8:	4608      	mov	r0, r1
 800f2da:	e7f0      	b.n	800f2be <__ieee754_sqrt+0x13a>
 800f2dc:	0052      	lsls	r2, r2, #1
 800f2de:	3101      	adds	r1, #1
 800f2e0:	e7ef      	b.n	800f2c2 <__ieee754_sqrt+0x13e>
 800f2e2:	46e0      	mov	r8, ip
 800f2e4:	e7be      	b.n	800f264 <__ieee754_sqrt+0xe0>
 800f2e6:	bf00      	nop
 800f2e8:	7ff00000 	.word	0x7ff00000

0800f2ec <fabs>:
 800f2ec:	ec51 0b10 	vmov	r0, r1, d0
 800f2f0:	ee10 2a10 	vmov	r2, s0
 800f2f4:	f021 4300 	bic.w	r3, r1, #2147483648	; 0x80000000
 800f2f8:	ec43 2b10 	vmov	d0, r2, r3
 800f2fc:	4770      	bx	lr

0800f2fe <finite>:
 800f2fe:	b082      	sub	sp, #8
 800f300:	ed8d 0b00 	vstr	d0, [sp]
 800f304:	9801      	ldr	r0, [sp, #4]
 800f306:	f040 4000 	orr.w	r0, r0, #2147483648	; 0x80000000
 800f30a:	f500 1080 	add.w	r0, r0, #1048576	; 0x100000
 800f30e:	0fc0      	lsrs	r0, r0, #31
 800f310:	b002      	add	sp, #8
 800f312:	4770      	bx	lr

0800f314 <rint>:
 800f314:	b5f7      	push	{r0, r1, r2, r4, r5, r6, r7, lr}
 800f316:	ec51 0b10 	vmov	r0, r1, d0
 800f31a:	f3c1 520a 	ubfx	r2, r1, #20, #11
 800f31e:	f2a2 36ff 	subw	r6, r2, #1023	; 0x3ff
 800f322:	2e13      	cmp	r6, #19
 800f324:	ee10 4a10 	vmov	r4, s0
 800f328:	460b      	mov	r3, r1
 800f32a:	ea4f 75d1 	mov.w	r5, r1, lsr #31
 800f32e:	dc58      	bgt.n	800f3e2 <rint+0xce>
 800f330:	2e00      	cmp	r6, #0
 800f332:	da2b      	bge.n	800f38c <rint+0x78>
 800f334:	f021 4200 	bic.w	r2, r1, #2147483648	; 0x80000000
 800f338:	4302      	orrs	r2, r0
 800f33a:	d023      	beq.n	800f384 <rint+0x70>
 800f33c:	f3c1 0213 	ubfx	r2, r1, #0, #20
 800f340:	4302      	orrs	r2, r0
 800f342:	4254      	negs	r4, r2
 800f344:	4314      	orrs	r4, r2
 800f346:	0c4b      	lsrs	r3, r1, #17
 800f348:	0b24      	lsrs	r4, r4, #12
 800f34a:	045b      	lsls	r3, r3, #17
 800f34c:	f404 2400 	and.w	r4, r4, #524288	; 0x80000
 800f350:	ea44 0103 	orr.w	r1, r4, r3
 800f354:	4b32      	ldr	r3, [pc, #200]	; (800f420 <rint+0x10c>)
 800f356:	eb03 03c5 	add.w	r3, r3, r5, lsl #3
 800f35a:	e9d3 6700 	ldrd	r6, r7, [r3]
 800f35e:	4602      	mov	r2, r0
 800f360:	460b      	mov	r3, r1
 800f362:	4630      	mov	r0, r6
 800f364:	4639      	mov	r1, r7
 800f366:	f7f0 ff91 	bl	800028c <__adddf3>
 800f36a:	e9cd 0100 	strd	r0, r1, [sp]
 800f36e:	463b      	mov	r3, r7
 800f370:	e9dd 0100 	ldrd	r0, r1, [sp]
 800f374:	4632      	mov	r2, r6
 800f376:	f7f0 ff87 	bl	8000288 <__aeabi_dsub>
 800f37a:	f021 4300 	bic.w	r3, r1, #2147483648	; 0x80000000
 800f37e:	ea43 77c5 	orr.w	r7, r3, r5, lsl #31
 800f382:	4639      	mov	r1, r7
 800f384:	ec41 0b10 	vmov	d0, r0, r1
 800f388:	b003      	add	sp, #12
 800f38a:	bdf0      	pop	{r4, r5, r6, r7, pc}
 800f38c:	4a25      	ldr	r2, [pc, #148]	; (800f424 <rint+0x110>)
 800f38e:	4132      	asrs	r2, r6
 800f390:	ea01 0702 	and.w	r7, r1, r2
 800f394:	4307      	orrs	r7, r0
 800f396:	d0f5      	beq.n	800f384 <rint+0x70>
 800f398:	0851      	lsrs	r1, r2, #1
 800f39a:	ea03 0252 	and.w	r2, r3, r2, lsr #1
 800f39e:	4314      	orrs	r4, r2
 800f3a0:	d00c      	beq.n	800f3bc <rint+0xa8>
 800f3a2:	ea23 0201 	bic.w	r2, r3, r1
 800f3a6:	f44f 2380 	mov.w	r3, #262144	; 0x40000
 800f3aa:	2e13      	cmp	r6, #19
 800f3ac:	fa43 f606 	asr.w	r6, r3, r6
 800f3b0:	bf0c      	ite	eq
 800f3b2:	f04f 4400 	moveq.w	r4, #2147483648	; 0x80000000
 800f3b6:	2400      	movne	r4, #0
 800f3b8:	ea42 0306 	orr.w	r3, r2, r6
 800f3bc:	4918      	ldr	r1, [pc, #96]	; (800f420 <rint+0x10c>)
 800f3be:	eb01 05c5 	add.w	r5, r1, r5, lsl #3
 800f3c2:	4622      	mov	r2, r4
 800f3c4:	e9d5 4500 	ldrd	r4, r5, [r5]
 800f3c8:	4620      	mov	r0, r4
 800f3ca:	4629      	mov	r1, r5
 800f3cc:	f7f0 ff5e 	bl	800028c <__adddf3>
 800f3d0:	e9cd 0100 	strd	r0, r1, [sp]
 800f3d4:	e9dd 0100 	ldrd	r0, r1, [sp]
 800f3d8:	4622      	mov	r2, r4
 800f3da:	462b      	mov	r3, r5
 800f3dc:	f7f0 ff54 	bl	8000288 <__aeabi_dsub>
 800f3e0:	e7d0      	b.n	800f384 <rint+0x70>
 800f3e2:	2e33      	cmp	r6, #51	; 0x33
 800f3e4:	dd07      	ble.n	800f3f6 <rint+0xe2>
 800f3e6:	f5b6 6f80 	cmp.w	r6, #1024	; 0x400
 800f3ea:	d1cb      	bne.n	800f384 <rint+0x70>
 800f3ec:	ee10 2a10 	vmov	r2, s0
 800f3f0:	f7f0 ff4c 	bl	800028c <__adddf3>
 800f3f4:	e7c6      	b.n	800f384 <rint+0x70>
 800f3f6:	f2a2 4213 	subw	r2, r2, #1043	; 0x413
 800f3fa:	f04f 36ff 	mov.w	r6, #4294967295
 800f3fe:	40d6      	lsrs	r6, r2
 800f400:	4230      	tst	r0, r6
 800f402:	d0bf      	beq.n	800f384 <rint+0x70>
 800f404:	ea14 0056 	ands.w	r0, r4, r6, lsr #1
 800f408:	ea4f 0156 	mov.w	r1, r6, lsr #1
 800f40c:	bf1f      	itttt	ne
 800f40e:	ea24 0101 	bicne.w	r1, r4, r1
 800f412:	f04f 4480 	movne.w	r4, #1073741824	; 0x40000000
 800f416:	fa44 f202 	asrne.w	r2, r4, r2
 800f41a:	ea41 0402 	orrne.w	r4, r1, r2
 800f41e:	e7cd      	b.n	800f3bc <rint+0xa8>
 800f420:	08010318 	.word	0x08010318
 800f424:	000fffff 	.word	0x000fffff

0800f428 <scalbn>:
 800f428:	b570      	push	{r4, r5, r6, lr}
 800f42a:	ec55 4b10 	vmov	r4, r5, d0
 800f42e:	f3c5 520a 	ubfx	r2, r5, #20, #11
 800f432:	4606      	mov	r6, r0
 800f434:	462b      	mov	r3, r5
 800f436:	b99a      	cbnz	r2, 800f460 <scalbn+0x38>
 800f438:	f025 4300 	bic.w	r3, r5, #2147483648	; 0x80000000
 800f43c:	4323      	orrs	r3, r4
 800f43e:	d036      	beq.n	800f4ae <scalbn+0x86>
 800f440:	4b39      	ldr	r3, [pc, #228]	; (800f528 <scalbn+0x100>)
 800f442:	4629      	mov	r1, r5
 800f444:	ee10 0a10 	vmov	r0, s0
 800f448:	2200      	movs	r2, #0
 800f44a:	f7f1 f8d5 	bl	80005f8 <__aeabi_dmul>
 800f44e:	4b37      	ldr	r3, [pc, #220]	; (800f52c <scalbn+0x104>)
 800f450:	429e      	cmp	r6, r3
 800f452:	4604      	mov	r4, r0
 800f454:	460d      	mov	r5, r1
 800f456:	da10      	bge.n	800f47a <scalbn+0x52>
 800f458:	a32b      	add	r3, pc, #172	; (adr r3, 800f508 <scalbn+0xe0>)
 800f45a:	e9d3 2300 	ldrd	r2, r3, [r3]
 800f45e:	e03a      	b.n	800f4d6 <scalbn+0xae>
 800f460:	f240 71ff 	movw	r1, #2047	; 0x7ff
 800f464:	428a      	cmp	r2, r1
 800f466:	d10c      	bne.n	800f482 <scalbn+0x5a>
 800f468:	ee10 2a10 	vmov	r2, s0
 800f46c:	4620      	mov	r0, r4
 800f46e:	4629      	mov	r1, r5
 800f470:	f7f0 ff0c 	bl	800028c <__adddf3>
 800f474:	4604      	mov	r4, r0
 800f476:	460d      	mov	r5, r1
 800f478:	e019      	b.n	800f4ae <scalbn+0x86>
 800f47a:	f3c1 520a 	ubfx	r2, r1, #20, #11
 800f47e:	460b      	mov	r3, r1
 800f480:	3a36      	subs	r2, #54	; 0x36
 800f482:	4432      	add	r2, r6
 800f484:	f240 71fe 	movw	r1, #2046	; 0x7fe
 800f488:	428a      	cmp	r2, r1
 800f48a:	dd08      	ble.n	800f49e <scalbn+0x76>
 800f48c:	2d00      	cmp	r5, #0
 800f48e:	a120      	add	r1, pc, #128	; (adr r1, 800f510 <scalbn+0xe8>)
 800f490:	e9d1 0100 	ldrd	r0, r1, [r1]
 800f494:	da1c      	bge.n	800f4d0 <scalbn+0xa8>
 800f496:	a120      	add	r1, pc, #128	; (adr r1, 800f518 <scalbn+0xf0>)
 800f498:	e9d1 0100 	ldrd	r0, r1, [r1]
 800f49c:	e018      	b.n	800f4d0 <scalbn+0xa8>
 800f49e:	2a00      	cmp	r2, #0
 800f4a0:	dd08      	ble.n	800f4b4 <scalbn+0x8c>
 800f4a2:	f023 43ff 	bic.w	r3, r3, #2139095040	; 0x7f800000
 800f4a6:	f423 03e0 	bic.w	r3, r3, #7340032	; 0x700000
 800f4aa:	ea43 5502 	orr.w	r5, r3, r2, lsl #20
 800f4ae:	ec45 4b10 	vmov	d0, r4, r5
 800f4b2:	bd70      	pop	{r4, r5, r6, pc}
 800f4b4:	f112 0f35 	cmn.w	r2, #53	; 0x35
 800f4b8:	da19      	bge.n	800f4ee <scalbn+0xc6>
 800f4ba:	f24c 3350 	movw	r3, #50000	; 0xc350
 800f4be:	429e      	cmp	r6, r3
 800f4c0:	f005 4300 	and.w	r3, r5, #2147483648	; 0x80000000
 800f4c4:	dd0a      	ble.n	800f4dc <scalbn+0xb4>
 800f4c6:	a112      	add	r1, pc, #72	; (adr r1, 800f510 <scalbn+0xe8>)
 800f4c8:	e9d1 0100 	ldrd	r0, r1, [r1]
 800f4cc:	2b00      	cmp	r3, #0
 800f4ce:	d1e2      	bne.n	800f496 <scalbn+0x6e>
 800f4d0:	a30f      	add	r3, pc, #60	; (adr r3, 800f510 <scalbn+0xe8>)
 800f4d2:	e9d3 2300 	ldrd	r2, r3, [r3]
 800f4d6:	f7f1 f88f 	bl	80005f8 <__aeabi_dmul>
 800f4da:	e7cb      	b.n	800f474 <scalbn+0x4c>
 800f4dc:	a10a      	add	r1, pc, #40	; (adr r1, 800f508 <scalbn+0xe0>)
 800f4de:	e9d1 0100 	ldrd	r0, r1, [r1]
 800f4e2:	2b00      	cmp	r3, #0
 800f4e4:	d0b8      	beq.n	800f458 <scalbn+0x30>
 800f4e6:	a10e      	add	r1, pc, #56	; (adr r1, 800f520 <scalbn+0xf8>)
 800f4e8:	e9d1 0100 	ldrd	r0, r1, [r1]
 800f4ec:	e7b4      	b.n	800f458 <scalbn+0x30>
 800f4ee:	f023 43ff 	bic.w	r3, r3, #2139095040	; 0x7f800000
 800f4f2:	3236      	adds	r2, #54	; 0x36
 800f4f4:	f423 03e0 	bic.w	r3, r3, #7340032	; 0x700000
 800f4f8:	ea43 5102 	orr.w	r1, r3, r2, lsl #20
 800f4fc:	4620      	mov	r0, r4
 800f4fe:	4b0c      	ldr	r3, [pc, #48]	; (800f530 <scalbn+0x108>)
 800f500:	2200      	movs	r2, #0
 800f502:	e7e8      	b.n	800f4d6 <scalbn+0xae>
 800f504:	f3af 8000 	nop.w
 800f508:	c2f8f359 	.word	0xc2f8f359
 800f50c:	01a56e1f 	.word	0x01a56e1f
 800f510:	8800759c 	.word	0x8800759c
 800f514:	7e37e43c 	.word	0x7e37e43c
 800f518:	8800759c 	.word	0x8800759c
 800f51c:	fe37e43c 	.word	0xfe37e43c
 800f520:	c2f8f359 	.word	0xc2f8f359
 800f524:	81a56e1f 	.word	0x81a56e1f
 800f528:	43500000 	.word	0x43500000
 800f52c:	ffff3cb0 	.word	0xffff3cb0
 800f530:	3c900000 	.word	0x3c900000

0800f534 <_init>:
 800f534:	b5f8      	push	{r3, r4, r5, r6, r7, lr}
 800f536:	bf00      	nop
 800f538:	bcf8      	pop	{r3, r4, r5, r6, r7}
 800f53a:	bc08      	pop	{r3}
 800f53c:	469e      	mov	lr, r3
 800f53e:	4770      	bx	lr

0800f540 <_fini>:
 800f540:	b5f8      	push	{r3, r4, r5, r6, r7, lr}
 800f542:	bf00      	nop
 800f544:	bcf8      	pop	{r3, r4, r5, r6, r7}
 800f546:	bc08      	pop	{r3}
 800f548:	469e      	mov	lr, r3
 800f54a:	4770      	bx	lr
